Archive member included to satisfy reference by file (symbol)

RTAOS.lib(ActivateTask.o)     Rte.o (Os_ActivateTask)
RTAOS.lib(CancelAlarm.o)      Rte_Lib.o (Os_CancelAlarm)
RTAOS.lib(ClearEvent.o)       Rte_Lib.o (Os_ClearEvent)
RTAOS.lib(DispatchTask.o)     RTAOS.lib(ActivateTask.o) (Os_Dispatch)
RTAOS.lib(GetEvent.o)         Rte_Lib.o (Os_GetEvent)
RTAOS.lib(GetISRID.o)         Os_ErrorHook.o (Os_GetISRID)
RTAOS.lib(GetResource.o)      Rte_Lib.o (Os_GetResource)
RTAOS.lib(GetTaskID.o)        Os_ErrorHook.o (Os_GetTaskID)
RTAOS.lib(Os_Cfg.o)           RTAOS.lib(ClearEvent.o) (Os_RunningTask)
RTAOS.lib(Os_Cfg_Counters.o)  Rte.o (Os_IncrementCounter_Rte_TOutCounter)
RTAOS.lib(Os_fsb.o)           RTAOS.lib(DispatchTask.o) (@Os_fsb@4)
RTAOS.lib(Os_SetJmp.o)        RTAOS.lib(DispatchTask.o) (Os_SetJmp)
RTAOS.lib(Os_Stack.o)         main.o (Os_GetSP)
RTAOS.lib(ReleaseResource.o)  Rte_Lib.o (Os_ReleaseResource)
RTAOS.lib(ResumeOSInterrupts.o)
                              Rte.o (Os_ResumeOSInterrupts)
RTAOS.lib(SetEvent.o)         Rte_Lib.o (Os_SetEvent)
RTAOS.lib(SetRelAlarm.o)      Rte_Lib.o (Os_SetRelAlarm)
RTAOS.lib(StartOS.o)          main.o (Os_StartOS)
RTAOS.lib(StartScheduleTableRel.o)
                              Rte_Lib.o (Os_StartScheduleTableRel)
RTAOS.lib(StopScheduleTable.o)
                              Rte_Lib.o (Os_StopScheduleTable)
RTAOS.lib(SuspendOSInterrupts.o)
                              Rte.o (Os_SuspendOSInterrupts)
RTAOS.lib(TerminateTask.o)    TAKS_ECU_SPEED.o (Os_TerminateTask)
RTAOS.lib(vrtaAppMain.o)      C:/Program Files/ETAS/ISOLAR-EVE3.0/plugins/com.etas.evetools.toolsfolder_1.4.5/Tools/MinGW/bin/../lib/gcc/i686-w64-mingw32/4.9.2/../../../../i686-w64-mingw32/lib/../lib/crt2.o (main)
RTAOS.lib(vrtaCore.o)         RTAOS.lib(vrtaAppMain.o) (vrtaLoadVM)
RTAOS.lib(vrtaIdleHandling.o)
                              RTAOS.lib(vrtaCore.o) (vrtaRunIdleHandlers)
RTAOS.lib(vrtaLoggerDevice.o)
                              VirtualDevices.o (Logger::Logger(char*))
RTAOS.lib(vrtaOSMonitorDevice.o)
                              RTAOS.lib(vrtaAppMain.o) (EnableOsMonitor)
RTAOS.lib(vrtaSampleDevices.o)
                              EVE_SystemClock.o (vrtaBaseClock::Start())
RTAOS.lib(vrtaSystemClock.o)  RTAOS.lib(vrtaSampleDevices.o) (vrtaSystemClockSubscriber::vrtaSystemClockSubscriber())
RTAOS.lib(vrtaSystemClockDevice.o)
                              RTAOS.lib(vrtaSystemClock.o) (SystemClockTickUpdateNotification(unsigned int))
RTAOS.lib(WaitEvent.o)        Rte_Lib.o (Os_WaitEvent)
RTAOS.lib(DispatchECC.o)      RTAOS.lib(Os_Cfg.o) (Os_DispatchECC)
RTAOS.lib(GetStackValue.o)    RTAOS.lib(Os_Cfg.o) (Os_GetStackValue)
RTAOS.lib(Os_vectors.o)       RTAOS.lib(vrtaAppMain.o) (Os_InterruptVectorTable)
RTAOS.lib(Os_wrapper.o)       RTAOS.lib(Os_vectors.o) (Os_ISRWrapper)
RTAOS.lib(StackOverrunHook.o)
                              RTAOS.lib(WaitEvent.o) (Os_Cbk_StackOverrunHook)
RTAOS.lib(virtualDevice.o)    RTAOS.lib(vrtaOSMonitorDevice.o) (VirtualDevice::EventHandler(vrtaEvent&))
RTAOS.lib(ShutdownOS.o)       RTAOS.lib(StackOverrunHook.o) (Os_ShutdownOS)
RTAOS.lib(InShutdown.o)       RTAOS.lib(ShutdownOS.o) (Os_Cbk_InShutdown)
C:/Program Files/ETAS/ISOLAR-EVE3.0/plugins/com.etas.evetools.toolsfolder_1.4.5/Tools/MinGW/bin/../lib/gcc/i686-w64-mingw32/4.9.2/../../../../i686-w64-mingw32/lib/../lib/libwinmm.a(dasfs00150.o)
                              RTAOS.lib(vrtaSystemClock.o) (_imp__timeSetEvent@20)
C:/Program Files/ETAS/ISOLAR-EVE3.0/plugins/com.etas.evetools.toolsfolder_1.4.5/Tools/MinGW/bin/../lib/gcc/i686-w64-mingw32/4.9.2/../../../../i686-w64-mingw32/lib/../lib/libwinmm.a(dasfs00149.o)
                              RTAOS.lib(vrtaSystemClock.o) (_imp__timeKillEvent@4)
C:/Program Files/ETAS/ISOLAR-EVE3.0/plugins/com.etas.evetools.toolsfolder_1.4.5/Tools/MinGW/bin/../lib/gcc/i686-w64-mingw32/4.9.2/../../../../i686-w64-mingw32/lib/../lib/libwinmm.a(dasfs00144.o)
                              RTAOS.lib(vrtaSystemClock.o) (_imp__timeBeginPeriod@4)
C:/Program Files/ETAS/ISOLAR-EVE3.0/plugins/com.etas.evetools.toolsfolder_1.4.5/Tools/MinGW/bin/../lib/gcc/i686-w64-mingw32/4.9.2/../../../../i686-w64-mingw32/lib/../lib/libwinmm.a(dasfh.o)
                              C:/Program Files/ETAS/ISOLAR-EVE3.0/plugins/com.etas.evetools.toolsfolder_1.4.5/Tools/MinGW/bin/../lib/gcc/i686-w64-mingw32/4.9.2/../../../../i686-w64-mingw32/lib/../lib/libwinmm.a(dasfs00150.o) (_head_lib32_libwinmm_a)
C:/Program Files/ETAS/ISOLAR-EVE3.0/plugins/com.etas.evetools.toolsfolder_1.4.5/Tools/MinGW/bin/../lib/gcc/i686-w64-mingw32/4.9.2/../../../../i686-w64-mingw32/lib/../lib/libwinmm.a(dasft.o)
                              C:/Program Files/ETAS/ISOLAR-EVE3.0/plugins/com.etas.evetools.toolsfolder_1.4.5/Tools/MinGW/bin/../lib/gcc/i686-w64-mingw32/4.9.2/../../../../i686-w64-mingw32/lib/../lib/libwinmm.a(dasfh.o) (_lib32_libwinmm_a_iname)
C:/Program Files/ETAS/ISOLAR-EVE3.0/plugins/com.etas.evetools.toolsfolder_1.4.5/Tools/MinGW/bin/../lib/gcc/i686-w64-mingw32/4.9.2\libstdc++.a(class_type_info.o)
                              RTAOS.lib(vrtaCore.o) (vtable for __cxxabiv1::__class_type_info)
C:/Program Files/ETAS/ISOLAR-EVE3.0/plugins/com.etas.evetools.toolsfolder_1.4.5/Tools/MinGW/bin/../lib/gcc/i686-w64-mingw32/4.9.2\libstdc++.a(del_op.o)
                              EVE_SystemClock.o (operator delete(void*))
C:/Program Files/ETAS/ISOLAR-EVE3.0/plugins/com.etas.evetools.toolsfolder_1.4.5/Tools/MinGW/bin/../lib/gcc/i686-w64-mingw32/4.9.2\libstdc++.a(del_opv.o)
                              RTAOS.lib(vrtaSampleDevices.o) (operator delete[](void*))
C:/Program Files/ETAS/ISOLAR-EVE3.0/plugins/com.etas.evetools.toolsfolder_1.4.5/Tools/MinGW/bin/../lib/gcc/i686-w64-mingw32/4.9.2\libstdc++.a(eh_catch.o)
                              RTAOS.lib(vrtaCore.o) (__cxa_begin_catch)
C:/Program Files/ETAS/ISOLAR-EVE3.0/plugins/com.etas.evetools.toolsfolder_1.4.5/Tools/MinGW/bin/../lib/gcc/i686-w64-mingw32/4.9.2\libstdc++.a(eh_globals.o)
                              C:/Program Files/ETAS/ISOLAR-EVE3.0/plugins/com.etas.evetools.toolsfolder_1.4.5/Tools/MinGW/bin/../lib/gcc/i686-w64-mingw32/4.9.2\libstdc++.a(eh_catch.o) (__cxa_get_globals_fast)
C:/Program Files/ETAS/ISOLAR-EVE3.0/plugins/com.etas.evetools.toolsfolder_1.4.5/Tools/MinGW/bin/../lib/gcc/i686-w64-mingw32/4.9.2\libstdc++.a(eh_personality.o)
                              RTAOS.lib(vrtaCore.o) (__gxx_personality_v0)
C:/Program Files/ETAS/ISOLAR-EVE3.0/plugins/com.etas.evetools.toolsfolder_1.4.5/Tools/MinGW/bin/../lib/gcc/i686-w64-mingw32/4.9.2\libstdc++.a(eh_terminate.o)
                              C:/Program Files/ETAS/ISOLAR-EVE3.0/plugins/com.etas.evetools.toolsfolder_1.4.5/Tools/MinGW/bin/../lib/gcc/i686-w64-mingw32/4.9.2\libstdc++.a(eh_personality.o) (__cxxabiv1::__terminate(void (*)()))
C:/Program Files/ETAS/ISOLAR-EVE3.0/plugins/com.etas.evetools.toolsfolder_1.4.5/Tools/MinGW/bin/../lib/gcc/i686-w64-mingw32/4.9.2\libstdc++.a(eh_term_handler.o)
                              C:/Program Files/ETAS/ISOLAR-EVE3.0/plugins/com.etas.evetools.toolsfolder_1.4.5/Tools/MinGW/bin/../lib/gcc/i686-w64-mingw32/4.9.2\libstdc++.a(eh_terminate.o) (__cxxabiv1::__terminate_handler)
C:/Program Files/ETAS/ISOLAR-EVE3.0/plugins/com.etas.evetools.toolsfolder_1.4.5/Tools/MinGW/bin/../lib/gcc/i686-w64-mingw32/4.9.2\libstdc++.a(eh_throw.o)
                              C:/Program Files/ETAS/ISOLAR-EVE3.0/plugins/com.etas.evetools.toolsfolder_1.4.5/Tools/MinGW/bin/../lib/gcc/i686-w64-mingw32/4.9.2\libstdc++.a(eh_personality.o) (__cxa_throw)
C:/Program Files/ETAS/ISOLAR-EVE3.0/plugins/com.etas.evetools.toolsfolder_1.4.5/Tools/MinGW/bin/../lib/gcc/i686-w64-mingw32/4.9.2\libstdc++.a(eh_unex_handler.o)
                              C:/Program Files/ETAS/ISOLAR-EVE3.0/plugins/com.etas.evetools.toolsfolder_1.4.5/Tools/MinGW/bin/../lib/gcc/i686-w64-mingw32/4.9.2\libstdc++.a(eh_terminate.o) (__cxxabiv1::__unexpected_handler)
C:/Program Files/ETAS/ISOLAR-EVE3.0/plugins/com.etas.evetools.toolsfolder_1.4.5/Tools/MinGW/bin/../lib/gcc/i686-w64-mingw32/4.9.2\libstdc++.a(new_op.o)
                              RTAOS.lib(vrtaOSMonitorDevice.o) (operator new(unsigned int))
C:/Program Files/ETAS/ISOLAR-EVE3.0/plugins/com.etas.evetools.toolsfolder_1.4.5/Tools/MinGW/bin/../lib/gcc/i686-w64-mingw32/4.9.2\libstdc++.a(new_opv.o)
                              RTAOS.lib(vrtaSampleDevices.o) (operator new[](unsigned int))
C:/Program Files/ETAS/ISOLAR-EVE3.0/plugins/com.etas.evetools.toolsfolder_1.4.5/Tools/MinGW/bin/../lib/gcc/i686-w64-mingw32/4.9.2\libstdc++.a(pure.o)
                              RTAOS.lib(vrtaCore.o) (__cxa_pure_virtual)
C:/Program Files/ETAS/ISOLAR-EVE3.0/plugins/com.etas.evetools.toolsfolder_1.4.5/Tools/MinGW/bin/../lib/gcc/i686-w64-mingw32/4.9.2\libstdc++.a(si_class_type_info.o)
                              RTAOS.lib(vrtaLoggerDevice.o) (vtable for __cxxabiv1::__si_class_type_info)
C:/Program Files/ETAS/ISOLAR-EVE3.0/plugins/com.etas.evetools.toolsfolder_1.4.5/Tools/MinGW/bin/../lib/gcc/i686-w64-mingw32/4.9.2\libstdc++.a(tinfo.o)
                              C:/Program Files/ETAS/ISOLAR-EVE3.0/plugins/com.etas.evetools.toolsfolder_1.4.5/Tools/MinGW/bin/../lib/gcc/i686-w64-mingw32/4.9.2\libstdc++.a(class_type_info.o) (std::type_info::~type_info())
C:/Program Files/ETAS/ISOLAR-EVE3.0/plugins/com.etas.evetools.toolsfolder_1.4.5/Tools/MinGW/bin/../lib/gcc/i686-w64-mingw32/4.9.2\libstdc++.a(vmi_class_type_info.o)
                              RTAOS.lib(vrtaSampleDevices.o) (vtable for __cxxabiv1::__vmi_class_type_info)
C:/Program Files/ETAS/ISOLAR-EVE3.0/plugins/com.etas.evetools.toolsfolder_1.4.5/Tools/MinGW/bin/../lib/gcc/i686-w64-mingw32/4.9.2\libstdc++.a(vterminate.o)
                              C:/Program Files/ETAS/ISOLAR-EVE3.0/plugins/com.etas.evetools.toolsfolder_1.4.5/Tools/MinGW/bin/../lib/gcc/i686-w64-mingw32/4.9.2\libstdc++.a(eh_term_handler.o) (__gnu_cxx::__verbose_terminate_handler())
C:/Program Files/ETAS/ISOLAR-EVE3.0/plugins/com.etas.evetools.toolsfolder_1.4.5/Tools/MinGW/bin/../lib/gcc/i686-w64-mingw32/4.9.2\libstdc++.a(bad_alloc.o)
                              C:/Program Files/ETAS/ISOLAR-EVE3.0/plugins/com.etas.evetools.toolsfolder_1.4.5/Tools/MinGW/bin/../lib/gcc/i686-w64-mingw32/4.9.2\libstdc++.a(new_op.o) (std::bad_alloc::~bad_alloc())
C:/Program Files/ETAS/ISOLAR-EVE3.0/plugins/com.etas.evetools.toolsfolder_1.4.5/Tools/MinGW/bin/../lib/gcc/i686-w64-mingw32/4.9.2\libstdc++.a(cp-demangle.o)
                              C:/Program Files/ETAS/ISOLAR-EVE3.0/plugins/com.etas.evetools.toolsfolder_1.4.5/Tools/MinGW/bin/../lib/gcc/i686-w64-mingw32/4.9.2\libstdc++.a(vterminate.o) (__cxa_demangle)
C:/Program Files/ETAS/ISOLAR-EVE3.0/plugins/com.etas.evetools.toolsfolder_1.4.5/Tools/MinGW/bin/../lib/gcc/i686-w64-mingw32/4.9.2\libstdc++.a(eh_alloc.o)
                              C:/Program Files/ETAS/ISOLAR-EVE3.0/plugins/com.etas.evetools.toolsfolder_1.4.5/Tools/MinGW/bin/../lib/gcc/i686-w64-mingw32/4.9.2\libstdc++.a(eh_throw.o) (__cxa_free_exception)
C:/Program Files/ETAS/ISOLAR-EVE3.0/plugins/com.etas.evetools.toolsfolder_1.4.5/Tools/MinGW/bin/../lib/gcc/i686-w64-mingw32/4.9.2\libstdc++.a(eh_call.o)
                              C:/Program Files/ETAS/ISOLAR-EVE3.0/plugins/com.etas.evetools.toolsfolder_1.4.5/Tools/MinGW/bin/../lib/gcc/i686-w64-mingw32/4.9.2\libstdc++.a(eh_personality.o) (__cxa_call_terminate)
C:/Program Files/ETAS/ISOLAR-EVE3.0/plugins/com.etas.evetools.toolsfolder_1.4.5/Tools/MinGW/bin/../lib/gcc/i686-w64-mingw32/4.9.2\libstdc++.a(eh_exception.o)
                              C:/Program Files/ETAS/ISOLAR-EVE3.0/plugins/com.etas.evetools.toolsfolder_1.4.5/Tools/MinGW/bin/../lib/gcc/i686-w64-mingw32/4.9.2\libstdc++.a(bad_alloc.o) (std::exception::~exception())
C:/Program Files/ETAS/ISOLAR-EVE3.0/plugins/com.etas.evetools.toolsfolder_1.4.5/Tools/MinGW/bin/../lib/gcc/i686-w64-mingw32/4.9.2\libstdc++.a(eh_type.o)
                              C:/Program Files/ETAS/ISOLAR-EVE3.0/plugins/com.etas.evetools.toolsfolder_1.4.5/Tools/MinGW/bin/../lib/gcc/i686-w64-mingw32/4.9.2\libstdc++.a(vterminate.o) (__cxa_current_exception_type)
C:/Program Files/ETAS/ISOLAR-EVE3.0/plugins/com.etas.evetools.toolsfolder_1.4.5/Tools/MinGW/bin/../lib/gcc/i686-w64-mingw32/4.9.2\libstdc++.a(new_handler.o)
                              C:/Program Files/ETAS/ISOLAR-EVE3.0/plugins/com.etas.evetools.toolsfolder_1.4.5/Tools/MinGW/bin/../lib/gcc/i686-w64-mingw32/4.9.2\libstdc++.a(new_op.o) (std::get_new_handler())
C:/Program Files/ETAS/ISOLAR-EVE3.0/plugins/com.etas.evetools.toolsfolder_1.4.5/Tools/MinGW/bin/../lib/gcc/i686-w64-mingw32/4.9.2/../../../../i686-w64-mingw32/lib/../lib/libmingw32.a(lib32_libmingw32_a-atonexit.o)
                              EVE_SystemClock.o (atexit)
C:/Program Files/ETAS/ISOLAR-EVE3.0/plugins/com.etas.evetools.toolsfolder_1.4.5/Tools/MinGW/bin/../lib/gcc/i686-w64-mingw32/4.9.2/../../../../i686-w64-mingw32/lib/../lib/libmingw32.a(lib32_libmingw32_a-gccmain.o)
                              C:/Program Files/ETAS/ISOLAR-EVE3.0/plugins/com.etas.evetools.toolsfolder_1.4.5/Tools/MinGW/bin/../lib/gcc/i686-w64-mingw32/4.9.2/../../../../i686-w64-mingw32/lib/../lib/crt2.o (__main)
C:/Program Files/ETAS/ISOLAR-EVE3.0/plugins/com.etas.evetools.toolsfolder_1.4.5/Tools/MinGW/bin/../lib/gcc/i686-w64-mingw32/4.9.2/../../../../i686-w64-mingw32/lib/../lib/libmingw32.a(lib32_libmingw32_a-natstart.o)
                              C:/Program Files/ETAS/ISOLAR-EVE3.0/plugins/com.etas.evetools.toolsfolder_1.4.5/Tools/MinGW/bin/../lib/gcc/i686-w64-mingw32/4.9.2/../../../../i686-w64-mingw32/lib/../lib/crt2.o (__native_startup_lock)
C:/Program Files/ETAS/ISOLAR-EVE3.0/plugins/com.etas.evetools.toolsfolder_1.4.5/Tools/MinGW/bin/../lib/gcc/i686-w64-mingw32/4.9.2/../../../../i686-w64-mingw32/lib/../lib/libmingw32.a(lib32_libmingw32_a-wildcard.o)
                              C:/Program Files/ETAS/ISOLAR-EVE3.0/plugins/com.etas.evetools.toolsfolder_1.4.5/Tools/MinGW/bin/../lib/gcc/i686-w64-mingw32/4.9.2/../../../../i686-w64-mingw32/lib/../lib/crt2.o (_dowildcard)
C:/Program Files/ETAS/ISOLAR-EVE3.0/plugins/com.etas.evetools.toolsfolder_1.4.5/Tools/MinGW/bin/../lib/gcc/i686-w64-mingw32/4.9.2/../../../../i686-w64-mingw32/lib/../lib/libmingw32.a(lib32_libmingw32_a-charmax.o)
                              C:/Program Files/ETAS/ISOLAR-EVE3.0/plugins/com.etas.evetools.toolsfolder_1.4.5/Tools/MinGW/bin/../lib/gcc/i686-w64-mingw32/4.9.2/../../../../i686-w64-mingw32/lib/../lib/crt2.o (mingw_initcharmax)
C:/Program Files/ETAS/ISOLAR-EVE3.0/plugins/com.etas.evetools.toolsfolder_1.4.5/Tools/MinGW/bin/../lib/gcc/i686-w64-mingw32/4.9.2/../../../../i686-w64-mingw32/lib/../lib/libmingw32.a(lib32_libmingw32_a-dllargv.o)
                              C:/Program Files/ETAS/ISOLAR-EVE3.0/plugins/com.etas.evetools.toolsfolder_1.4.5/Tools/MinGW/bin/../lib/gcc/i686-w64-mingw32/4.9.2/../../../../i686-w64-mingw32/lib/../lib/crt2.o (_setargv)
C:/Program Files/ETAS/ISOLAR-EVE3.0/plugins/com.etas.evetools.toolsfolder_1.4.5/Tools/MinGW/bin/../lib/gcc/i686-w64-mingw32/4.9.2/../../../../i686-w64-mingw32/lib/../lib/libmingw32.a(lib32_libmingw32_a-gs_support.o)
                              C:/Program Files/ETAS/ISOLAR-EVE3.0/plugins/com.etas.evetools.toolsfolder_1.4.5/Tools/MinGW/bin/../lib/gcc/i686-w64-mingw32/4.9.2/../../../../i686-w64-mingw32/lib/../lib/crt2.o (__security_init_cookie)
C:/Program Files/ETAS/ISOLAR-EVE3.0/plugins/com.etas.evetools.toolsfolder_1.4.5/Tools/MinGW/bin/../lib/gcc/i686-w64-mingw32/4.9.2/../../../../i686-w64-mingw32/lib/../lib/libmingw32.a(lib32_libmingw32_a-_newmode.o)
                              C:/Program Files/ETAS/ISOLAR-EVE3.0/plugins/com.etas.evetools.toolsfolder_1.4.5/Tools/MinGW/bin/../lib/gcc/i686-w64-mingw32/4.9.2/../../../../i686-w64-mingw32/lib/../lib/crt2.o (_newmode)
C:/Program Files/ETAS/ISOLAR-EVE3.0/plugins/com.etas.evetools.toolsfolder_1.4.5/Tools/MinGW/bin/../lib/gcc/i686-w64-mingw32/4.9.2/../../../../i686-w64-mingw32/lib/../lib/libmingw32.a(lib32_libmingw32_a-tlssup.o)
                              C:/Program Files/ETAS/ISOLAR-EVE3.0/plugins/com.etas.evetools.toolsfolder_1.4.5/Tools/MinGW/bin/../lib/gcc/i686-w64-mingw32/4.9.2/../../../../i686-w64-mingw32/lib/../lib/crt2.o (mingw_initltssuo_force)
C:/Program Files/ETAS/ISOLAR-EVE3.0/plugins/com.etas.evetools.toolsfolder_1.4.5/Tools/MinGW/bin/../lib/gcc/i686-w64-mingw32/4.9.2/../../../../i686-w64-mingw32/lib/../lib/libmingw32.a(lib32_libmingw32_a-cinitexe.o)
                              C:/Program Files/ETAS/ISOLAR-EVE3.0/plugins/com.etas.evetools.toolsfolder_1.4.5/Tools/MinGW/bin/../lib/gcc/i686-w64-mingw32/4.9.2/../../../../i686-w64-mingw32/lib/../lib/crt2.o (__xc_z)
C:/Program Files/ETAS/ISOLAR-EVE3.0/plugins/com.etas.evetools.toolsfolder_1.4.5/Tools/MinGW/bin/../lib/gcc/i686-w64-mingw32/4.9.2/../../../../i686-w64-mingw32/lib/../lib/libmingw32.a(lib32_libmingw32_a-merr.o)
                              C:/Program Files/ETAS/ISOLAR-EVE3.0/plugins/com.etas.evetools.toolsfolder_1.4.5/Tools/MinGW/bin/../lib/gcc/i686-w64-mingw32/4.9.2/../../../../i686-w64-mingw32/lib/../lib/crt2.o (__mingw_setusermatherr)
C:/Program Files/ETAS/ISOLAR-EVE3.0/plugins/com.etas.evetools.toolsfolder_1.4.5/Tools/MinGW/bin/../lib/gcc/i686-w64-mingw32/4.9.2/../../../../i686-w64-mingw32/lib/../lib/libmingw32.a(lib32_libmingw32_a-CRT_fp10.o)
                              C:/Program Files/ETAS/ISOLAR-EVE3.0/plugins/com.etas.evetools.toolsfolder_1.4.5/Tools/MinGW/bin/../lib/gcc/i686-w64-mingw32/4.9.2/../../../../i686-w64-mingw32/lib/../lib/crt2.o (_fpreset)
C:/Program Files/ETAS/ISOLAR-EVE3.0/plugins/com.etas.evetools.toolsfolder_1.4.5/Tools/MinGW/bin/../lib/gcc/i686-w64-mingw32/4.9.2/../../../../i686-w64-mingw32/lib/../lib/libmingw32.a(lib32_libmingw32_a-mingw_helpers.o)
                              C:/Program Files/ETAS/ISOLAR-EVE3.0/plugins/com.etas.evetools.toolsfolder_1.4.5/Tools/MinGW/bin/../lib/gcc/i686-w64-mingw32/4.9.2/../../../../i686-w64-mingw32/lib/../lib/libmingw32.a(lib32_libmingw32_a-atonexit.o) (_decode_pointer)
C:/Program Files/ETAS/ISOLAR-EVE3.0/plugins/com.etas.evetools.toolsfolder_1.4.5/Tools/MinGW/bin/../lib/gcc/i686-w64-mingw32/4.9.2/../../../../i686-w64-mingw32/lib/../lib/libmingw32.a(lib32_libmingw32_a-pseudo-reloc.o)
                              C:/Program Files/ETAS/ISOLAR-EVE3.0/plugins/com.etas.evetools.toolsfolder_1.4.5/Tools/MinGW/bin/../lib/gcc/i686-w64-mingw32/4.9.2/../../../../i686-w64-mingw32/lib/../lib/crt2.o (_pei386_runtime_relocator)
C:/Program Files/ETAS/ISOLAR-EVE3.0/plugins/com.etas.evetools.toolsfolder_1.4.5/Tools/MinGW/bin/../lib/gcc/i686-w64-mingw32/4.9.2/../../../../i686-w64-mingw32/lib/../lib/libmingw32.a(lib32_libmingw32_a-xtxtmode.o)
                              C:/Program Files/ETAS/ISOLAR-EVE3.0/plugins/com.etas.evetools.toolsfolder_1.4.5/Tools/MinGW/bin/../lib/gcc/i686-w64-mingw32/4.9.2/../../../../i686-w64-mingw32/lib/../lib/crt2.o (_fmode)
C:/Program Files/ETAS/ISOLAR-EVE3.0/plugins/com.etas.evetools.toolsfolder_1.4.5/Tools/MinGW/bin/../lib/gcc/i686-w64-mingw32/4.9.2/../../../../i686-w64-mingw32/lib/../lib/libmingw32.a(lib32_libmingw32_a-crt_handler.o)
                              C:/Program Files/ETAS/ISOLAR-EVE3.0/plugins/com.etas.evetools.toolsfolder_1.4.5/Tools/MinGW/bin/../lib/gcc/i686-w64-mingw32/4.9.2/../../../../i686-w64-mingw32/lib/../lib/crt2.o (_gnu_exception_handler@4)
C:/Program Files/ETAS/ISOLAR-EVE3.0/plugins/com.etas.evetools.toolsfolder_1.4.5/Tools/MinGW/bin/../lib/gcc/i686-w64-mingw32/4.9.2/../../../../i686-w64-mingw32/lib/../lib/libmingw32.a(lib32_libmingw32_a-tlsthrd.o)
                              C:/Program Files/ETAS/ISOLAR-EVE3.0/plugins/com.etas.evetools.toolsfolder_1.4.5/Tools/MinGW/bin/../lib/gcc/i686-w64-mingw32/4.9.2/../../../../i686-w64-mingw32/lib/../lib/libmingw32.a(lib32_libmingw32_a-tlssup.o) (__mingw_TLScallback)
C:/Program Files/ETAS/ISOLAR-EVE3.0/plugins/com.etas.evetools.toolsfolder_1.4.5/Tools/MinGW/bin/../lib/gcc/i686-w64-mingw32/4.9.2/../../../../i686-w64-mingw32/lib/../lib/libmingw32.a(lib32_libmingw32_a-tlsmcrt.o)
                              C:/Program Files/ETAS/ISOLAR-EVE3.0/plugins/com.etas.evetools.toolsfolder_1.4.5/Tools/MinGW/bin/../lib/gcc/i686-w64-mingw32/4.9.2\libstdc++.a(eh_alloc.o) (_CRT_MT)
C:/Program Files/ETAS/ISOLAR-EVE3.0/plugins/com.etas.evetools.toolsfolder_1.4.5/Tools/MinGW/bin/../lib/gcc/i686-w64-mingw32/4.9.2/../../../../i686-w64-mingw32/lib/../lib/libmingw32.a(lib32_libmingw32_a-pseudo-reloc-list.o)
                              C:/Program Files/ETAS/ISOLAR-EVE3.0/plugins/com.etas.evetools.toolsfolder_1.4.5/Tools/MinGW/bin/../lib/gcc/i686-w64-mingw32/4.9.2/../../../../i686-w64-mingw32/lib/../lib/libmingw32.a(lib32_libmingw32_a-pseudo-reloc.o) (__RUNTIME_PSEUDO_RELOC_LIST__)
C:/Program Files/ETAS/ISOLAR-EVE3.0/plugins/com.etas.evetools.toolsfolder_1.4.5/Tools/MinGW/bin/../lib/gcc/i686-w64-mingw32/4.9.2/../../../../i686-w64-mingw32/lib/../lib/libmingw32.a(lib32_libmingw32_a-pesect.o)
                              C:/Program Files/ETAS/ISOLAR-EVE3.0/plugins/com.etas.evetools.toolsfolder_1.4.5/Tools/MinGW/bin/../lib/gcc/i686-w64-mingw32/4.9.2/../../../../i686-w64-mingw32/lib/../lib/libmingw32.a(lib32_libmingw32_a-pseudo-reloc.o) (__mingw_GetSectionForAddress)
C:/Program Files/ETAS/ISOLAR-EVE3.0/plugins/com.etas.evetools.toolsfolder_1.4.5/Tools/MinGW/bin/../lib/gcc/i686-w64-mingw32/4.9.2/libgcc.a(_chkstk_ms.o)
                              C:/Program Files/ETAS/ISOLAR-EVE3.0/plugins/com.etas.evetools.toolsfolder_1.4.5/Tools/MinGW/bin/../lib/gcc/i686-w64-mingw32/4.9.2/../../../../i686-w64-mingw32/lib/../lib/crt2.o (__chkstk_ms)
C:/Program Files/ETAS/ISOLAR-EVE3.0/plugins/com.etas.evetools.toolsfolder_1.4.5/Tools/MinGW/bin/../lib/gcc/i686-w64-mingw32/4.9.2/libgcc.a(_ctors.o)
                              C:/Program Files/ETAS/ISOLAR-EVE3.0/plugins/com.etas.evetools.toolsfolder_1.4.5/Tools/MinGW/bin/../lib/gcc/i686-w64-mingw32/4.9.2/../../../../i686-w64-mingw32/lib/../lib/libmingw32.a(lib32_libmingw32_a-gccmain.o) (__DTOR_LIST__)
C:/Program Files/ETAS/ISOLAR-EVE3.0/plugins/com.etas.evetools.toolsfolder_1.4.5/Tools/MinGW/bin/../lib/gcc/i686-w64-mingw32/4.9.2/libgcc.a(_divdi3.o)
                              RTAOS.lib(vrtaCore.o) (__divdi3)
C:/Program Files/ETAS/ISOLAR-EVE3.0/plugins/com.etas.evetools.toolsfolder_1.4.5/Tools/MinGW/bin/../lib/gcc/i686-w64-mingw32/4.9.2/libgcc.a(gthr-win32.o)
                              C:/Program Files/ETAS/ISOLAR-EVE3.0/plugins/com.etas.evetools.toolsfolder_1.4.5/Tools/MinGW/bin/../lib/gcc/i686-w64-mingw32/4.9.2\libstdc++.a(eh_alloc.o) (__gthr_win32_mutex_init_function)
C:/Program Files/ETAS/ISOLAR-EVE3.0/plugins/com.etas.evetools.toolsfolder_1.4.5/Tools/MinGW/bin/../lib/gcc/i686-w64-mingw32/4.9.2/libgcc_eh.a(unwind-dw2.o)
                              C:/Program Files/ETAS/ISOLAR-EVE3.0/plugins/com.etas.evetools.toolsfolder_1.4.5/Tools/MinGW/bin/../lib/gcc/i686-w64-mingw32/4.9.2\libstdc++.a(eh_personality.o) (_Unwind_SetGR)
C:/Program Files/ETAS/ISOLAR-EVE3.0/plugins/com.etas.evetools.toolsfolder_1.4.5/Tools/MinGW/bin/../lib/gcc/i686-w64-mingw32/4.9.2/libgcc_eh.a(unwind-dw2-fde.o)
                              C:/Program Files/ETAS/ISOLAR-EVE3.0/plugins/com.etas.evetools.toolsfolder_1.4.5/Tools/MinGW/bin/../lib/gcc/i686-w64-mingw32/4.9.2/libgcc_eh.a(unwind-dw2.o) (_Unwind_Find_FDE)
C:/Program Files/ETAS/ISOLAR-EVE3.0/plugins/com.etas.evetools.toolsfolder_1.4.5/Tools/MinGW/bin/../lib/gcc/i686-w64-mingw32/4.9.2/libgcc_eh.a(emutls.o)
                              C:/Program Files/ETAS/ISOLAR-EVE3.0/plugins/com.etas.evetools.toolsfolder_1.4.5/Tools/MinGW/bin/../lib/gcc/i686-w64-mingw32/4.9.2\libstdc++.a(eh_globals.o) (__emutls_get_address)
C:/Program Files/ETAS/ISOLAR-EVE3.0/plugins/com.etas.evetools.toolsfolder_1.4.5/Tools/MinGW/bin/../lib/gcc/i686-w64-mingw32/4.9.2/../../../../i686-w64-mingw32/lib/../lib/libmingwex.a(lib32_libmingwex_a-mingw_matherr.o)
                              C:/Program Files/ETAS/ISOLAR-EVE3.0/plugins/com.etas.evetools.toolsfolder_1.4.5/Tools/MinGW/bin/../lib/gcc/i686-w64-mingw32/4.9.2/../../../../i686-w64-mingw32/lib/../lib/crt2.o (_MINGW_INSTALL_DEBUG_MATHERR)
C:/Program Files/ETAS/ISOLAR-EVE3.0/plugins/com.etas.evetools.toolsfolder_1.4.5/Tools/MinGW/bin/../lib/gcc/i686-w64-mingw32/4.9.2/../../../../i686-w64-mingw32/lib/../lib/libmsvcrt.a(dcpds01256.o)
                              RTAOS.lib(vrtaLoggerDevice.o) (vsprintf)
C:/Program Files/ETAS/ISOLAR-EVE3.0/plugins/com.etas.evetools.toolsfolder_1.4.5/Tools/MinGW/bin/../lib/gcc/i686-w64-mingw32/4.9.2/../../../../i686-w64-mingw32/lib/../lib/libmsvcrt.a(dcpds01249.o)
                              C:/Program Files/ETAS/ISOLAR-EVE3.0/plugins/com.etas.evetools.toolsfolder_1.4.5/Tools/MinGW/bin/../lib/gcc/i686-w64-mingw32/4.9.2/../../../../i686-w64-mingw32/lib/../lib/libmingw32.a(lib32_libmingw32_a-pseudo-reloc.o) (vfprintf)
C:/Program Files/ETAS/ISOLAR-EVE3.0/plugins/com.etas.evetools.toolsfolder_1.4.5/Tools/MinGW/bin/../lib/gcc/i686-w64-mingw32/4.9.2/../../../../i686-w64-mingw32/lib/../lib/libmsvcrt.a(dcpds01217.o)
                              RTAOS.lib(vrtaLoggerDevice.o) (strncpy)
C:/Program Files/ETAS/ISOLAR-EVE3.0/plugins/com.etas.evetools.toolsfolder_1.4.5/Tools/MinGW/bin/../lib/gcc/i686-w64-mingw32/4.9.2/../../../../i686-w64-mingw32/lib/../lib/libmsvcrt.a(dcpds01216.o)
                              C:/Program Files/ETAS/ISOLAR-EVE3.0/plugins/com.etas.evetools.toolsfolder_1.4.5/Tools/MinGW/bin/../lib/gcc/i686-w64-mingw32/4.9.2/../../../../i686-w64-mingw32/lib/../lib/libmingw32.a(lib32_libmingw32_a-pesect.o) (strncmp)
C:/Program Files/ETAS/ISOLAR-EVE3.0/plugins/com.etas.evetools.toolsfolder_1.4.5/Tools/MinGW/bin/../lib/gcc/i686-w64-mingw32/4.9.2/../../../../i686-w64-mingw32/lib/../lib/libmsvcrt.a(dcpds01213.o)
                              C:/Program Files/ETAS/ISOLAR-EVE3.0/plugins/com.etas.evetools.toolsfolder_1.4.5/Tools/MinGW/bin/../lib/gcc/i686-w64-mingw32/4.9.2/../../../../i686-w64-mingw32/lib/../lib/crt2.o (strlen)
C:/Program Files/ETAS/ISOLAR-EVE3.0/plugins/com.etas.evetools.toolsfolder_1.4.5/Tools/MinGW/bin/../lib/gcc/i686-w64-mingw32/4.9.2/../../../../i686-w64-mingw32/lib/../lib/libmsvcrt.a(dcpds01208.o)
                              RTAOS.lib(vrtaLoggerDevice.o) (strcpy)
C:/Program Files/ETAS/ISOLAR-EVE3.0/plugins/com.etas.evetools.toolsfolder_1.4.5/Tools/MinGW/bin/../lib/gcc/i686-w64-mingw32/4.9.2/../../../../i686-w64-mingw32/lib/../lib/libmsvcrt.a(dcpds01206.o)
                              C:/Program Files/ETAS/ISOLAR-EVE3.0/plugins/com.etas.evetools.toolsfolder_1.4.5/Tools/MinGW/bin/../lib/gcc/i686-w64-mingw32/4.9.2\libstdc++.a(tinfo.o) (strcmp)
C:/Program Files/ETAS/ISOLAR-EVE3.0/plugins/com.etas.evetools.toolsfolder_1.4.5/Tools/MinGW/bin/../lib/gcc/i686-w64-mingw32/4.9.2/../../../../i686-w64-mingw32/lib/../lib/libmsvcrt.a(dcpds01203.o)
                              RTAOS.lib(virtualDevice.o) (strcat)
C:/Program Files/ETAS/ISOLAR-EVE3.0/plugins/com.etas.evetools.toolsfolder_1.4.5/Tools/MinGW/bin/../lib/gcc/i686-w64-mingw32/4.9.2/../../../../i686-w64-mingw32/lib/../lib/libmsvcrt.a(dcpds01198.o)
                              RTAOS.lib(vrtaOSMonitorDevice.o) (sprintf)
C:/Program Files/ETAS/ISOLAR-EVE3.0/plugins/com.etas.evetools.toolsfolder_1.4.5/Tools/MinGW/bin/../lib/gcc/i686-w64-mingw32/4.9.2/../../../../i686-w64-mingw32/lib/../lib/libmsvcrt.a(dcpds01195.o)
                              C:/Program Files/ETAS/ISOLAR-EVE3.0/plugins/com.etas.evetools.toolsfolder_1.4.5/Tools/MinGW/bin/../lib/gcc/i686-w64-mingw32/4.9.2/../../../../i686-w64-mingw32/lib/../lib/libmingw32.a(lib32_libmingw32_a-crt_handler.o) (signal)
C:/Program Files/ETAS/ISOLAR-EVE3.0/plugins/com.etas.evetools.toolsfolder_1.4.5/Tools/MinGW/bin/../lib/gcc/i686-w64-mingw32/4.9.2/../../../../i686-w64-mingw32/lib/../lib/libmsvcrt.a(dcpds01186.o)
                              C:/Program Files/ETAS/ISOLAR-EVE3.0/plugins/com.etas.evetools.toolsfolder_1.4.5/Tools/MinGW/bin/../lib/gcc/i686-w64-mingw32/4.9.2\libstdc++.a(cp-demangle.o) (realloc)
C:/Program Files/ETAS/ISOLAR-EVE3.0/plugins/com.etas.evetools.toolsfolder_1.4.5/Tools/MinGW/bin/../lib/gcc/i686-w64-mingw32/4.9.2/../../../../i686-w64-mingw32/lib/../lib/libmsvcrt.a(dcpds01170.o)
                              C:/Program Files/ETAS/ISOLAR-EVE3.0/plugins/com.etas.evetools.toolsfolder_1.4.5/Tools/MinGW/bin/../lib/gcc/i686-w64-mingw32/4.9.2/../../../../i686-w64-mingw32/lib/../lib/crt2.o (memcpy)
C:/Program Files/ETAS/ISOLAR-EVE3.0/plugins/com.etas.evetools.toolsfolder_1.4.5/Tools/MinGW/bin/../lib/gcc/i686-w64-mingw32/4.9.2/../../../../i686-w64-mingw32/lib/../lib/libmsvcrt.a(dcpds01167.o)
                              C:/Program Files/ETAS/ISOLAR-EVE3.0/plugins/com.etas.evetools.toolsfolder_1.4.5/Tools/MinGW/bin/../lib/gcc/i686-w64-mingw32/4.9.2/libgcc_eh.a(emutls.o) (memset)
C:/Program Files/ETAS/ISOLAR-EVE3.0/plugins/com.etas.evetools.toolsfolder_1.4.5/Tools/MinGW/bin/../lib/gcc/i686-w64-mingw32/4.9.2/../../../../i686-w64-mingw32/lib/../lib/libmsvcrt.a(dcpds01165.o)
                              C:/Program Files/ETAS/ISOLAR-EVE3.0/plugins/com.etas.evetools.toolsfolder_1.4.5/Tools/MinGW/bin/../lib/gcc/i686-w64-mingw32/4.9.2\libstdc++.a(cp-demangle.o) (memcmp)
C:/Program Files/ETAS/ISOLAR-EVE3.0/plugins/com.etas.evetools.toolsfolder_1.4.5/Tools/MinGW/bin/../lib/gcc/i686-w64-mingw32/4.9.2/../../../../i686-w64-mingw32/lib/../lib/libmsvcrt.a(dcpds01159.o)
                              C:/Program Files/ETAS/ISOLAR-EVE3.0/plugins/com.etas.evetools.toolsfolder_1.4.5/Tools/MinGW/bin/../lib/gcc/i686-w64-mingw32/4.9.2/../../../../i686-w64-mingw32/lib/../lib/crt2.o (malloc)
C:/Program Files/ETAS/ISOLAR-EVE3.0/plugins/com.etas.evetools.toolsfolder_1.4.5/Tools/MinGW/bin/../lib/gcc/i686-w64-mingw32/4.9.2/../../../../i686-w64-mingw32/lib/../lib/libmsvcrt.a(dcpds01112.o)
                              C:/Program Files/ETAS/ISOLAR-EVE3.0/plugins/com.etas.evetools.toolsfolder_1.4.5/Tools/MinGW/bin/../lib/gcc/i686-w64-mingw32/4.9.2\libstdc++.a(vterminate.o) (fwrite)
C:/Program Files/ETAS/ISOLAR-EVE3.0/plugins/com.etas.evetools.toolsfolder_1.4.5/Tools/MinGW/bin/../lib/gcc/i686-w64-mingw32/4.9.2/../../../../i686-w64-mingw32/lib/../lib/libmsvcrt.a(dcpds01101.o)
                              C:/Program Files/ETAS/ISOLAR-EVE3.0/plugins/com.etas.evetools.toolsfolder_1.4.5/Tools/MinGW/bin/../lib/gcc/i686-w64-mingw32/4.9.2\libstdc++.a(del_op.o) (free)
C:/Program Files/ETAS/ISOLAR-EVE3.0/plugins/com.etas.evetools.toolsfolder_1.4.5/Tools/MinGW/bin/../lib/gcc/i686-w64-mingw32/4.9.2/../../../../i686-w64-mingw32/lib/../lib/libmsvcrt.a(dcpds01097.o)
                              RTAOS.lib(vrtaLoggerDevice.o) (fputs)
C:/Program Files/ETAS/ISOLAR-EVE3.0/plugins/com.etas.evetools.toolsfolder_1.4.5/Tools/MinGW/bin/../lib/gcc/i686-w64-mingw32/4.9.2/../../../../i686-w64-mingw32/lib/../lib/libmsvcrt.a(dcpds01096.o)
                              C:/Program Files/ETAS/ISOLAR-EVE3.0/plugins/com.etas.evetools.toolsfolder_1.4.5/Tools/MinGW/bin/../lib/gcc/i686-w64-mingw32/4.9.2\libstdc++.a(vterminate.o) (fputc)
C:/Program Files/ETAS/ISOLAR-EVE3.0/plugins/com.etas.evetools.toolsfolder_1.4.5/Tools/MinGW/bin/../lib/gcc/i686-w64-mingw32/4.9.2/../../../../i686-w64-mingw32/lib/../lib/libmsvcrt.a(dcpds01094.o)
                              C:/Program Files/ETAS/ISOLAR-EVE3.0/plugins/com.etas.evetools.toolsfolder_1.4.5/Tools/MinGW/bin/../lib/gcc/i686-w64-mingw32/4.9.2/../../../../i686-w64-mingw32/lib/../lib/libmingw32.a(lib32_libmingw32_a-merr.o) (fprintf)
C:/Program Files/ETAS/ISOLAR-EVE3.0/plugins/com.etas.evetools.toolsfolder_1.4.5/Tools/MinGW/bin/../lib/gcc/i686-w64-mingw32/4.9.2/../../../../i686-w64-mingw32/lib/../lib/libmsvcrt.a(dcpds01092.o)
                              RTAOS.lib(vrtaLoggerDevice.o) (fopen)
C:/Program Files/ETAS/ISOLAR-EVE3.0/plugins/com.etas.evetools.toolsfolder_1.4.5/Tools/MinGW/bin/../lib/gcc/i686-w64-mingw32/4.9.2/../../../../i686-w64-mingw32/lib/../lib/libmsvcrt.a(dcpds01081.o)
                              RTAOS.lib(vrtaLoggerDevice.o) (fclose)
C:/Program Files/ETAS/ISOLAR-EVE3.0/plugins/com.etas.evetools.toolsfolder_1.4.5/Tools/MinGW/bin/../lib/gcc/i686-w64-mingw32/4.9.2/../../../../i686-w64-mingw32/lib/../lib/libmsvcrt.a(dcpds01078.o)
                              C:/Program Files/ETAS/ISOLAR-EVE3.0/plugins/com.etas.evetools.toolsfolder_1.4.5/Tools/MinGW/bin/../lib/gcc/i686-w64-mingw32/4.9.2/../../../../i686-w64-mingw32/lib/../lib/crt2.o (exit)
C:/Program Files/ETAS/ISOLAR-EVE3.0/plugins/com.etas.evetools.toolsfolder_1.4.5/Tools/MinGW/bin/../lib/gcc/i686-w64-mingw32/4.9.2/../../../../i686-w64-mingw32/lib/../lib/libmsvcrt.a(dcpds01067.o)
                              C:/Program Files/ETAS/ISOLAR-EVE3.0/plugins/com.etas.evetools.toolsfolder_1.4.5/Tools/MinGW/bin/../lib/gcc/i686-w64-mingw32/4.9.2/../../../../i686-w64-mingw32/lib/../lib/libmingw32.a(lib32_libmingw32_a-tlsthrd.o) (calloc)
C:/Program Files/ETAS/ISOLAR-EVE3.0/plugins/com.etas.evetools.toolsfolder_1.4.5/Tools/MinGW/bin/../lib/gcc/i686-w64-mingw32/4.9.2/../../../../i686-w64-mingw32/lib/../lib/libmsvcrt.a(dcpds01063.o)
                              RTAOS.lib(vrtaSystemClockDevice.o) (atoi)
C:/Program Files/ETAS/ISOLAR-EVE3.0/plugins/com.etas.evetools.toolsfolder_1.4.5/Tools/MinGW/bin/../lib/gcc/i686-w64-mingw32/4.9.2/../../../../i686-w64-mingw32/lib/../lib/libmsvcrt.a(dcpds01055.o)
                              C:/Program Files/ETAS/ISOLAR-EVE3.0/plugins/com.etas.evetools.toolsfolder_1.4.5/Tools/MinGW/bin/../lib/gcc/i686-w64-mingw32/4.9.2\libstdc++.a(eh_personality.o) (abort)
C:/Program Files/ETAS/ISOLAR-EVE3.0/plugins/com.etas.evetools.toolsfolder_1.4.5/Tools/MinGW/bin/../lib/gcc/i686-w64-mingw32/4.9.2/../../../../i686-w64-mingw32/lib/../lib/libmsvcrt.a(dcpds01013.o)
                              C:/Program Files/ETAS/ISOLAR-EVE3.0/plugins/com.etas.evetools.toolsfolder_1.4.5/Tools/MinGW/bin/../lib/gcc/i686-w64-mingw32/4.9.2\libstdc++.a(pure.o) (write)
C:/Program Files/ETAS/ISOLAR-EVE3.0/plugins/com.etas.evetools.toolsfolder_1.4.5/Tools/MinGW/bin/../lib/gcc/i686-w64-mingw32/4.9.2/../../../../i686-w64-mingw32/lib/../lib/libmsvcrt.a(dcpds00840.o)
                              C:/Program Files/ETAS/ISOLAR-EVE3.0/plugins/com.etas.evetools.toolsfolder_1.4.5/Tools/MinGW/bin/../lib/gcc/i686-w64-mingw32/4.9.2/../../../../i686-w64-mingw32/lib/../lib/libmingw32.a(lib32_libmingw32_a-atonexit.o) (_unlock)
C:/Program Files/ETAS/ISOLAR-EVE3.0/plugins/com.etas.evetools.toolsfolder_1.4.5/Tools/MinGW/bin/../lib/gcc/i686-w64-mingw32/4.9.2/../../../../i686-w64-mingw32/lib/../lib/libmsvcrt.a(dcpds00627.o)
                              C:/Program Files/ETAS/ISOLAR-EVE3.0/plugins/com.etas.evetools.toolsfolder_1.4.5/Tools/MinGW/bin/../lib/gcc/i686-w64-mingw32/4.9.2/../../../../i686-w64-mingw32/lib/../lib/libmingw32.a(lib32_libmingw32_a-atonexit.o) (_imp___onexit)
C:/Program Files/ETAS/ISOLAR-EVE3.0/plugins/com.etas.evetools.toolsfolder_1.4.5/Tools/MinGW/bin/../lib/gcc/i686-w64-mingw32/4.9.2/../../../../i686-w64-mingw32/lib/../lib/libmsvcrt.a(dcpds00460.o)
                              C:/Program Files/ETAS/ISOLAR-EVE3.0/plugins/com.etas.evetools.toolsfolder_1.4.5/Tools/MinGW/bin/../lib/gcc/i686-w64-mingw32/4.9.2/../../../../i686-w64-mingw32/lib/../lib/libmingw32.a(lib32_libmingw32_a-atonexit.o) (_lock)
C:/Program Files/ETAS/ISOLAR-EVE3.0/plugins/com.etas.evetools.toolsfolder_1.4.5/Tools/MinGW/bin/../lib/gcc/i686-w64-mingw32/4.9.2/../../../../i686-w64-mingw32/lib/../lib/libmsvcrt.a(dcpds00354.o)
                              RTAOS.lib(vrtaLoggerDevice.o) (_imp___iob)
C:/Program Files/ETAS/ISOLAR-EVE3.0/plugins/com.etas.evetools.toolsfolder_1.4.5/Tools/MinGW/bin/../lib/gcc/i686-w64-mingw32/4.9.2/../../../../i686-w64-mingw32/lib/../lib/libmsvcrt.a(dcpds00350.o)
                              C:/Program Files/ETAS/ISOLAR-EVE3.0/plugins/com.etas.evetools.toolsfolder_1.4.5/Tools/MinGW/bin/../lib/gcc/i686-w64-mingw32/4.9.2/../../../../i686-w64-mingw32/lib/../lib/crt2.o (_initterm)
C:/Program Files/ETAS/ISOLAR-EVE3.0/plugins/com.etas.evetools.toolsfolder_1.4.5/Tools/MinGW/bin/../lib/gcc/i686-w64-mingw32/4.9.2/../../../../i686-w64-mingw32/lib/../lib/libmsvcrt.a(dcpds00275.o)
                              C:/Program Files/ETAS/ISOLAR-EVE3.0/plugins/com.etas.evetools.toolsfolder_1.4.5/Tools/MinGW/bin/../lib/gcc/i686-w64-mingw32/4.9.2/../../../../i686-w64-mingw32/lib/../lib/crt2.o (_imp___fmode)
C:/Program Files/ETAS/ISOLAR-EVE3.0/plugins/com.etas.evetools.toolsfolder_1.4.5/Tools/MinGW/bin/../lib/gcc/i686-w64-mingw32/4.9.2/../../../../i686-w64-mingw32/lib/../lib/libmsvcrt.a(dcpds00163.o)
                              C:/Program Files/ETAS/ISOLAR-EVE3.0/plugins/com.etas.evetools.toolsfolder_1.4.5/Tools/MinGW/bin/../lib/gcc/i686-w64-mingw32/4.9.2/../../../../i686-w64-mingw32/lib/../lib/crt2.o (_cexit)
C:/Program Files/ETAS/ISOLAR-EVE3.0/plugins/com.etas.evetools.toolsfolder_1.4.5/Tools/MinGW/bin/../lib/gcc/i686-w64-mingw32/4.9.2/../../../../i686-w64-mingw32/lib/../lib/libmsvcrt.a(dcpds00145.o)
                              C:/Program Files/ETAS/ISOLAR-EVE3.0/plugins/com.etas.evetools.toolsfolder_1.4.5/Tools/MinGW/bin/../lib/gcc/i686-w64-mingw32/4.9.2/../../../../i686-w64-mingw32/lib/../lib/crt2.o (_amsg_exit)
C:/Program Files/ETAS/ISOLAR-EVE3.0/plugins/com.etas.evetools.toolsfolder_1.4.5/Tools/MinGW/bin/../lib/gcc/i686-w64-mingw32/4.9.2/../../../../i686-w64-mingw32/lib/../lib/libmsvcrt.a(dcpds00123.o)
                              C:/Program Files/ETAS/ISOLAR-EVE3.0/plugins/com.etas.evetools.toolsfolder_1.4.5/Tools/MinGW/bin/../lib/gcc/i686-w64-mingw32/4.9.2/../../../../i686-w64-mingw32/lib/../lib/crt2.o (_imp___acmdln)
C:/Program Files/ETAS/ISOLAR-EVE3.0/plugins/com.etas.evetools.toolsfolder_1.4.5/Tools/MinGW/bin/../lib/gcc/i686-w64-mingw32/4.9.2/../../../../i686-w64-mingw32/lib/../lib/libmsvcrt.a(dcpds00108.o)
                              C:/Program Files/ETAS/ISOLAR-EVE3.0/plugins/com.etas.evetools.toolsfolder_1.4.5/Tools/MinGW/bin/../lib/gcc/i686-w64-mingw32/4.9.2/../../../../i686-w64-mingw32/lib/../lib/libmingw32.a(lib32_libmingw32_a-merr.o) (__setusermatherr)
C:/Program Files/ETAS/ISOLAR-EVE3.0/plugins/com.etas.evetools.toolsfolder_1.4.5/Tools/MinGW/bin/../lib/gcc/i686-w64-mingw32/4.9.2/../../../../i686-w64-mingw32/lib/../lib/libmsvcrt.a(dcpds00105.o)
                              C:/Program Files/ETAS/ISOLAR-EVE3.0/plugins/com.etas.evetools.toolsfolder_1.4.5/Tools/MinGW/bin/../lib/gcc/i686-w64-mingw32/4.9.2/../../../../i686-w64-mingw32/lib/../lib/crt2.o (__set_app_type)
C:/Program Files/ETAS/ISOLAR-EVE3.0/plugins/com.etas.evetools.toolsfolder_1.4.5/Tools/MinGW/bin/../lib/gcc/i686-w64-mingw32/4.9.2/../../../../i686-w64-mingw32/lib/../lib/libmsvcrt.a(dcpds00069.o)
                              C:/Program Files/ETAS/ISOLAR-EVE3.0/plugins/com.etas.evetools.toolsfolder_1.4.5/Tools/MinGW/bin/../lib/gcc/i686-w64-mingw32/4.9.2/../../../../i686-w64-mingw32/lib/../lib/libmingw32.a(lib32_libmingw32_a-charmax.o) (_imp____lconv_init)
C:/Program Files/ETAS/ISOLAR-EVE3.0/plugins/com.etas.evetools.toolsfolder_1.4.5/Tools/MinGW/bin/../lib/gcc/i686-w64-mingw32/4.9.2/../../../../i686-w64-mingw32/lib/../lib/libmsvcrt.a(dcpds00059.o)
                              C:/Program Files/ETAS/ISOLAR-EVE3.0/plugins/com.etas.evetools.toolsfolder_1.4.5/Tools/MinGW/bin/../lib/gcc/i686-w64-mingw32/4.9.2/../../../../i686-w64-mingw32/lib/../lib/crt2.o (_imp____initenv)
C:/Program Files/ETAS/ISOLAR-EVE3.0/plugins/com.etas.evetools.toolsfolder_1.4.5/Tools/MinGW/bin/../lib/gcc/i686-w64-mingw32/4.9.2/../../../../i686-w64-mingw32/lib/../lib/libmsvcrt.a(dcpds00058.o)
                              C:/Program Files/ETAS/ISOLAR-EVE3.0/plugins/com.etas.evetools.toolsfolder_1.4.5/Tools/MinGW/bin/../lib/gcc/i686-w64-mingw32/4.9.2/../../../../i686-w64-mingw32/lib/../lib/crt2.o (__getmainargs)
C:/Program Files/ETAS/ISOLAR-EVE3.0/plugins/com.etas.evetools.toolsfolder_1.4.5/Tools/MinGW/bin/../lib/gcc/i686-w64-mingw32/4.9.2/../../../../i686-w64-mingw32/lib/../lib/libmsvcrt.a(dcpds00055.o)
                              C:/Program Files/ETAS/ISOLAR-EVE3.0/plugins/com.etas.evetools.toolsfolder_1.4.5/Tools/MinGW/bin/../lib/gcc/i686-w64-mingw32/4.9.2/../../../../i686-w64-mingw32/lib/../lib/libmingw32.a(lib32_libmingw32_a-atonexit.o) (__dllonexit)
C:/Program Files/ETAS/ISOLAR-EVE3.0/plugins/com.etas.evetools.toolsfolder_1.4.5/Tools/MinGW/bin/../lib/gcc/i686-w64-mingw32/4.9.2/../../../../i686-w64-mingw32/lib/../lib/libmsvcrt.a(lib32_libmsvcrt_a-invalid_parameter_handler.o)
                              C:/Program Files/ETAS/ISOLAR-EVE3.0/plugins/com.etas.evetools.toolsfolder_1.4.5/Tools/MinGW/bin/../lib/gcc/i686-w64-mingw32/4.9.2/../../../../i686-w64-mingw32/lib/../lib/crt2.o (_set_invalid_parameter_handler)
C:/Program Files/ETAS/ISOLAR-EVE3.0/plugins/com.etas.evetools.toolsfolder_1.4.5/Tools/MinGW/bin/../lib/gcc/i686-w64-mingw32/4.9.2/../../../../i686-w64-mingw32/lib/../lib/libmsvcrt.a(dcpdh.o)
                              C:/Program Files/ETAS/ISOLAR-EVE3.0/plugins/com.etas.evetools.toolsfolder_1.4.5/Tools/MinGW/bin/../lib/gcc/i686-w64-mingw32/4.9.2/../../../../i686-w64-mingw32/lib/../lib/libmsvcrt.a(dcpds01256.o) (_head_lib32_libmsvcrt_a)
C:/Program Files/ETAS/ISOLAR-EVE3.0/plugins/com.etas.evetools.toolsfolder_1.4.5/Tools/MinGW/bin/../lib/gcc/i686-w64-mingw32/4.9.2/../../../../i686-w64-mingw32/lib/../lib/libmsvcrt.a(dcpdt.o)
                              C:/Program Files/ETAS/ISOLAR-EVE3.0/plugins/com.etas.evetools.toolsfolder_1.4.5/Tools/MinGW/bin/../lib/gcc/i686-w64-mingw32/4.9.2/../../../../i686-w64-mingw32/lib/../lib/libmsvcrt.a(dcpdh.o) (_lib32_libmsvcrt_a_iname)
C:/Program Files/ETAS/ISOLAR-EVE3.0/plugins/com.etas.evetools.toolsfolder_1.4.5/Tools/MinGW/bin/../lib/gcc/i686-w64-mingw32/4.9.2/../../../../i686-w64-mingw32/lib/../lib/libuser32.a(diqes00588.o)
                              RTAOS.lib(vrtaCore.o) (_imp__MessageBoxA@16)
C:/Program Files/ETAS/ISOLAR-EVE3.0/plugins/com.etas.evetools.toolsfolder_1.4.5/Tools/MinGW/bin/../lib/gcc/i686-w64-mingw32/4.9.2/../../../../i686-w64-mingw32/lib/../lib/libuser32.a(diqeh.o)
                              C:/Program Files/ETAS/ISOLAR-EVE3.0/plugins/com.etas.evetools.toolsfolder_1.4.5/Tools/MinGW/bin/../lib/gcc/i686-w64-mingw32/4.9.2/../../../../i686-w64-mingw32/lib/../lib/libuser32.a(diqes00588.o) (_head_lib32_libuser32_a)
C:/Program Files/ETAS/ISOLAR-EVE3.0/plugins/com.etas.evetools.toolsfolder_1.4.5/Tools/MinGW/bin/../lib/gcc/i686-w64-mingw32/4.9.2/../../../../i686-w64-mingw32/lib/../lib/libuser32.a(diqet.o)
                              C:/Program Files/ETAS/ISOLAR-EVE3.0/plugins/com.etas.evetools.toolsfolder_1.4.5/Tools/MinGW/bin/../lib/gcc/i686-w64-mingw32/4.9.2/../../../../i686-w64-mingw32/lib/../lib/libuser32.a(diqeh.o) (_lib32_libuser32_a_iname)
C:/Program Files/ETAS/ISOLAR-EVE3.0/plugins/com.etas.evetools.toolsfolder_1.4.5/Tools/MinGW/bin/../lib/gcc/i686-w64-mingw32/4.9.2/../../../../i686-w64-mingw32/lib/../lib/libkernel32.a(dkxs01218.o)
                              RTAOS.lib(vrtaSystemClock.o) (_imp__WaitForSingleObject@8)
C:/Program Files/ETAS/ISOLAR-EVE3.0/plugins/com.etas.evetools.toolsfolder_1.4.5/Tools/MinGW/bin/../lib/gcc/i686-w64-mingw32/4.9.2/../../../../i686-w64-mingw32/lib/../lib/libkernel32.a(dkxs01209.o)
                              C:/Program Files/ETAS/ISOLAR-EVE3.0/plugins/com.etas.evetools.toolsfolder_1.4.5/Tools/MinGW/bin/../lib/gcc/i686-w64-mingw32/4.9.2/../../../../i686-w64-mingw32/lib/../lib/libmingw32.a(lib32_libmingw32_a-pseudo-reloc.o) (_imp__VirtualQuery@12)
C:/Program Files/ETAS/ISOLAR-EVE3.0/plugins/com.etas.evetools.toolsfolder_1.4.5/Tools/MinGW/bin/../lib/gcc/i686-w64-mingw32/4.9.2/../../../../i686-w64-mingw32/lib/../lib/libkernel32.a(dkxs01206.o)
                              C:/Program Files/ETAS/ISOLAR-EVE3.0/plugins/com.etas.evetools.toolsfolder_1.4.5/Tools/MinGW/bin/../lib/gcc/i686-w64-mingw32/4.9.2/../../../../i686-w64-mingw32/lib/../lib/libmingw32.a(lib32_libmingw32_a-pseudo-reloc.o) (_imp__VirtualProtect@16)
C:/Program Files/ETAS/ISOLAR-EVE3.0/plugins/com.etas.evetools.toolsfolder_1.4.5/Tools/MinGW/bin/../lib/gcc/i686-w64-mingw32/4.9.2/../../../../i686-w64-mingw32/lib/../lib/libkernel32.a(dkxs01174.o)
                              C:/Program Files/ETAS/ISOLAR-EVE3.0/plugins/com.etas.evetools.toolsfolder_1.4.5/Tools/MinGW/bin/../lib/gcc/i686-w64-mingw32/4.9.2/../../../../i686-w64-mingw32/lib/../lib/libmingw32.a(lib32_libmingw32_a-gs_support.o) (_imp__UnhandledExceptionFilter@4)
C:/Program Files/ETAS/ISOLAR-EVE3.0/plugins/com.etas.evetools.toolsfolder_1.4.5/Tools/MinGW/bin/../lib/gcc/i686-w64-mingw32/4.9.2/../../../../i686-w64-mingw32/lib/../lib/libkernel32.a(dkxs01162.o)
                              C:/Program Files/ETAS/ISOLAR-EVE3.0/plugins/com.etas.evetools.toolsfolder_1.4.5/Tools/MinGW/bin/../lib/gcc/i686-w64-mingw32/4.9.2/libgcc.a(gthr-win32.o) (_imp__TlsSetValue@8)
C:/Program Files/ETAS/ISOLAR-EVE3.0/plugins/com.etas.evetools.toolsfolder_1.4.5/Tools/MinGW/bin/../lib/gcc/i686-w64-mingw32/4.9.2/../../../../i686-w64-mingw32/lib/../lib/libkernel32.a(dkxs01161.o)
                              C:/Program Files/ETAS/ISOLAR-EVE3.0/plugins/com.etas.evetools.toolsfolder_1.4.5/Tools/MinGW/bin/../lib/gcc/i686-w64-mingw32/4.9.2/../../../../i686-w64-mingw32/lib/../lib/libmingw32.a(lib32_libmingw32_a-tlsthrd.o) (_imp__TlsGetValue@4)
C:/Program Files/ETAS/ISOLAR-EVE3.0/plugins/com.etas.evetools.toolsfolder_1.4.5/Tools/MinGW/bin/../lib/gcc/i686-w64-mingw32/4.9.2/../../../../i686-w64-mingw32/lib/../lib/libkernel32.a(dkxs01160.o)
                              C:/Program Files/ETAS/ISOLAR-EVE3.0/plugins/com.etas.evetools.toolsfolder_1.4.5/Tools/MinGW/bin/../lib/gcc/i686-w64-mingw32/4.9.2/libgcc.a(gthr-win32.o) (_imp__TlsFree@4)
C:/Program Files/ETAS/ISOLAR-EVE3.0/plugins/com.etas.evetools.toolsfolder_1.4.5/Tools/MinGW/bin/../lib/gcc/i686-w64-mingw32/4.9.2/../../../../i686-w64-mingw32/lib/../lib/libkernel32.a(dkxs01159.o)
                              C:/Program Files/ETAS/ISOLAR-EVE3.0/plugins/com.etas.evetools.toolsfolder_1.4.5/Tools/MinGW/bin/../lib/gcc/i686-w64-mingw32/4.9.2/libgcc.a(gthr-win32.o) (_imp__TlsAlloc@0)
C:/Program Files/ETAS/ISOLAR-EVE3.0/plugins/com.etas.evetools.toolsfolder_1.4.5/Tools/MinGW/bin/../lib/gcc/i686-w64-mingw32/4.9.2/../../../../i686-w64-mingw32/lib/../lib/libkernel32.a(dkxs01154.o)
                              RTAOS.lib(vrtaAppMain.o) (_imp__TerminateProcess@8)
C:/Program Files/ETAS/ISOLAR-EVE3.0/plugins/com.etas.evetools.toolsfolder_1.4.5/Tools/MinGW/bin/../lib/gcc/i686-w64-mingw32/4.9.2/../../../../i686-w64-mingw32/lib/../lib/libkernel32.a(dkxs01140.o)
                              C:/Program Files/ETAS/ISOLAR-EVE3.0/plugins/com.etas.evetools.toolsfolder_1.4.5/Tools/MinGW/bin/../lib/gcc/i686-w64-mingw32/4.9.2/../../../../i686-w64-mingw32/lib/../lib/crt2.o (_imp__Sleep@4)
C:/Program Files/ETAS/ISOLAR-EVE3.0/plugins/com.etas.evetools.toolsfolder_1.4.5/Tools/MinGW/bin/../lib/gcc/i686-w64-mingw32/4.9.2/../../../../i686-w64-mingw32/lib/../lib/libkernel32.a(dkxs01127.o)
                              C:/Program Files/ETAS/ISOLAR-EVE3.0/plugins/com.etas.evetools.toolsfolder_1.4.5/Tools/MinGW/bin/../lib/gcc/i686-w64-mingw32/4.9.2/../../../../i686-w64-mingw32/lib/../lib/crt2.o (_imp__SetUnhandledExceptionFilter@4)
C:/Program Files/ETAS/ISOLAR-EVE3.0/plugins/com.etas.evetools.toolsfolder_1.4.5/Tools/MinGW/bin/../lib/gcc/i686-w64-mingw32/4.9.2/../../../../i686-w64-mingw32/lib/../lib/libkernel32.a(dkxs01078.o)
                              C:/Program Files/ETAS/ISOLAR-EVE3.0/plugins/com.etas.evetools.toolsfolder_1.4.5/Tools/MinGW/bin/../lib/gcc/i686-w64-mingw32/4.9.2/libgcc.a(gthr-win32.o) (_imp__SetLastError@4)
C:/Program Files/ETAS/ISOLAR-EVE3.0/plugins/com.etas.evetools.toolsfolder_1.4.5/Tools/MinGW/bin/../lib/gcc/i686-w64-mingw32/4.9.2/../../../../i686-w64-mingw32/lib/../lib/libkernel32.a(dkxs00962.o)
                              RTAOS.lib(vrtaSystemClockDevice.o) (_imp__ReleaseSemaphore@12)
C:/Program Files/ETAS/ISOLAR-EVE3.0/plugins/com.etas.evetools.toolsfolder_1.4.5/Tools/MinGW/bin/../lib/gcc/i686-w64-mingw32/4.9.2/../../../../i686-w64-mingw32/lib/../lib/libkernel32.a(dkxs00958.o)
                              RTAOS.lib(vrtaSystemClock.o) (_imp__ReleaseMutex@4)
C:/Program Files/ETAS/ISOLAR-EVE3.0/plugins/com.etas.evetools.toolsfolder_1.4.5/Tools/MinGW/bin/../lib/gcc/i686-w64-mingw32/4.9.2/../../../../i686-w64-mingw32/lib/../lib/libkernel32.a(dkxs00916.o)
                              RTAOS.lib(vrtaCore.o) (_imp__QueryPerformanceFrequency@4)
C:/Program Files/ETAS/ISOLAR-EVE3.0/plugins/com.etas.evetools.toolsfolder_1.4.5/Tools/MinGW/bin/../lib/gcc/i686-w64-mingw32/4.9.2/../../../../i686-w64-mingw32/lib/../lib/libkernel32.a(dkxs00915.o)
                              RTAOS.lib(vrtaCore.o) (_imp__QueryPerformanceCounter@4)
C:/Program Files/ETAS/ISOLAR-EVE3.0/plugins/com.etas.evetools.toolsfolder_1.4.5/Tools/MinGW/bin/../lib/gcc/i686-w64-mingw32/4.9.2/../../../../i686-w64-mingw32/lib/../lib/libkernel32.a(dkxs00836.o)
                              RTAOS.lib(vrtaSystemClockDevice.o) (_imp__MapViewOfFile@20)
C:/Program Files/ETAS/ISOLAR-EVE3.0/plugins/com.etas.evetools.toolsfolder_1.4.5/Tools/MinGW/bin/../lib/gcc/i686-w64-mingw32/4.9.2/../../../../i686-w64-mingw32/lib/../lib/libkernel32.a(dkxs00809.o)
                              C:/Program Files/ETAS/ISOLAR-EVE3.0/plugins/com.etas.evetools.toolsfolder_1.4.5/Tools/MinGW/bin/../lib/gcc/i686-w64-mingw32/4.9.2/crtbegin.o (_imp__LoadLibraryA@4)
C:/Program Files/ETAS/ISOLAR-EVE3.0/plugins/com.etas.evetools.toolsfolder_1.4.5/Tools/MinGW/bin/../lib/gcc/i686-w64-mingw32/4.9.2/../../../../i686-w64-mingw32/lib/../lib/libkernel32.a(dkxs00806.o)
                              C:/Program Files/ETAS/ISOLAR-EVE3.0/plugins/com.etas.evetools.toolsfolder_1.4.5/Tools/MinGW/bin/../lib/gcc/i686-w64-mingw32/4.9.2/../../../../i686-w64-mingw32/lib/../lib/libmingw32.a(lib32_libmingw32_a-tlsthrd.o) (_imp__LeaveCriticalSection@4)
C:/Program Files/ETAS/ISOLAR-EVE3.0/plugins/com.etas.evetools.toolsfolder_1.4.5/Tools/MinGW/bin/../lib/gcc/i686-w64-mingw32/4.9.2/../../../../i686-w64-mingw32/lib/../lib/libkernel32.a(dkxs00747.o)
                              C:/Program Files/ETAS/ISOLAR-EVE3.0/plugins/com.etas.evetools.toolsfolder_1.4.5/Tools/MinGW/bin/../lib/gcc/i686-w64-mingw32/4.9.2/../../../../i686-w64-mingw32/lib/../lib/libmingw32.a(lib32_libmingw32_a-tlsthrd.o) (_imp__InitializeCriticalSection@4)
C:/Program Files/ETAS/ISOLAR-EVE3.0/plugins/com.etas.evetools.toolsfolder_1.4.5/Tools/MinGW/bin/../lib/gcc/i686-w64-mingw32/4.9.2/../../../../i686-w64-mingw32/lib/../lib/libkernel32.a(dkxs00663.o)
                              C:/Program Files/ETAS/ISOLAR-EVE3.0/plugins/com.etas.evetools.toolsfolder_1.4.5/Tools/MinGW/bin/../lib/gcc/i686-w64-mingw32/4.9.2/../../../../i686-w64-mingw32/lib/../lib/libmingw32.a(lib32_libmingw32_a-gs_support.o) (_imp__GetTickCount@0)
C:/Program Files/ETAS/ISOLAR-EVE3.0/plugins/com.etas.evetools.toolsfolder_1.4.5/Tools/MinGW/bin/../lib/gcc/i686-w64-mingw32/4.9.2/../../../../i686-w64-mingw32/lib/../lib/libkernel32.a(dkxs00635.o)
                              C:/Program Files/ETAS/ISOLAR-EVE3.0/plugins/com.etas.evetools.toolsfolder_1.4.5/Tools/MinGW/bin/../lib/gcc/i686-w64-mingw32/4.9.2/../../../../i686-w64-mingw32/lib/../lib/libmingw32.a(lib32_libmingw32_a-gs_support.o) (_imp__GetSystemTimeAsFileTime@4)
C:/Program Files/ETAS/ISOLAR-EVE3.0/plugins/com.etas.evetools.toolsfolder_1.4.5/Tools/MinGW/bin/../lib/gcc/i686-w64-mingw32/4.9.2/../../../../i686-w64-mingw32/lib/../lib/libkernel32.a(dkxs00612.o)
                              C:/Program Files/ETAS/ISOLAR-EVE3.0/plugins/com.etas.evetools.toolsfolder_1.4.5/Tools/MinGW/bin/../lib/gcc/i686-w64-mingw32/4.9.2/../../../../i686-w64-mingw32/lib/../lib/crt2.o (_imp__GetStartupInfoA@4)
C:/Program Files/ETAS/ISOLAR-EVE3.0/plugins/com.etas.evetools.toolsfolder_1.4.5/Tools/MinGW/bin/../lib/gcc/i686-w64-mingw32/4.9.2/../../../../i686-w64-mingw32/lib/../lib/libkernel32.a(dkxs00581.o)
                              C:/Program Files/ETAS/ISOLAR-EVE3.0/plugins/com.etas.evetools.toolsfolder_1.4.5/Tools/MinGW/bin/../lib/gcc/i686-w64-mingw32/4.9.2/crtbegin.o (_imp__GetProcAddress@8)
C:/Program Files/ETAS/ISOLAR-EVE3.0/plugins/com.etas.evetools.toolsfolder_1.4.5/Tools/MinGW/bin/../lib/gcc/i686-w64-mingw32/4.9.2/../../../../i686-w64-mingw32/lib/../lib/libkernel32.a(dkxs00533.o)
                              C:/Program Files/ETAS/ISOLAR-EVE3.0/plugins/com.etas.evetools.toolsfolder_1.4.5/Tools/MinGW/bin/../lib/gcc/i686-w64-mingw32/4.9.2/crtbegin.o (_imp__GetModuleHandleA@4)
C:/Program Files/ETAS/ISOLAR-EVE3.0/plugins/com.etas.evetools.toolsfolder_1.4.5/Tools/MinGW/bin/../lib/gcc/i686-w64-mingw32/4.9.2/../../../../i686-w64-mingw32/lib/../lib/libkernel32.a(dkxs00515.o)
                              RTAOS.lib(vrtaCore.o) (_imp__GetLastError@0)
C:/Program Files/ETAS/ISOLAR-EVE3.0/plugins/com.etas.evetools.toolsfolder_1.4.5/Tools/MinGW/bin/../lib/gcc/i686-w64-mingw32/4.9.2/../../../../i686-w64-mingw32/lib/../lib/libkernel32.a(dkxs00479.o)
                              RTAOS.lib(vrtaCore.o) (_imp__GetEnvironmentVariableA@12)
C:/Program Files/ETAS/ISOLAR-EVE3.0/plugins/com.etas.evetools.toolsfolder_1.4.5/Tools/MinGW/bin/../lib/gcc/i686-w64-mingw32/4.9.2/../../../../i686-w64-mingw32/lib/../lib/libkernel32.a(dkxs00457.o)
                              C:/Program Files/ETAS/ISOLAR-EVE3.0/plugins/com.etas.evetools.toolsfolder_1.4.5/Tools/MinGW/bin/../lib/gcc/i686-w64-mingw32/4.9.2/../../../../i686-w64-mingw32/lib/../lib/libmingw32.a(lib32_libmingw32_a-gs_support.o) (_imp__GetCurrentThreadId@0)
C:/Program Files/ETAS/ISOLAR-EVE3.0/plugins/com.etas.evetools.toolsfolder_1.4.5/Tools/MinGW/bin/../lib/gcc/i686-w64-mingw32/4.9.2/../../../../i686-w64-mingw32/lib/../lib/libkernel32.a(dkxs00453.o)
                              C:/Program Files/ETAS/ISOLAR-EVE3.0/plugins/com.etas.evetools.toolsfolder_1.4.5/Tools/MinGW/bin/../lib/gcc/i686-w64-mingw32/4.9.2/../../../../i686-w64-mingw32/lib/../lib/libmingw32.a(lib32_libmingw32_a-gs_support.o) (_imp__GetCurrentProcessId@0)
C:/Program Files/ETAS/ISOLAR-EVE3.0/plugins/com.etas.evetools.toolsfolder_1.4.5/Tools/MinGW/bin/../lib/gcc/i686-w64-mingw32/4.9.2/../../../../i686-w64-mingw32/lib/../lib/libkernel32.a(dkxs00452.o)
                              RTAOS.lib(vrtaAppMain.o) (_imp__GetCurrentProcess@0)
C:/Program Files/ETAS/ISOLAR-EVE3.0/plugins/com.etas.evetools.toolsfolder_1.4.5/Tools/MinGW/bin/../lib/gcc/i686-w64-mingw32/4.9.2/../../../../i686-w64-mingw32/lib/../lib/libkernel32.a(dkxs00356.o)
                              C:/Program Files/ETAS/ISOLAR-EVE3.0/plugins/com.etas.evetools.toolsfolder_1.4.5/Tools/MinGW/bin/../lib/gcc/i686-w64-mingw32/4.9.2/crtbegin.o (_imp__FreeLibrary@4)
C:/Program Files/ETAS/ISOLAR-EVE3.0/plugins/com.etas.evetools.toolsfolder_1.4.5/Tools/MinGW/bin/../lib/gcc/i686-w64-mingw32/4.9.2/../../../../i686-w64-mingw32/lib/../lib/libkernel32.a(dkxs00351.o)
                              RTAOS.lib(vrtaCore.o) (_imp__FormatMessageA@28)
C:/Program Files/ETAS/ISOLAR-EVE3.0/plugins/com.etas.evetools.toolsfolder_1.4.5/Tools/MinGW/bin/../lib/gcc/i686-w64-mingw32/4.9.2/../../../../i686-w64-mingw32/lib/../lib/libkernel32.a(dkxs00283.o)
                              RTAOS.lib(vrtaSystemClock.o) (_imp__ExitThread@4)
C:/Program Files/ETAS/ISOLAR-EVE3.0/plugins/com.etas.evetools.toolsfolder_1.4.5/Tools/MinGW/bin/../lib/gcc/i686-w64-mingw32/4.9.2/../../../../i686-w64-mingw32/lib/../lib/libkernel32.a(dkxs00239.o)
                              C:/Program Files/ETAS/ISOLAR-EVE3.0/plugins/com.etas.evetools.toolsfolder_1.4.5/Tools/MinGW/bin/../lib/gcc/i686-w64-mingw32/4.9.2/../../../../i686-w64-mingw32/lib/../lib/libmingw32.a(lib32_libmingw32_a-tlsthrd.o) (_imp__EnterCriticalSection@4)
C:/Program Files/ETAS/ISOLAR-EVE3.0/plugins/com.etas.evetools.toolsfolder_1.4.5/Tools/MinGW/bin/../lib/gcc/i686-w64-mingw32/4.9.2/../../../../i686-w64-mingw32/lib/../lib/libkernel32.a(dkxs00212.o)
                              C:/Program Files/ETAS/ISOLAR-EVE3.0/plugins/com.etas.evetools.toolsfolder_1.4.5/Tools/MinGW/bin/../lib/gcc/i686-w64-mingw32/4.9.2/../../../../i686-w64-mingw32/lib/../lib/libmingw32.a(lib32_libmingw32_a-tlsthrd.o) (_imp__DeleteCriticalSection@4)
C:/Program Files/ETAS/ISOLAR-EVE3.0/plugins/com.etas.evetools.toolsfolder_1.4.5/Tools/MinGW/bin/../lib/gcc/i686-w64-mingw32/4.9.2/../../../../i686-w64-mingw32/lib/../lib/libkernel32.a(dkxs00176.o)
                              C:/Program Files/ETAS/ISOLAR-EVE3.0/plugins/com.etas.evetools.toolsfolder_1.4.5/Tools/MinGW/bin/../lib/gcc/i686-w64-mingw32/4.9.2/libgcc.a(gthr-win32.o) (_imp__CreateSemaphoreW@16)
C:/Program Files/ETAS/ISOLAR-EVE3.0/plugins/com.etas.evetools.toolsfolder_1.4.5/Tools/MinGW/bin/../lib/gcc/i686-w64-mingw32/4.9.2/../../../../i686-w64-mingw32/lib/../lib/libkernel32.a(dkxs00173.o)
                              RTAOS.lib(vrtaSystemClockDevice.o) (_imp__CreateSemaphoreA@16)
C:/Program Files/ETAS/ISOLAR-EVE3.0/plugins/com.etas.evetools.toolsfolder_1.4.5/Tools/MinGW/bin/../lib/gcc/i686-w64-mingw32/4.9.2/../../../../i686-w64-mingw32/lib/../lib/libkernel32.a(dkxs00158.o)
                              RTAOS.lib(vrtaSystemClock.o) (_imp__CreateMutexA@12)
C:/Program Files/ETAS/ISOLAR-EVE3.0/plugins/com.etas.evetools.toolsfolder_1.4.5/Tools/MinGW/bin/../lib/gcc/i686-w64-mingw32/4.9.2/../../../../i686-w64-mingw32/lib/../lib/libkernel32.a(dkxs00140.o)
                              RTAOS.lib(vrtaSystemClockDevice.o) (_imp__CreateFileMappingA@24)
C:/Program Files/ETAS/ISOLAR-EVE3.0/plugins/com.etas.evetools.toolsfolder_1.4.5/Tools/MinGW/bin/../lib/gcc/i686-w64-mingw32/4.9.2/../../../../i686-w64-mingw32/lib/../lib/libkernel32.a(dkxs00083.o)
                              C:/Program Files/ETAS/ISOLAR-EVE3.0/plugins/com.etas.evetools.toolsfolder_1.4.5/Tools/MinGW/bin/../lib/gcc/i686-w64-mingw32/4.9.2/libgcc.a(gthr-win32.o) (_imp__CloseHandle@4)
C:/Program Files/ETAS/ISOLAR-EVE3.0/plugins/com.etas.evetools.toolsfolder_1.4.5/Tools/MinGW/bin/../lib/gcc/i686-w64-mingw32/4.9.2/../../../../i686-w64-mingw32/lib/../lib/libkernel32.a(dkxh.o)
                              C:/Program Files/ETAS/ISOLAR-EVE3.0/plugins/com.etas.evetools.toolsfolder_1.4.5/Tools/MinGW/bin/../lib/gcc/i686-w64-mingw32/4.9.2/../../../../i686-w64-mingw32/lib/../lib/libkernel32.a(dkxs01218.o) (_head_lib32_libkernel32_a)
C:/Program Files/ETAS/ISOLAR-EVE3.0/plugins/com.etas.evetools.toolsfolder_1.4.5/Tools/MinGW/bin/../lib/gcc/i686-w64-mingw32/4.9.2/../../../../i686-w64-mingw32/lib/../lib/libkernel32.a(dkxt.o)
                              C:/Program Files/ETAS/ISOLAR-EVE3.0/plugins/com.etas.evetools.toolsfolder_1.4.5/Tools/MinGW/bin/../lib/gcc/i686-w64-mingw32/4.9.2/../../../../i686-w64-mingw32/lib/../lib/libkernel32.a(dkxh.o) (_lib32_libkernel32_a_iname)
C:/Program Files/ETAS/ISOLAR-EVE3.0/plugins/com.etas.evetools.toolsfolder_1.4.5/Tools/MinGW/bin/../lib/gcc/i686-w64-mingw32/4.9.2/../../../../i686-w64-mingw32/lib/../lib/libmingw32.a(lib32_libmingw32_a-tlsmthread.o)
                              C:/Program Files/ETAS/ISOLAR-EVE3.0/plugins/com.etas.evetools.toolsfolder_1.4.5/Tools/MinGW/bin/../lib/gcc/i686-w64-mingw32/4.9.2/libgcc.a(gthr-win32.o) (__mingwthr_key_dtor)

Allocating common symbols
Common symbol       size              file

VDP_SENSOR_TO_APP_1
                    0x4               Rte.o
Rte_Queue_CPT_SENSOR_SPEED_R_SPEED_FROM_ECU_ABS_AFS_OPER_ECU_TO_SENSOR_data
                    0x4               Rte.o
Os_dyn_alarms       0x60              RTAOS.lib(Os_Cfg.o)
Rte_Var_TASK_ECU_ACTUATORWaitingEv
                    0x4               Rte.o
__DTOR_LIST__       0x8               C:/Program Files/ETAS/ISOLAR-EVE3.0/plugins/com.etas.evetools.toolsfolder_1.4.5/Tools/MinGW/bin/../lib/gcc/i686-w64-mingw32/4.9.2/libgcc.a(_ctors.o)
Os_ICUForInterruptVector
                    0x42              RTAOS.lib(vrtaAppMain.o)
Rte_Queue_CPT_ECU_ABS_AFS_P_STEERINGALGLE_TO_SENSOR_STERRINGANGLE_OPER_ECU_TO_SENSOR_data
                    0x50              Rte.o
__native_startup_lock
                    0x4               C:/Program Files/ETAS/ISOLAR-EVE3.0/plugins/com.etas.evetools.toolsfolder_1.4.5/Tools/MinGW/bin/../lib/gcc/i686-w64-mingw32/4.9.2/../../../../i686-w64-mingw32/lib/../lib/libmingw32.a(lib32_libmingw32_a-natstart.o)
VDP_SENSOR_TO_APP_2
                    0x4               Rte.o
Os_RunningISR       0x4               RTAOS.lib(Os_Cfg.o)
Os_ReadyTasks       0x4               RTAOS.lib(Os_Cfg.o)
Os_dyn_fifocontrol  0x18              RTAOS.lib(Os_Cfg.o)
Rte_Queue_CPT_ECU_ABS_AFS_P_SPEED_TO_SENSOR_SPEED_OPER_ECU_TO_SENSOR_data
                    0x50              Rte.o
Rte_Queue_CPT_ACT_HIGHBEAM_P_HIGBEAMMODE_TO_ECU_ABS_AFS_OPER_ACT_TO_ECU_data
                    0x50              Rte.o
Rte_Queue_CPT_SENSOR_LIGHTMODE_R_LIGHTMODE_FROM_ECU_ABS_AFS_OPER_ECU_TO_SENSOR_data
                    0x4               Rte.o
Os_WaitingTasks     0x4               RTAOS.lib(Os_Cfg.o)
Os_SuspendOSCount   0x1               RTAOS.lib(SuspendOSInterrupts.o)
VDP_SENSOR_TO_APP_5
                    0x4               Rte.o
hmod_libgcc         0x4               C:/Program Files/ETAS/ISOLAR-EVE3.0/plugins/com.etas.evetools.toolsfolder_1.4.5/Tools/MinGW/bin/../lib/gcc/i686-w64-mingw32/4.9.2/crtbegin.o
Rte_Queue_CPT_ECU_ABS_AFS_P_DISTANCE_TO_SENSOR_DISTANCE_OPER_ECU_TO_SENSOR_data
                    0x50              Rte.o
Os_SuspendOSImask   0x4               RTAOS.lib(SuspendOSInterrupts.o)
__onexitend         0x4               C:/Program Files/ETAS/ISOLAR-EVE3.0/plugins/com.etas.evetools.toolsfolder_1.4.5/Tools/MinGW/bin/../lib/gcc/i686-w64-mingw32/4.9.2/../../../../i686-w64-mingw32/lib/../lib/libmingw32.a(lib32_libmingw32_a-atonexit.o)
Os_dyn_scheduletables
                    0x10              RTAOS.lib(Os_Cfg.o)
VDP_APP_TO_ACT      0x4               Rte.o
VDP_SENSOR_TO_APP_6
                    0x4               Rte.o
VDP_APP_TO_ACT_0    0x4               Rte.o
Os_TaskFifo         0x98              RTAOS.lib(Os_Cfg.o)
VDP_SENSOR_TO_APP   0x4               Rte.o
__native_startup_state
                    0x4               C:/Program Files/ETAS/ISOLAR-EVE3.0/plugins/com.etas.evetools.toolsfolder_1.4.5/Tools/MinGW/bin/../lib/gcc/i686-w64-mingw32/4.9.2/../../../../i686-w64-mingw32/lib/../lib/libmingw32.a(lib32_libmingw32_a-natstart.o)
Os_dyn_isrs         0xc               RTAOS.lib(Os_Cfg.o)
Rte_Queue_CPT_ACT_LEFTRIGHT_MOTOR_P_LEFTRIGHTANGLE_TO_ECU_ABS_AFS_OPER_ACT_TO_ECU_data
                    0x50              Rte.o
__onexitbegin       0x4               C:/Program Files/ETAS/ISOLAR-EVE3.0/plugins/com.etas.evetools.toolsfolder_1.4.5/Tools/MinGW/bin/../lib/gcc/i686-w64-mingw32/4.9.2/../../../../i686-w64-mingw32/lib/../lib/libmingw32.a(lib32_libmingw32_a-atonexit.o)
VDP_SENSOR_TO_APP_3
                    0x4               Rte.o
Os_CurrentAppMode   0x1               RTAOS.lib(Os_Cfg.o)
__mingw_winmain_lpCmdLine
                    0x4               C:/Program Files/ETAS/ISOLAR-EVE3.0/plugins/com.etas.evetools.toolsfolder_1.4.5/Tools/MinGW/bin/../lib/gcc/i686-w64-mingw32/4.9.2/../../../../i686-w64-mingw32/lib/../lib/crt2.o
VRTA_DEBUG_DEFER_INTERRUPTS
                    0x4               RTAOS.lib(vrtaAppMain.o)
Rte_Queue_CPT_ECU_ABS_AFS_R_LEFTRIGHTANGLE_FROM_ACT_LEFTRIGHT_MOTOR_OPER_ACT_TO_ECU_data
                    0x4               Rte.o
CPT_ACT_LEFTRIGHT_MOTOR_IB_ACT_LEFTRIGHT_MOTOR_Explicit_VariableDataPrototype_0
                    0x4               Rte.o
__CTOR_LIST__       0x8               C:/Program Files/ETAS/ISOLAR-EVE3.0/plugins/com.etas.evetools.toolsfolder_1.4.5/Tools/MinGW/bin/../lib/gcc/i686-w64-mingw32/4.9.2/libgcc.a(_ctors.o)
Os_WaitSP           0x4               RTAOS.lib(Os_Cfg.o)
Os_dyn_ecc          0x98              RTAOS.lib(Os_Cfg.o)
Os_IdleMeter        0x8               RTAOS.lib(Os_Cfg.o)
Os_CurrentMeteredObject
                    0x4               RTAOS.lib(Os_Cfg.o)
Rte_Queue_CPT_SENSOR_LIGHT_R_LIGHT_FROM_ECU_ABS_AFS_OPER_ECU_TO_SENSOR_data
                    0x4               Rte.o
Rte_Queue_CPT_SENSOR_DISTANCE_R_DISTANCE_FROM_ECU_ABS_AFS_OPER_ECU_TO_SENSOR_data
                    0x4               Rte.o
VDP_SENSOR_TO_APP_0
                    0x4               Rte.o
Rte_Queue_CPT_ECU_ABS_AFS_P_LIGHTMODE_TO_SENSOR_LIGHTMODE_OPER_ECU_TO_SENSOR_data
                    0x50              Rte.o
Os_ICUForCore       0x2               RTAOS.lib(vrtaAppMain.o)
Os_OrtiApiID        0x1               RTAOS.lib(Os_Cfg.o)
Os_ChainTaskRef     0x4               RTAOS.lib(Os_Cfg.o)
Rte_Queue_CPT_SENSOR_STEERINGANGLE_R_STEERINGANGLE_FROM_ECU_ABS_AFS_OPER_ECU_TO_SENSOR_data
                    0x4               Rte.o
Rte_Queue_CPT_ECU_ABS_AFS_P_LIGHT_TO_SENSOR_LIGHT_OPER_ECU_TO_SENSOR_data
                    0x50              Rte.o
Os_dyn_counters     0x8               RTAOS.lib(Os_Cfg.o)
CPT_ACT_UPDOWN_MOTOR_IB_ACT_UPDOWN_MOTOR_Explicit_VariableDataPrototype_0
                    0x4               Rte.o
Rte_Queue_CPT_ECU_ABS_AFS_R_UPDOWNANGLE_FROM_ACT_UPDOWN_MOTOR_OPER_ACT_TO_ECU_data
                    0x4               Rte.o
Os_GetStackValueAdjust
                    0x4               RTAOS.lib(Os_Cfg.o)
Os_dyn_resources    0x10              RTAOS.lib(Os_Cfg.o)
Os_StackBase        0x4               RTAOS.lib(Os_Cfg.o)
Os_VCoreIsUntrusted
                    0x1               RTAOS.lib(Os_Cfg.o)
Rte_Queue_CPT_ACT_UPDOWN_MOTOR_P_UPDOWNANGLE_TO_ECU_ABS_AFS_OPER_ACT_TO_ECU_data
                    0x50              Rte.o
VDP_SENSOR_TO_APP_4
                    0x4               Rte.o
VDP_APP_TO_ACT_1    0x4               Rte.o
Os_RunningTask      0x4               RTAOS.lib(Os_Cfg.o)
count               0x4               Rte_APP_LOWBEAM.o
Os_InShutdownHook   0x1               RTAOS.lib(Os_Cfg.o)
__mingw_winmain_hInstance
                    0x4               C:/Program Files/ETAS/ISOLAR-EVE3.0/plugins/com.etas.evetools.toolsfolder_1.4.5/Tools/MinGW/bin/../lib/gcc/i686-w64-mingw32/4.9.2/../../../../i686-w64-mingw32/lib/../lib/crt2.o
Os_OrtiLastError    0x1               RTAOS.lib(Os_Cfg.o)
lightWindow         0x14              Rte_APP_LOWBEAM.o
Os_dyn_tasks        0x370             RTAOS.lib(Os_Cfg.o)
distanceWindow      0x14              Rte_APP_LOWBEAM.o
Os_RunningTPMask    0x4               RTAOS.lib(Os_Cfg.o)
Rte_Queue_CPT_ACT_LOWBEAM_P_LOWBEAMMODE_TO_ECU_ABS_AFS_OPER_ACT_TO_ECU_data
                    0x50              Rte.o
VDP_APP_TO_ACT_2    0x4               Rte.o
Rte_Queue_CPT_ECU_ABS_AFS_R_LOWBEAMMODE_FROM_ACT_LOWBEAM_OPER_ACT_TO_ECU_data
                    0x4               Rte.o
Rte_Queue_CPT_ECU_ABS_AFS_R_HIGHBEAMMODE_FROM_ACT_HIGHBEAM_OPER_ACT_TO_ECU_data
                    0x4               Rte.o
CPT_ACT_HIGHBEAM_IB_ACT_HIGHBEAM_Explicit_VariableDataPrototype_0
                    0x4               Rte.o
CPT_ACT_LOWBEAM_IB_ACT_LOWBEAM_Explicit_VariableDataPrototype_0
                    0x4               Rte.o

Discarded input sections

 .drectve       0x00000000       0x54 C:/Program Files/ETAS/ISOLAR-EVE3.0/plugins/com.etas.evetools.toolsfolder_1.4.5/Tools/MinGW/bin/../lib/gcc/i686-w64-mingw32/4.9.2/../../../../i686-w64-mingw32/lib/../lib/crt2.o
 .drectve       0x00000000       0x1c C:/Program Files/ETAS/ISOLAR-EVE3.0/plugins/com.etas.evetools.toolsfolder_1.4.5/Tools/MinGW/bin/../lib/gcc/i686-w64-mingw32/4.9.2/crtbegin.o
 .drectve       0x00000000      0xa04 Rte.o
 .drectve       0x00000000       0x54 Rte_APP_LOWBEAM.o
 .text$_ZN14vrtaComparable5ValueEv
                0x00000000       0x14 VirtualDevices.o
 .eh_frame$_ZN14vrtaComparable5ValueEv
                0x00000000       0x38 VirtualDevices.o
 .drectve       0x00000000      0x278 RTAOS.lib(Os_Cfg.o)
 .drectve       0x00000000       0x24 RTAOS.lib(SuspendOSInterrupts.o)
 .drectve       0x00000000       0x74 RTAOS.lib(vrtaAppMain.o)
 .rdata$_ZTI10vrtaDevice
                0x00000000        0x8 RTAOS.lib(vrtaLoggerDevice.o)
 .rdata$_ZTS10vrtaDevice
                0x00000000       0x10 RTAOS.lib(vrtaLoggerDevice.o)
 .rdata$_ZTI18vrtaIdleSubscriber
                0x00000000        0x8 RTAOS.lib(vrtaOSMonitorDevice.o)
 .rdata$_ZTS18vrtaIdleSubscriber
                0x00000000       0x18 RTAOS.lib(vrtaOSMonitorDevice.o)
 .text$_ZN14vrtaComparable5ValueEv
                0x00000000       0x10 RTAOS.lib(vrtaSampleDevices.o)
 .text$_ZN9vrtaClockD1Ev
                0x00000000       0x20 RTAOS.lib(vrtaSampleDevices.o)
 .text$_ZThn36_N9vrtaClockD1Ev
                0x00000000       0x10 RTAOS.lib(vrtaSampleDevices.o)
 .rdata$_ZTI10vrtaDevice
                0x00000000        0x8 RTAOS.lib(vrtaSampleDevices.o)
 .rdata$_ZTS10vrtaDevice
                0x00000000       0x10 RTAOS.lib(vrtaSampleDevices.o)
 .eh_frame$_ZN14vrtaComparable5ValueEv
                0x00000000       0x2c RTAOS.lib(vrtaSampleDevices.o)
 .eh_frame$_ZN9vrtaClockD1Ev
                0x00000000       0x2c RTAOS.lib(vrtaSampleDevices.o)
 .eh_frame$_ZThn36_N9vrtaClockD1Ev
                0x00000000       0x2c RTAOS.lib(vrtaSampleDevices.o)
 .rdata$_ZTS25vrtaSystemClockSubscriber
                0x00000000       0x1c RTAOS.lib(vrtaSystemClock.o)
 .rdata$_ZTI25vrtaSystemClockSubscriber
                0x00000000        0x8 RTAOS.lib(vrtaSystemClock.o)
 .rdata$_ZTI18vrtaIdleSubscriber
                0x00000000        0x8 RTAOS.lib(vrtaSystemClock.o)
 .rdata$_ZTS18vrtaIdleSubscriber
                0x00000000       0x18 RTAOS.lib(vrtaSystemClock.o)
 .text$_ZN13VirtualDevice8StartingEv
                0x00000000       0x10 RTAOS.lib(vrtaSystemClockDevice.o)
 .text$_ZN13VirtualDevice8StoppingEv
                0x00000000       0x10 RTAOS.lib(vrtaSystemClockDevice.o)
 .rdata$_ZTI13VirtualDevice
                0x00000000        0x8 RTAOS.lib(vrtaSystemClockDevice.o)
 .rdata$_ZTS13VirtualDevice
                0x00000000       0x10 RTAOS.lib(vrtaSystemClockDevice.o)
 .rdata$_ZTI18vrtaIdleSubscriber
                0x00000000        0x8 RTAOS.lib(vrtaSystemClockDevice.o)
 .rdata$_ZTS18vrtaIdleSubscriber
                0x00000000       0x18 RTAOS.lib(vrtaSystemClockDevice.o)
 .eh_frame$_ZN13VirtualDevice8StartingEv
                0x00000000       0x2c RTAOS.lib(vrtaSystemClockDevice.o)
 .eh_frame$_ZN13VirtualDevice8StoppingEv
                0x00000000       0x2c RTAOS.lib(vrtaSystemClockDevice.o)
 .text$_ZN13VirtualDevice8StartingEv
                0x00000000       0x10 RTAOS.lib(virtualDevice.o)
 .text$_ZN13VirtualDevice8StoppingEv
                0x00000000       0x10 RTAOS.lib(virtualDevice.o)
 .rdata$_ZTS13VirtualDevice
                0x00000000       0x10 RTAOS.lib(virtualDevice.o)
 .rdata$_ZTI13VirtualDevice
                0x00000000        0x8 RTAOS.lib(virtualDevice.o)
 .eh_frame$_ZN13VirtualDevice8StartingEv
                0x00000000       0x2c RTAOS.lib(virtualDevice.o)
 .eh_frame$_ZN13VirtualDevice8StoppingEv
                0x00000000       0x2c RTAOS.lib(virtualDevice.o)
 .text          0x00000000        0x8 C:/Program Files/ETAS/ISOLAR-EVE3.0/plugins/com.etas.evetools.toolsfolder_1.4.5/Tools/MinGW/bin/../lib/gcc/i686-w64-mingw32/4.9.2/../../../../i686-w64-mingw32/lib/../lib/libwinmm.a(dasfs00150.o)
 .text          0x00000000        0x8 C:/Program Files/ETAS/ISOLAR-EVE3.0/plugins/com.etas.evetools.toolsfolder_1.4.5/Tools/MinGW/bin/../lib/gcc/i686-w64-mingw32/4.9.2/../../../../i686-w64-mingw32/lib/../lib/libwinmm.a(dasfs00149.o)
 .text          0x00000000        0x8 C:/Program Files/ETAS/ISOLAR-EVE3.0/plugins/com.etas.evetools.toolsfolder_1.4.5/Tools/MinGW/bin/../lib/gcc/i686-w64-mingw32/4.9.2/../../../../i686-w64-mingw32/lib/../lib/libwinmm.a(dasfs00144.o)
 .rdata$_ZTISt9exception
                0x00000000        0x8 C:/Program Files/ETAS/ISOLAR-EVE3.0/plugins/com.etas.evetools.toolsfolder_1.4.5/Tools/MinGW/bin/../lib/gcc/i686-w64-mingw32/4.9.2\libstdc++.a(new_op.o)
 .rdata$_ZTSSt9exception
                0x00000000       0x10 C:/Program Files/ETAS/ISOLAR-EVE3.0/plugins/com.etas.evetools.toolsfolder_1.4.5/Tools/MinGW/bin/../lib/gcc/i686-w64-mingw32/4.9.2\libstdc++.a(new_op.o)
 .rdata$_ZTISt9exception
                0x00000000        0x8 C:/Program Files/ETAS/ISOLAR-EVE3.0/plugins/com.etas.evetools.toolsfolder_1.4.5/Tools/MinGW/bin/../lib/gcc/i686-w64-mingw32/4.9.2\libstdc++.a(new_opv.o)
 .rdata$_ZTSSt9exception
                0x00000000       0x10 C:/Program Files/ETAS/ISOLAR-EVE3.0/plugins/com.etas.evetools.toolsfolder_1.4.5/Tools/MinGW/bin/../lib/gcc/i686-w64-mingw32/4.9.2\libstdc++.a(new_opv.o)
 .rdata$_ZTISt9bad_alloc
                0x00000000        0xc C:/Program Files/ETAS/ISOLAR-EVE3.0/plugins/com.etas.evetools.toolsfolder_1.4.5/Tools/MinGW/bin/../lib/gcc/i686-w64-mingw32/4.9.2\libstdc++.a(new_opv.o)
 .rdata$_ZTSSt9bad_alloc
                0x00000000       0x10 C:/Program Files/ETAS/ISOLAR-EVE3.0/plugins/com.etas.evetools.toolsfolder_1.4.5/Tools/MinGW/bin/../lib/gcc/i686-w64-mingw32/4.9.2\libstdc++.a(new_opv.o)
 .rdata$_ZTISt9type_info
                0x00000000        0x8 C:/Program Files/ETAS/ISOLAR-EVE3.0/plugins/com.etas.evetools.toolsfolder_1.4.5/Tools/MinGW/bin/../lib/gcc/i686-w64-mingw32/4.9.2\libstdc++.a(si_class_type_info.o)
 .rdata$_ZTSSt9type_info
                0x00000000       0x10 C:/Program Files/ETAS/ISOLAR-EVE3.0/plugins/com.etas.evetools.toolsfolder_1.4.5/Tools/MinGW/bin/../lib/gcc/i686-w64-mingw32/4.9.2\libstdc++.a(si_class_type_info.o)
 .rdata$_ZTIN10__cxxabiv117__class_type_infoE
                0x00000000        0xc C:/Program Files/ETAS/ISOLAR-EVE3.0/plugins/com.etas.evetools.toolsfolder_1.4.5/Tools/MinGW/bin/../lib/gcc/i686-w64-mingw32/4.9.2\libstdc++.a(si_class_type_info.o)
 .rdata$_ZTSN10__cxxabiv117__class_type_infoE
                0x00000000       0x40 C:/Program Files/ETAS/ISOLAR-EVE3.0/plugins/com.etas.evetools.toolsfolder_1.4.5/Tools/MinGW/bin/../lib/gcc/i686-w64-mingw32/4.9.2\libstdc++.a(si_class_type_info.o)
 .rdata$_ZTSSt9type_info
                0x00000000       0x10 C:/Program Files/ETAS/ISOLAR-EVE3.0/plugins/com.etas.evetools.toolsfolder_1.4.5/Tools/MinGW/bin/../lib/gcc/i686-w64-mingw32/4.9.2\libstdc++.a(tinfo.o)
 .rdata$_ZTISt9type_info
                0x00000000        0x8 C:/Program Files/ETAS/ISOLAR-EVE3.0/plugins/com.etas.evetools.toolsfolder_1.4.5/Tools/MinGW/bin/../lib/gcc/i686-w64-mingw32/4.9.2\libstdc++.a(tinfo.o)
 .rdata$_ZTISt9type_info
                0x00000000        0x8 C:/Program Files/ETAS/ISOLAR-EVE3.0/plugins/com.etas.evetools.toolsfolder_1.4.5/Tools/MinGW/bin/../lib/gcc/i686-w64-mingw32/4.9.2\libstdc++.a(vmi_class_type_info.o)
 .rdata$_ZTSSt9type_info
                0x00000000       0x10 C:/Program Files/ETAS/ISOLAR-EVE3.0/plugins/com.etas.evetools.toolsfolder_1.4.5/Tools/MinGW/bin/../lib/gcc/i686-w64-mingw32/4.9.2\libstdc++.a(vmi_class_type_info.o)
 .rdata$_ZTIN10__cxxabiv117__class_type_infoE
                0x00000000        0xc C:/Program Files/ETAS/ISOLAR-EVE3.0/plugins/com.etas.evetools.toolsfolder_1.4.5/Tools/MinGW/bin/../lib/gcc/i686-w64-mingw32/4.9.2\libstdc++.a(vmi_class_type_info.o)
 .rdata$_ZTSN10__cxxabiv117__class_type_infoE
                0x00000000       0x40 C:/Program Files/ETAS/ISOLAR-EVE3.0/plugins/com.etas.evetools.toolsfolder_1.4.5/Tools/MinGW/bin/../lib/gcc/i686-w64-mingw32/4.9.2\libstdc++.a(vmi_class_type_info.o)
 .rdata$_ZTISt9exception
                0x00000000        0x8 C:/Program Files/ETAS/ISOLAR-EVE3.0/plugins/com.etas.evetools.toolsfolder_1.4.5/Tools/MinGW/bin/../lib/gcc/i686-w64-mingw32/4.9.2\libstdc++.a(vterminate.o)
 .rdata$_ZTSSt9exception
                0x00000000       0x10 C:/Program Files/ETAS/ISOLAR-EVE3.0/plugins/com.etas.evetools.toolsfolder_1.4.5/Tools/MinGW/bin/../lib/gcc/i686-w64-mingw32/4.9.2\libstdc++.a(vterminate.o)
 .rdata$_ZTISt9exception
                0x00000000        0x8 C:/Program Files/ETAS/ISOLAR-EVE3.0/plugins/com.etas.evetools.toolsfolder_1.4.5/Tools/MinGW/bin/../lib/gcc/i686-w64-mingw32/4.9.2\libstdc++.a(bad_alloc.o)
 .rdata$_ZTSSt9exception
                0x00000000       0x10 C:/Program Files/ETAS/ISOLAR-EVE3.0/plugins/com.etas.evetools.toolsfolder_1.4.5/Tools/MinGW/bin/../lib/gcc/i686-w64-mingw32/4.9.2\libstdc++.a(bad_alloc.o)
 .rdata$_ZTSSt9bad_alloc
                0x00000000       0x10 C:/Program Files/ETAS/ISOLAR-EVE3.0/plugins/com.etas.evetools.toolsfolder_1.4.5/Tools/MinGW/bin/../lib/gcc/i686-w64-mingw32/4.9.2\libstdc++.a(bad_alloc.o)
 .rdata$_ZTISt9bad_alloc
                0x00000000        0xc C:/Program Files/ETAS/ISOLAR-EVE3.0/plugins/com.etas.evetools.toolsfolder_1.4.5/Tools/MinGW/bin/../lib/gcc/i686-w64-mingw32/4.9.2\libstdc++.a(bad_alloc.o)
 .rdata$_ZTISt9exception
                0x00000000        0x8 C:/Program Files/ETAS/ISOLAR-EVE3.0/plugins/com.etas.evetools.toolsfolder_1.4.5/Tools/MinGW/bin/../lib/gcc/i686-w64-mingw32/4.9.2\libstdc++.a(eh_alloc.o)
 .rdata$_ZTSSt9exception
                0x00000000       0x10 C:/Program Files/ETAS/ISOLAR-EVE3.0/plugins/com.etas.evetools.toolsfolder_1.4.5/Tools/MinGW/bin/../lib/gcc/i686-w64-mingw32/4.9.2\libstdc++.a(eh_alloc.o)
 .rdata$_ZTSSt9exception
                0x00000000       0x10 C:/Program Files/ETAS/ISOLAR-EVE3.0/plugins/com.etas.evetools.toolsfolder_1.4.5/Tools/MinGW/bin/../lib/gcc/i686-w64-mingw32/4.9.2\libstdc++.a(eh_exception.o)
 .rdata$_ZTISt9exception
                0x00000000        0x8 C:/Program Files/ETAS/ISOLAR-EVE3.0/plugins/com.etas.evetools.toolsfolder_1.4.5/Tools/MinGW/bin/../lib/gcc/i686-w64-mingw32/4.9.2\libstdc++.a(eh_exception.o)
 .rdata$_ZTSSt13bad_exception
                0x00000000       0x14 C:/Program Files/ETAS/ISOLAR-EVE3.0/plugins/com.etas.evetools.toolsfolder_1.4.5/Tools/MinGW/bin/../lib/gcc/i686-w64-mingw32/4.9.2\libstdc++.a(eh_exception.o)
 .rdata$_ZTISt13bad_exception
                0x00000000        0xc C:/Program Files/ETAS/ISOLAR-EVE3.0/plugins/com.etas.evetools.toolsfolder_1.4.5/Tools/MinGW/bin/../lib/gcc/i686-w64-mingw32/4.9.2\libstdc++.a(eh_exception.o)
 .rdata$_ZTSN10__cxxabiv115__forced_unwindE
                0x00000000       0x20 C:/Program Files/ETAS/ISOLAR-EVE3.0/plugins/com.etas.evetools.toolsfolder_1.4.5/Tools/MinGW/bin/../lib/gcc/i686-w64-mingw32/4.9.2\libstdc++.a(eh_exception.o)
 .rdata$_ZTIN10__cxxabiv115__forced_unwindE
                0x00000000        0x8 C:/Program Files/ETAS/ISOLAR-EVE3.0/plugins/com.etas.evetools.toolsfolder_1.4.5/Tools/MinGW/bin/../lib/gcc/i686-w64-mingw32/4.9.2\libstdc++.a(eh_exception.o)
 .rdata$_ZTSN10__cxxabiv119__foreign_exceptionE
                0x00000000       0x40 C:/Program Files/ETAS/ISOLAR-EVE3.0/plugins/com.etas.evetools.toolsfolder_1.4.5/Tools/MinGW/bin/../lib/gcc/i686-w64-mingw32/4.9.2\libstdc++.a(eh_exception.o)
 .rdata$_ZTIN10__cxxabiv119__foreign_exceptionE
                0x00000000        0x8 C:/Program Files/ETAS/ISOLAR-EVE3.0/plugins/com.etas.evetools.toolsfolder_1.4.5/Tools/MinGW/bin/../lib/gcc/i686-w64-mingw32/4.9.2\libstdc++.a(eh_exception.o)
 .drectve       0x00000000       0x3c C:/Program Files/ETAS/ISOLAR-EVE3.0/plugins/com.etas.evetools.toolsfolder_1.4.5/Tools/MinGW/bin/../lib/gcc/i686-w64-mingw32/4.9.2/../../../../i686-w64-mingw32/lib/../lib/libmingw32.a(lib32_libmingw32_a-atonexit.o)
 .drectve       0x00000000       0x50 C:/Program Files/ETAS/ISOLAR-EVE3.0/plugins/com.etas.evetools.toolsfolder_1.4.5/Tools/MinGW/bin/../lib/gcc/i686-w64-mingw32/4.9.2/../../../../i686-w64-mingw32/lib/../lib/libmingw32.a(lib32_libmingw32_a-natstart.o)
 .drectve       0x00000000       0x3c C:/Program Files/ETAS/ISOLAR-EVE3.0/plugins/com.etas.evetools.toolsfolder_1.4.5/Tools/MinGW/bin/../lib/gcc/i686-w64-mingw32/4.9.2/libgcc.a(_ctors.o)
 .text          0x00000000        0x8 C:/Program Files/ETAS/ISOLAR-EVE3.0/plugins/com.etas.evetools.toolsfolder_1.4.5/Tools/MinGW/bin/../lib/gcc/i686-w64-mingw32/4.9.2/../../../../i686-w64-mingw32/lib/../lib/libmsvcrt.a(dcpds00069.o)
 .text          0x00000000        0x8 C:/Program Files/ETAS/ISOLAR-EVE3.0/plugins/com.etas.evetools.toolsfolder_1.4.5/Tools/MinGW/bin/../lib/gcc/i686-w64-mingw32/4.9.2/../../../../i686-w64-mingw32/lib/../lib/libuser32.a(diqes00588.o)
 .text          0x00000000        0x8 C:/Program Files/ETAS/ISOLAR-EVE3.0/plugins/com.etas.evetools.toolsfolder_1.4.5/Tools/MinGW/bin/../lib/gcc/i686-w64-mingw32/4.9.2/../../../../i686-w64-mingw32/lib/../lib/libkernel32.a(dkxs01218.o)
 .text          0x00000000        0x8 C:/Program Files/ETAS/ISOLAR-EVE3.0/plugins/com.etas.evetools.toolsfolder_1.4.5/Tools/MinGW/bin/../lib/gcc/i686-w64-mingw32/4.9.2/../../../../i686-w64-mingw32/lib/../lib/libkernel32.a(dkxs01209.o)
 .text          0x00000000        0x8 C:/Program Files/ETAS/ISOLAR-EVE3.0/plugins/com.etas.evetools.toolsfolder_1.4.5/Tools/MinGW/bin/../lib/gcc/i686-w64-mingw32/4.9.2/../../../../i686-w64-mingw32/lib/../lib/libkernel32.a(dkxs01206.o)
 .text          0x00000000        0x8 C:/Program Files/ETAS/ISOLAR-EVE3.0/plugins/com.etas.evetools.toolsfolder_1.4.5/Tools/MinGW/bin/../lib/gcc/i686-w64-mingw32/4.9.2/../../../../i686-w64-mingw32/lib/../lib/libkernel32.a(dkxs01174.o)
 .text          0x00000000        0x8 C:/Program Files/ETAS/ISOLAR-EVE3.0/plugins/com.etas.evetools.toolsfolder_1.4.5/Tools/MinGW/bin/../lib/gcc/i686-w64-mingw32/4.9.2/../../../../i686-w64-mingw32/lib/../lib/libkernel32.a(dkxs01162.o)
 .text          0x00000000        0x8 C:/Program Files/ETAS/ISOLAR-EVE3.0/plugins/com.etas.evetools.toolsfolder_1.4.5/Tools/MinGW/bin/../lib/gcc/i686-w64-mingw32/4.9.2/../../../../i686-w64-mingw32/lib/../lib/libkernel32.a(dkxs01161.o)
 .text          0x00000000        0x8 C:/Program Files/ETAS/ISOLAR-EVE3.0/plugins/com.etas.evetools.toolsfolder_1.4.5/Tools/MinGW/bin/../lib/gcc/i686-w64-mingw32/4.9.2/../../../../i686-w64-mingw32/lib/../lib/libkernel32.a(dkxs01160.o)
 .text          0x00000000        0x8 C:/Program Files/ETAS/ISOLAR-EVE3.0/plugins/com.etas.evetools.toolsfolder_1.4.5/Tools/MinGW/bin/../lib/gcc/i686-w64-mingw32/4.9.2/../../../../i686-w64-mingw32/lib/../lib/libkernel32.a(dkxs01159.o)
 .text          0x00000000        0x8 C:/Program Files/ETAS/ISOLAR-EVE3.0/plugins/com.etas.evetools.toolsfolder_1.4.5/Tools/MinGW/bin/../lib/gcc/i686-w64-mingw32/4.9.2/../../../../i686-w64-mingw32/lib/../lib/libkernel32.a(dkxs01154.o)
 .text          0x00000000        0x8 C:/Program Files/ETAS/ISOLAR-EVE3.0/plugins/com.etas.evetools.toolsfolder_1.4.5/Tools/MinGW/bin/../lib/gcc/i686-w64-mingw32/4.9.2/../../../../i686-w64-mingw32/lib/../lib/libkernel32.a(dkxs01140.o)
 .text          0x00000000        0x8 C:/Program Files/ETAS/ISOLAR-EVE3.0/plugins/com.etas.evetools.toolsfolder_1.4.5/Tools/MinGW/bin/../lib/gcc/i686-w64-mingw32/4.9.2/../../../../i686-w64-mingw32/lib/../lib/libkernel32.a(dkxs01127.o)
 .text          0x00000000        0x8 C:/Program Files/ETAS/ISOLAR-EVE3.0/plugins/com.etas.evetools.toolsfolder_1.4.5/Tools/MinGW/bin/../lib/gcc/i686-w64-mingw32/4.9.2/../../../../i686-w64-mingw32/lib/../lib/libkernel32.a(dkxs01078.o)
 .text          0x00000000        0x8 C:/Program Files/ETAS/ISOLAR-EVE3.0/plugins/com.etas.evetools.toolsfolder_1.4.5/Tools/MinGW/bin/../lib/gcc/i686-w64-mingw32/4.9.2/../../../../i686-w64-mingw32/lib/../lib/libkernel32.a(dkxs00962.o)
 .text          0x00000000        0x8 C:/Program Files/ETAS/ISOLAR-EVE3.0/plugins/com.etas.evetools.toolsfolder_1.4.5/Tools/MinGW/bin/../lib/gcc/i686-w64-mingw32/4.9.2/../../../../i686-w64-mingw32/lib/../lib/libkernel32.a(dkxs00958.o)
 .text          0x00000000        0x8 C:/Program Files/ETAS/ISOLAR-EVE3.0/plugins/com.etas.evetools.toolsfolder_1.4.5/Tools/MinGW/bin/../lib/gcc/i686-w64-mingw32/4.9.2/../../../../i686-w64-mingw32/lib/../lib/libkernel32.a(dkxs00916.o)
 .text          0x00000000        0x8 C:/Program Files/ETAS/ISOLAR-EVE3.0/plugins/com.etas.evetools.toolsfolder_1.4.5/Tools/MinGW/bin/../lib/gcc/i686-w64-mingw32/4.9.2/../../../../i686-w64-mingw32/lib/../lib/libkernel32.a(dkxs00915.o)
 .text          0x00000000        0x8 C:/Program Files/ETAS/ISOLAR-EVE3.0/plugins/com.etas.evetools.toolsfolder_1.4.5/Tools/MinGW/bin/../lib/gcc/i686-w64-mingw32/4.9.2/../../../../i686-w64-mingw32/lib/../lib/libkernel32.a(dkxs00836.o)
 .text          0x00000000        0x8 C:/Program Files/ETAS/ISOLAR-EVE3.0/plugins/com.etas.evetools.toolsfolder_1.4.5/Tools/MinGW/bin/../lib/gcc/i686-w64-mingw32/4.9.2/../../../../i686-w64-mingw32/lib/../lib/libkernel32.a(dkxs00809.o)
 .text          0x00000000        0x8 C:/Program Files/ETAS/ISOLAR-EVE3.0/plugins/com.etas.evetools.toolsfolder_1.4.5/Tools/MinGW/bin/../lib/gcc/i686-w64-mingw32/4.9.2/../../../../i686-w64-mingw32/lib/../lib/libkernel32.a(dkxs00806.o)
 .text          0x00000000        0x8 C:/Program Files/ETAS/ISOLAR-EVE3.0/plugins/com.etas.evetools.toolsfolder_1.4.5/Tools/MinGW/bin/../lib/gcc/i686-w64-mingw32/4.9.2/../../../../i686-w64-mingw32/lib/../lib/libkernel32.a(dkxs00747.o)
 .text          0x00000000        0x8 C:/Program Files/ETAS/ISOLAR-EVE3.0/plugins/com.etas.evetools.toolsfolder_1.4.5/Tools/MinGW/bin/../lib/gcc/i686-w64-mingw32/4.9.2/../../../../i686-w64-mingw32/lib/../lib/libkernel32.a(dkxs00663.o)
 .text          0x00000000        0x8 C:/Program Files/ETAS/ISOLAR-EVE3.0/plugins/com.etas.evetools.toolsfolder_1.4.5/Tools/MinGW/bin/../lib/gcc/i686-w64-mingw32/4.9.2/../../../../i686-w64-mingw32/lib/../lib/libkernel32.a(dkxs00635.o)
 .text          0x00000000        0x8 C:/Program Files/ETAS/ISOLAR-EVE3.0/plugins/com.etas.evetools.toolsfolder_1.4.5/Tools/MinGW/bin/../lib/gcc/i686-w64-mingw32/4.9.2/../../../../i686-w64-mingw32/lib/../lib/libkernel32.a(dkxs00612.o)
 .text          0x00000000        0x8 C:/Program Files/ETAS/ISOLAR-EVE3.0/plugins/com.etas.evetools.toolsfolder_1.4.5/Tools/MinGW/bin/../lib/gcc/i686-w64-mingw32/4.9.2/../../../../i686-w64-mingw32/lib/../lib/libkernel32.a(dkxs00581.o)
 .text          0x00000000        0x8 C:/Program Files/ETAS/ISOLAR-EVE3.0/plugins/com.etas.evetools.toolsfolder_1.4.5/Tools/MinGW/bin/../lib/gcc/i686-w64-mingw32/4.9.2/../../../../i686-w64-mingw32/lib/../lib/libkernel32.a(dkxs00533.o)
 .text          0x00000000        0x8 C:/Program Files/ETAS/ISOLAR-EVE3.0/plugins/com.etas.evetools.toolsfolder_1.4.5/Tools/MinGW/bin/../lib/gcc/i686-w64-mingw32/4.9.2/../../../../i686-w64-mingw32/lib/../lib/libkernel32.a(dkxs00515.o)
 .text          0x00000000        0x8 C:/Program Files/ETAS/ISOLAR-EVE3.0/plugins/com.etas.evetools.toolsfolder_1.4.5/Tools/MinGW/bin/../lib/gcc/i686-w64-mingw32/4.9.2/../../../../i686-w64-mingw32/lib/../lib/libkernel32.a(dkxs00479.o)
 .text          0x00000000        0x8 C:/Program Files/ETAS/ISOLAR-EVE3.0/plugins/com.etas.evetools.toolsfolder_1.4.5/Tools/MinGW/bin/../lib/gcc/i686-w64-mingw32/4.9.2/../../../../i686-w64-mingw32/lib/../lib/libkernel32.a(dkxs00457.o)
 .text          0x00000000        0x8 C:/Program Files/ETAS/ISOLAR-EVE3.0/plugins/com.etas.evetools.toolsfolder_1.4.5/Tools/MinGW/bin/../lib/gcc/i686-w64-mingw32/4.9.2/../../../../i686-w64-mingw32/lib/../lib/libkernel32.a(dkxs00453.o)
 .text          0x00000000        0x8 C:/Program Files/ETAS/ISOLAR-EVE3.0/plugins/com.etas.evetools.toolsfolder_1.4.5/Tools/MinGW/bin/../lib/gcc/i686-w64-mingw32/4.9.2/../../../../i686-w64-mingw32/lib/../lib/libkernel32.a(dkxs00452.o)
 .text          0x00000000        0x8 C:/Program Files/ETAS/ISOLAR-EVE3.0/plugins/com.etas.evetools.toolsfolder_1.4.5/Tools/MinGW/bin/../lib/gcc/i686-w64-mingw32/4.9.2/../../../../i686-w64-mingw32/lib/../lib/libkernel32.a(dkxs00356.o)
 .text          0x00000000        0x8 C:/Program Files/ETAS/ISOLAR-EVE3.0/plugins/com.etas.evetools.toolsfolder_1.4.5/Tools/MinGW/bin/../lib/gcc/i686-w64-mingw32/4.9.2/../../../../i686-w64-mingw32/lib/../lib/libkernel32.a(dkxs00351.o)
 .text          0x00000000        0x8 C:/Program Files/ETAS/ISOLAR-EVE3.0/plugins/com.etas.evetools.toolsfolder_1.4.5/Tools/MinGW/bin/../lib/gcc/i686-w64-mingw32/4.9.2/../../../../i686-w64-mingw32/lib/../lib/libkernel32.a(dkxs00283.o)
 .text          0x00000000        0x8 C:/Program Files/ETAS/ISOLAR-EVE3.0/plugins/com.etas.evetools.toolsfolder_1.4.5/Tools/MinGW/bin/../lib/gcc/i686-w64-mingw32/4.9.2/../../../../i686-w64-mingw32/lib/../lib/libkernel32.a(dkxs00239.o)
 .text          0x00000000        0x8 C:/Program Files/ETAS/ISOLAR-EVE3.0/plugins/com.etas.evetools.toolsfolder_1.4.5/Tools/MinGW/bin/../lib/gcc/i686-w64-mingw32/4.9.2/../../../../i686-w64-mingw32/lib/../lib/libkernel32.a(dkxs00212.o)
 .text          0x00000000        0x8 C:/Program Files/ETAS/ISOLAR-EVE3.0/plugins/com.etas.evetools.toolsfolder_1.4.5/Tools/MinGW/bin/../lib/gcc/i686-w64-mingw32/4.9.2/../../../../i686-w64-mingw32/lib/../lib/libkernel32.a(dkxs00176.o)
 .text          0x00000000        0x8 C:/Program Files/ETAS/ISOLAR-EVE3.0/plugins/com.etas.evetools.toolsfolder_1.4.5/Tools/MinGW/bin/../lib/gcc/i686-w64-mingw32/4.9.2/../../../../i686-w64-mingw32/lib/../lib/libkernel32.a(dkxs00173.o)
 .text          0x00000000        0x8 C:/Program Files/ETAS/ISOLAR-EVE3.0/plugins/com.etas.evetools.toolsfolder_1.4.5/Tools/MinGW/bin/../lib/gcc/i686-w64-mingw32/4.9.2/../../../../i686-w64-mingw32/lib/../lib/libkernel32.a(dkxs00158.o)
 .text          0x00000000        0x8 C:/Program Files/ETAS/ISOLAR-EVE3.0/plugins/com.etas.evetools.toolsfolder_1.4.5/Tools/MinGW/bin/../lib/gcc/i686-w64-mingw32/4.9.2/../../../../i686-w64-mingw32/lib/../lib/libkernel32.a(dkxs00140.o)
 .text          0x00000000        0x8 C:/Program Files/ETAS/ISOLAR-EVE3.0/plugins/com.etas.evetools.toolsfolder_1.4.5/Tools/MinGW/bin/../lib/gcc/i686-w64-mingw32/4.9.2/../../../../i686-w64-mingw32/lib/../lib/libkernel32.a(dkxs00083.o)

Memory Configuration

Name             Origin             Length             Attributes
*default*        0x00000000         0xffffffff

Linker script and memory map

                0x00400000                __image_base__ = 0x400000
                0x00000000                __dll__ = 0x0
                0x00400000                ___ImageBase = 0x400000
                0x00001000                __section_alignment__ = 0x1000
                0x00000200                __file_alignment__ = 0x200
                0x00000004                __major_os_version__ = 0x4
                0x00000000                __minor_os_version__ = 0x0
                0x00000001                __major_image_version__ = 0x1
                0x00000000                __minor_image_version__ = 0x0
                0x00000004                __major_subsystem_version__ = 0x4
                0x00000000                __minor_subsystem_version__ = 0x0
                0x00000003                __subsystem__ = 0x3
                0x00200000                __size_of_stack_reserve__ = 0x200000
                0x00001000                __size_of_stack_commit__ = 0x1000
                0x00100000                __size_of_heap_reserve__ = 0x100000
                0x00001000                __size_of_heap_commit__ = 0x1000
                0x00000000                __loader_flags__ = 0x0
                0x00000000                __dll_characteristics__ = 0x0
LOAD C:/Program Files/ETAS/ISOLAR-EVE3.0/plugins/com.etas.evetools.toolsfolder_1.4.5/Tools/MinGW/bin/../lib/gcc/i686-w64-mingw32/4.9.2/../../../../i686-w64-mingw32/lib/../lib/crt2.o
LOAD C:/Program Files/ETAS/ISOLAR-EVE3.0/plugins/com.etas.evetools.toolsfolder_1.4.5/Tools/MinGW/bin/../lib/gcc/i686-w64-mingw32/4.9.2/crtbegin.o
LOAD BswTasks.o
LOAD EVE_SystemClock.o
LOAD main.o
LOAD Os_ErrorHook.o
LOAD Os_Hooks.o
LOAD Rte.o
LOAD Rte_ACT_HIGHBEAM.o
LOAD Rte_ACT_LEFTRIGHT_MOTOR.o
LOAD Rte_ACT_LOWBEAM.o
LOAD Rte_ACT_UPDOWN_MOTOR.o
LOAD Rte_APP_HIGHBEAM.o
LOAD Rte_APP_LOWBEAM.o
LOAD Rte_APP_MOTOR.o
LOAD Rte_ECU_ABS_AFS.o
LOAD Rte_Lib.o
LOAD Rte_SENSOR_DISTANCE.o
LOAD Rte_SENSOR_LIGHT.o
LOAD Rte_SENSOR_LIGHTMODE.o
LOAD Rte_SENSOR_SPEED.o
LOAD Rte_SENSOR_STEERINGANGLE.o
LOAD TAKS_ECU_SPEED.o
LOAD target.o
LOAD TASK_ACT_HIGHBEAM_RECEIVE.o
LOAD TASK_ACT_HIGHBEAM_SEND.o
LOAD TASK_ACT_LEFTRIGHTANGLE_RECEIVE.o
LOAD TASK_ACT_LEFTRIGHTANGLE_SEND.o
LOAD TASK_ACT_LOWBEAM_RECEIVE.o
LOAD TASK_ACT_LOWBEAM_SEND.o
LOAD TASK_ACT_UPDOWNANGLE_RECEIVE.o
LOAD TASK_ACT_UPDOWNANGLE_SEND.o
LOAD TASK_APP_HIGHBEAM.o
LOAD TASK_APP_LOWBEAM.o
LOAD TASK_APP_MOTOR.o
LOAD TASK_ECU_ACTUATOR.o
LOAD TASK_ECU_DISTANCE.o
LOAD TASK_ECU_LIGHT.o
LOAD TASK_ECU_LIGHTMODE.o
LOAD TASK_EUC_STEERINGANGLE.o
LOAD TASK_SENSOR_DISTANCE.o
LOAD TASK_SENSOR_LIGHT.o
LOAD TASK_SENSOR_LIGHTMODE.o
LOAD TASK_SENSOR_SPEED.o
LOAD TASK_SENSOR_STEERINGANGLE.o
LOAD VECU_SystemClock_ISR.o
LOAD VirtualDevices.o
LOAD Vrta_Cfg.o
LOAD RTAOS.lib
LOAD C:/Program Files/ETAS/ISOLAR-EVE3.0/plugins/com.etas.evetools.toolsfolder_1.4.5/Tools/MinGW/bin/../lib/gcc/i686-w64-mingw32/4.9.2/../../../../i686-w64-mingw32/lib/../lib/libwinmm.a
LOAD C:/Program Files/ETAS/ISOLAR-EVE3.0/plugins/com.etas.evetools.toolsfolder_1.4.5/Tools/MinGW/bin/../lib/gcc/i686-w64-mingw32/4.9.2/../../../../i686-w64-mingw32/lib/../lib/libws2_32.a
LOAD C:/Program Files/ETAS/ISOLAR-EVE3.0/plugins/com.etas.evetools.toolsfolder_1.4.5/Tools/MinGW/bin/../lib/gcc/i686-w64-mingw32/4.9.2\libstdc++.a
LOAD C:/Program Files/ETAS/ISOLAR-EVE3.0/plugins/com.etas.evetools.toolsfolder_1.4.5/Tools/MinGW/bin/../lib/gcc/i686-w64-mingw32/4.9.2/../../../../i686-w64-mingw32/lib/../lib/libmingw32.a
LOAD C:/Program Files/ETAS/ISOLAR-EVE3.0/plugins/com.etas.evetools.toolsfolder_1.4.5/Tools/MinGW/bin/../lib/gcc/i686-w64-mingw32/4.9.2/libgcc.a
LOAD C:/Program Files/ETAS/ISOLAR-EVE3.0/plugins/com.etas.evetools.toolsfolder_1.4.5/Tools/MinGW/bin/../lib/gcc/i686-w64-mingw32/4.9.2/libgcc_eh.a
LOAD C:/Program Files/ETAS/ISOLAR-EVE3.0/plugins/com.etas.evetools.toolsfolder_1.4.5/Tools/MinGW/bin/../lib/gcc/i686-w64-mingw32/4.9.2/../../../../i686-w64-mingw32/lib/../lib/libmoldname.a
LOAD C:/Program Files/ETAS/ISOLAR-EVE3.0/plugins/com.etas.evetools.toolsfolder_1.4.5/Tools/MinGW/bin/../lib/gcc/i686-w64-mingw32/4.9.2/../../../../i686-w64-mingw32/lib/../lib/libmingwex.a
LOAD C:/Program Files/ETAS/ISOLAR-EVE3.0/plugins/com.etas.evetools.toolsfolder_1.4.5/Tools/MinGW/bin/../lib/gcc/i686-w64-mingw32/4.9.2/../../../../i686-w64-mingw32/lib/../lib/libmsvcrt.a
LOAD C:/Program Files/ETAS/ISOLAR-EVE3.0/plugins/com.etas.evetools.toolsfolder_1.4.5/Tools/MinGW/bin/../lib/gcc/i686-w64-mingw32/4.9.2/../../../../i686-w64-mingw32/lib/../lib/libadvapi32.a
LOAD C:/Program Files/ETAS/ISOLAR-EVE3.0/plugins/com.etas.evetools.toolsfolder_1.4.5/Tools/MinGW/bin/../lib/gcc/i686-w64-mingw32/4.9.2/../../../../i686-w64-mingw32/lib/../lib/libshell32.a
LOAD C:/Program Files/ETAS/ISOLAR-EVE3.0/plugins/com.etas.evetools.toolsfolder_1.4.5/Tools/MinGW/bin/../lib/gcc/i686-w64-mingw32/4.9.2/../../../../i686-w64-mingw32/lib/../lib/libuser32.a
LOAD C:/Program Files/ETAS/ISOLAR-EVE3.0/plugins/com.etas.evetools.toolsfolder_1.4.5/Tools/MinGW/bin/../lib/gcc/i686-w64-mingw32/4.9.2/../../../../i686-w64-mingw32/lib/../lib/libkernel32.a
LOAD C:/Program Files/ETAS/ISOLAR-EVE3.0/plugins/com.etas.evetools.toolsfolder_1.4.5/Tools/MinGW/bin/../lib/gcc/i686-w64-mingw32/4.9.2/../../../../i686-w64-mingw32/lib/../lib/libiconv.a
LOAD C:/Program Files/ETAS/ISOLAR-EVE3.0/plugins/com.etas.evetools.toolsfolder_1.4.5/Tools/MinGW/bin/../lib/gcc/i686-w64-mingw32/4.9.2/../../../../i686-w64-mingw32/lib/../lib/libmingw32.a
LOAD C:/Program Files/ETAS/ISOLAR-EVE3.0/plugins/com.etas.evetools.toolsfolder_1.4.5/Tools/MinGW/bin/../lib/gcc/i686-w64-mingw32/4.9.2/libgcc.a
LOAD C:/Program Files/ETAS/ISOLAR-EVE3.0/plugins/com.etas.evetools.toolsfolder_1.4.5/Tools/MinGW/bin/../lib/gcc/i686-w64-mingw32/4.9.2/libgcc_eh.a
LOAD C:/Program Files/ETAS/ISOLAR-EVE3.0/plugins/com.etas.evetools.toolsfolder_1.4.5/Tools/MinGW/bin/../lib/gcc/i686-w64-mingw32/4.9.2/../../../../i686-w64-mingw32/lib/../lib/libmoldname.a
LOAD C:/Program Files/ETAS/ISOLAR-EVE3.0/plugins/com.etas.evetools.toolsfolder_1.4.5/Tools/MinGW/bin/../lib/gcc/i686-w64-mingw32/4.9.2/../../../../i686-w64-mingw32/lib/../lib/libmingwex.a
LOAD C:/Program Files/ETAS/ISOLAR-EVE3.0/plugins/com.etas.evetools.toolsfolder_1.4.5/Tools/MinGW/bin/../lib/gcc/i686-w64-mingw32/4.9.2/../../../../i686-w64-mingw32/lib/../lib/libmsvcrt.a
LOAD C:/Program Files/ETAS/ISOLAR-EVE3.0/plugins/com.etas.evetools.toolsfolder_1.4.5/Tools/MinGW/bin/../lib/gcc/i686-w64-mingw32/4.9.2/crtend.o
                0x000003f8                . = SIZEOF_HEADERS
                0x00001000                . = ALIGN (__section_alignment__)

.text           0x00401000    0x21600
 *(.init)
 *(.text)
 .text          0x00401000      0x500 C:/Program Files/ETAS/ISOLAR-EVE3.0/plugins/com.etas.evetools.toolsfolder_1.4.5/Tools/MinGW/bin/../lib/gcc/i686-w64-mingw32/4.9.2/../../../../i686-w64-mingw32/lib/../lib/crt2.o
                0x004014c0                WinMainCRTStartup
                0x004014e0                mainCRTStartup
 .text          0x00401500      0x110 C:/Program Files/ETAS/ISOLAR-EVE3.0/plugins/com.etas.evetools.toolsfolder_1.4.5/Tools/MinGW/bin/../lib/gcc/i686-w64-mingw32/4.9.2/crtbegin.o
                0x00401500                __gcc_register_frame
                0x004015b0                __gcc_deregister_frame
 .text          0x00401610        0x0 BswTasks.o
 .text          0x00401610      0x1a0 EVE_SystemClock.o
                0x00401610                VECU_SystemClock_Init
                0x0040167c                VECU_SystemClock_Start
                0x004016c0                VECU_SystemClock_GetValue
 .text          0x004017b0       0x4c main.o
                0x004017b0                StartAUTOSAR
                0x004017ea                vrta_app_main
 .text          0x004017fc       0x3c Os_ErrorHook.o
                0x004017fc                ErrorHook
 .text          0x00401838       0x7c Os_Hooks.o
                0x00401838                StartupHook
                0x00401845                ShutdownHook
                0x00401853                Os_Cbk_Idle
                0x0040188c                Os_Cbk_GetStopwatch
                0x0040189f                Os_Cbk_CheckMemoryAccess
 .text          0x004018b4      0x968 Rte.o
                0x004018b4                Rte_DRead_ACT_HIGHBEAM_R_HIGHBEAMMODE_FROM_APP_HIGHBEAM_VDP_APP_TO_ACT
                0x004018d1                Rte_IrvRead_ACT_HIGHBEAM_RE_HIGHBEAM_SEND_Explicit_VariableDataPrototype_0
                0x004018e4                Rte_IrvWrite_ACT_HIGHBEAM_RE_HIGHBEAM_RECEIVE_Explicit_VariableDataPrototype_0
                0x004018f1                Rte_DRead_ACT_LEFTRIGHT_MOTOR_R_LEFTRIGHTANGLE_FROM_APP_MOTOR_VDP_APP_TO_ACT
                0x0040190e                Rte_IrvRead_ACT_LEFTRIGHT_MOTOR_RE_LEFTRIGHTANGLE_SEND_Explicit_VariableDataPrototype_0
                0x00401921                Rte_IrvWrite_ACT_LEFTRIGHT_MOTOR_RE_LEFTRIGHTANGLE_RECEIVE_Explicit_VariableDataPrototype_0
                0x0040192e                Rte_DRead_ACT_LOWBEAM_R_LOWBEAMMODE_FROM_APP_LOWBEAM_VDP_APP_TO_ACT
                0x0040194b                Rte_IrvRead_ACT_LOWBEAM_RE_LOWBEAM_SEND_Explicit_VariableDataPrototype_0
                0x0040195e                Rte_IrvWrite_ACT_LOWBEAM_RE_LOWBEAM_RECEIVE_Explicit_VariableDataPrototype_0
                0x0040196b                Rte_DRead_ACT_UPDOWN_MOTOR_R_UPDOWNANGLE_FROM_APP_MOTOR_VDP_APP_TO_ACT
                0x00401988                Rte_IrvRead_ACT_UPDOWN_MOTOR_RE_UPDOWNANGLE_SEND_Explicit_VariableDataPrototype_0
                0x0040199b                Rte_IrvWrite_ACT_UPDOWN_MOTOR_RE_UPDOWNANGLE_RECEIVE_Explicit_VariableDataPrototype_0
                0x004019a8                Rte_Read_APP_HIGHBEAM_R_DISTANCE_FROM_SENSOR_DISTANCE_VDP_SENSOR_TO_APP
                0x004019c3                Rte_Read_APP_HIGHBEAM_R_LIGHTMODE_FROM_SENSOR_LIGHTMODE_VDP_SENSOR_TO_APP
                0x004019de                Rte_Write_APP_HIGHBEAM_P_HIGHBEAMMODE_TO_ACT_HIGHBEAM_VDP_APP_TO_ACT
                0x00401a20                Rte_DRead_APP_LOWBEAM_R_DISTANCE_FROM_SENSOR_DISTANCE_VDP_SENSOR_TO_APP
                0x00401a3d                Rte_DRead_APP_LOWBEAM_R_LIGHTMODE_FROM_SENSOR_LIGHTMODE_VDP_SENSOR_TO_APP
                0x00401a5a                Rte_DRead_APP_LOWBEAM_R_LIGHT_FROM_SENSOR_LIGHT_VDP_SENSOR_TO_APP
                0x00401a77                Rte_DRead_APP_LOWBEAM_R_SPEED_FROM_SENSOR_SPEED_VDP_SENSOR_TO_APP
                0x00401a94                Rte_Write_APP_LOWBEAM_P_LOWBEAMMODE_TO_ACT_LOWBEAM_VDP_APP_TO_ACT
                0x00401ad6                Rte_DRead_APP_MOTOR_R_SPEED_FROM_SENSOR_SPEED_VDP_SENSOR_TO_APP
                0x00401af3                Rte_DRead_APP_MOTOR_R_STEERING_FROM_SENSOR_STEERINGANGLE_VDP_SENSOR_TO_APP
                0x00401b10                Rte_Write_APP_MOTOR_P_LEFTRIGHTANGLE_TO_ACT_LEFTRIGHT_MOTOR_VDP_APP_TO_ACT
                0x00401b52                Rte_Write_APP_MOTOR_P_UPDOWNANGLE_TO_ACT_UPDOWN_MOTOR_VDP_APP_TO_ACT
                0x00401b94                Rte_Call_ECU_ABS_AFS_R_HIGHBEAMMODE_FROM_ACT_HIGHBEAM_OPER_ACT_TO_ECU
                0x00401bef                Rte_Call_ECU_ABS_AFS_R_LEFTRIGHTANGLE_FROM_ACT_LEFTRIGHT_MOTOR_OPER_ACT_TO_ECU
                0x00401c4a                Rte_Call_ECU_ABS_AFS_R_LOWBEAMMODE_FROM_ACT_LOWBEAM_OPER_ACT_TO_ECU
                0x00401ca5                Rte_Call_ECU_ABS_AFS_R_UPDOWNANGLE_FROM_ACT_UPDOWN_MOTOR_OPER_ACT_TO_ECU
                0x00401d00                Rte_Call_SENSOR_DISTANCE_R_DISTANCE_FROM_ECU_ABS_AFS_OPER_ECU_TO_SENSOR
                0x00401d58                Rte_Result_SENSOR_DISTANCE_R_DISTANCE_FROM_ECU_ABS_AFS_OPER_ECU_TO_SENSOR
                0x00401d88                Rte_Write_SENSOR_DISTANCE_P_DISTANCE_TO_APP_HIGHBEAM_VDP_SENSOR_TO_APP
                0x00401dd4                Rte_Write_SENSOR_DISTANCE_P_DISTANCE_TO_APP_LOWBEAM_VDP_SENSOR_TO_APP
                0x00401e20                Rte_Call_SENSOR_LIGHT_R_LIGHT_FROM_ECU_ABS_AFS_OPER_ECU_TO_SENSOR
                0x00401e78                Rte_Result_SENSOR_LIGHT_R_LIGHT_FROM_ECU_ABS_AFS_OPER_ECU_TO_SENSOR
                0x00401ea8                Rte_Write_SENSOR_LIGHT_P_LIGHT_TO_APP_LOWBEAM_VDP_SENSOR_TO_APP
                0x00401ef4                Rte_Call_SENSOR_LIGHTMODE_R_LIGHTMODE_FROM_ECU_ABS_AFS_OPER_ECU_TO_SENSOR
                0x00401f4c                Rte_Result_SENSOR_LIGHTMODE_R_LIGHTMODE_FROM_ECU_ABS_AFS_OPER_ECU_TO_SENSOR
                0x00401f7c                Rte_Write_SENSOR_LIGHTMODE_P_LIGHTMODE_TO_APP_HIGHBEAM_VDP_SENSOR_TO_APP
                0x00401fc8                Rte_Write_SENSOR_LIGHTMODE_P_LIGHTMODE_TO_APP_LOWBEAM_VDP_SENSOR_TO_APP
                0x00402014                Rte_Call_SENSOR_SPEED_R_SPEED_FROM_ECU_ABS_AFS_OPER_ECU_TO_SENSOR
                0x0040206c                Rte_Result_SENSOR_SPEED_R_SPEED_FROM_ECU_ABS_AFS_OPER_ECU_TO_SENSOR
                0x0040209c                Rte_Write_SENSOR_SPEED_P_SPEED_TO_APP_LOWBEAM_VDP_SENSOR_TO_APP
                0x004020e8                Rte_Write_SENSOR_SPEED_P_SPEED_TO_APP_MOTOR_VDP_SENSOR_TO_APP
                0x00402134                Rte_Call_SENSOR_STEERINGANGLE_R_STEERINGANGLE_FROM_ECU_ABS_AFS_OPER_ECU_TO_SENSOR
                0x0040218c                Rte_Result_SENSOR_STEERINGANGLE_R_STEERINGANGLE_FROM_ECU_ABS_AFS_OPER_ECU_TO_SENSOR
                0x004021bc                Rte_Write_SENSOR_STEERINGANGLE_P_STEERINGANGLE_TO_APP_MOTOR_VDP_SENSOR_TO_APP
                0x00402208                Os_Cbk_Alarm_Rte_NullAlarmCallback
                0x0040220d                Rte_Tick_Timeouts
 .text          0x0040221c       0x30 Rte_ACT_HIGHBEAM.o
                0x0040221c                RE_HIGHBEAM_RECEIVE
                0x00402234                RE_HIGHBEAM_SEND
 .text          0x0040224c       0x30 Rte_ACT_LEFTRIGHT_MOTOR.o
                0x0040224c                RE_LEFTRIGHTANGLE_RECEIVE
                0x00402264                RE_LEFTRIGHTANGLE_SEND
 .text          0x0040227c       0x38 Rte_ACT_LOWBEAM.o
                0x0040227c                RE_LOWBEAM_RECEIVE
                0x0040229b                RE_LOWBEAM_SEND
 .text          0x004022b4       0x30 Rte_ACT_UPDOWN_MOTOR.o
                0x004022b4                RE_UPDOWNANGLE_RECEIVE
                0x004022cc                RE_UPDOWNANGLE_SEND
 .text          0x004022e4       0x68 Rte_APP_HIGHBEAM.o
                0x004022e4                RE_HIGHBEAM
 .text          0x0040234c      0x248 Rte_APP_LOWBEAM.o
                0x0040234c                getVoltage
                0x004023a8                sort
                0x00402414                distance_sort
                0x00402480                RE_LOWBEAM
 .text          0x00402594       0x98 Rte_APP_MOTOR.o
                0x00402594                RE_MOTOR
 .text          0x0040262c      0x204 Rte_ECU_ABS_AFS.o
                0x0040262c                RE_ECU_DISTANCE
                0x00402640                RE_ECU_LIGHT
                0x00402654                RE_ECU_LIGHTMODE
                0x00402668                RE_ECU_SPEED
                0x0040267c                RE_ECU_STEERINGANGLE
                0x00402690                RE_ECU_ACTUATOR
 .text          0x00402830      0x708 Rte_Lib.o
                0x00402830                Rte_ActivateRE
                0x0040287c                Rte_DecrementWaitingCount
                0x00402916                Rte_GetCurrentTaskIndex
                0x0040296b                Rte_MainFunction
                0x00402970                Rte_ReadQueue
                0x00402a81                Rte_SetEvent
                0x00402b1a                Rte_Start
                0x00402b4d                Rte_Stop
                0x00402b78                SchM_Init
                0x00402b8f                SchM_Deinit
                0x00402ba6                Rte_WaitWithTimeout
                0x00402d3b                Rte_WriteQueue
 .text          0x00402f38       0x3c Rte_SENSOR_DISTANCE.o
                0x00402f38                RE_DISTANCE
 .text          0x00402f74       0x30 Rte_SENSOR_LIGHT.o
                0x00402f74                RE_LIGHT
 .text          0x00402fa4       0x3c Rte_SENSOR_LIGHTMODE.o
                0x00402fa4                RE_LIGHTMODE
 .text          0x00402fe0       0x3c Rte_SENSOR_SPEED.o
                0x00402fe0                RE_SPEED
 .text          0x0040301c       0x30 Rte_SENSOR_STEERINGANGLE.o
                0x0040301c                RE_STEERINGANGLE
 .text          0x0040304c       0x5c TAKS_ECU_SPEED.o
                0x0040304c                Os_Entry_TAKS_ECU_SPEED
 .text          0x004030a8       0x78 target.o
                0x004030a8                InitializeDevices()
                0x004030b5                TargetInit
                0x004030c2                TargetEnableInterrupts
                0x00403112                TargetReadClock
 .text          0x00403120       0x24 TASK_ACT_HIGHBEAM_RECEIVE.o
                0x00403120                Os_Entry_TASK_ACT_HIGHBEAM_RECEIVE
 .text          0x00403144       0x54 TASK_ACT_HIGHBEAM_SEND.o
                0x00403144                Os_Entry_TASK_ACT_HIGHBEAM_SEND
 .text          0x00403198       0x24 TASK_ACT_LEFTRIGHTANGLE_RECEIVE.o
                0x00403198                Os_Entry_TASK_ACT_LEFTRIGHTANGLE_RECEIVE
 .text          0x004031bc       0x54 TASK_ACT_LEFTRIGHTANGLE_SEND.o
                0x004031bc                Os_Entry_TASK_ACT_LEFTRIGHTANGLE_SEND
 .text          0x00403210       0x24 TASK_ACT_LOWBEAM_RECEIVE.o
                0x00403210                Os_Entry_TASK_ACT_LOWBEAM_RECEIVE
 .text          0x00403234       0x54 TASK_ACT_LOWBEAM_SEND.o
                0x00403234                Os_Entry_TASK_ACT_LOWBEAM_SEND
 .text          0x00403288       0x24 TASK_ACT_UPDOWNANGLE_RECEIVE.o
                0x00403288                Os_Entry_TASK_ACT_UPDOWNANGLE_RECEIVE
 .text          0x004032ac       0x54 TASK_ACT_UPDOWNANGLE_SEND.o
                0x004032ac                Os_Entry_TASK_ACT_UPDOWNANGLE_SEND
 .text          0x00403300       0x3c TASK_APP_HIGHBEAM.o
                0x00403300                Os_Entry_TASK_APP_HIGHBEAM
 .text          0x0040333c       0x6c TASK_APP_LOWBEAM.o
                0x0040333c                Os_Entry_TASK_APP_LOWBEAM
 .text          0x004033a8       0x3c TASK_APP_MOTOR.o
                0x004033a8                Os_Entry_TASK_APP_MOTOR
 .text          0x004033e4       0x28 TASK_ECU_ACTUATOR.o
                0x004033e4                Os_Entry_TASK_ECU_ACTUATOR
 .text          0x0040340c       0x5c TASK_ECU_DISTANCE.o
                0x0040340c                Os_Entry_TASK_ECU_DISTANCE
 .text          0x00403468       0x5c TASK_ECU_LIGHT.o
                0x00403468                Os_Entry_TASK_ECU_LIGHT
 .text          0x004034c4       0x5c TASK_ECU_LIGHTMODE.o
                0x004034c4                Os_Entry_TASK_ECU_LIGHTMODE
 .text          0x00403520       0x5c TASK_EUC_STEERINGANGLE.o
                0x00403520                Os_Entry_TASK_EUC_STEERINGANGLE
 .text          0x0040357c       0x14 TASK_SENSOR_DISTANCE.o
                0x0040357c                Os_Entry_TASK_SENSOR_DISTANCE
 .text          0x00403590       0x14 TASK_SENSOR_LIGHT.o
                0x00403590                Os_Entry_TASK_SENSOR_LIGHT
 .text          0x004035a4       0x14 TASK_SENSOR_LIGHTMODE.o
                0x004035a4                Os_Entry_TASK_SENSOR_LIGHTMODE
 .text          0x004035b8       0x14 TASK_SENSOR_SPEED.o
                0x004035b8                Os_Entry_TASK_SENSOR_SPEED
 .text          0x004035cc       0x14 TASK_SENSOR_STEERINGANGLE.o
                0x004035cc                Os_Entry_TASK_SENSOR_STEERINGANGLE
 .text          0x004035e0       0x54 VECU_SystemClock_ISR.o
                0x004035e0                Os_Entry_VECU_SystemClock_ISR
 .text          0x00403634      0x25c VirtualDevices.o
                0x00403634                initSensor
                0x004036a0                GetDistanceSensor
                0x004036af                GetSteeringAngleSensor
                0x004036be                GetSpeedSensor
                0x004036cd                GetLightSensor
                0x004036dc                GetLightModeSensor
                0x004036eb                SetUPDOWNMotorActuator
                0x00403706                SetLEFTRIGHTMotorActuator
                0x00403721                SetLowBeamActuator
                0x0040373c                SetHighBeamActuator
                0x00403757                status_printf
 .text          0x00403890       0xd4 Vrta_Cfg.o
                0x00403890                vrtaActionHandler
                0x00403908                EnableVrtaFlash
                0x00403915                EnableVrtaPort
                0x00403922                EnableVrtaAdc
                0x0040392f                EnableVrtaPwm
                0x0040393c                EnableVrtaIcu
                0x00403949                EnableVrtaCan
                0x00403956                EnableVrtaCanTrcv
 *fill*         0x00403964        0xc 
 .text          0x00403970       0xd0 RTAOS.lib(ActivateTask.o)
                0x00403970                Os_ActivateTask
 .text          0x00403a40       0x50 RTAOS.lib(CancelAlarm.o)
                0x00403a40                Os_CancelAlarm
 .text          0x00403a90       0x40 RTAOS.lib(ClearEvent.o)
                0x00403a90                Os_ClearEvent
 .text          0x00403ad0      0x240 RTAOS.lib(DispatchTask.o)
                0x00403ad0                Os_Dispatch
 .text          0x00403d10       0x40 RTAOS.lib(GetEvent.o)
                0x00403d10                Os_GetEvent
 .text          0x00403d50       0x20 RTAOS.lib(GetISRID.o)
                0x00403d50                Os_GetISRID
 .text          0x00403d70       0x80 RTAOS.lib(GetResource.o)
                0x00403d70                Os_GetResource
 .text          0x00403df0       0x20 RTAOS.lib(GetTaskID.o)
                0x00403df0                Os_GetTaskID
 .text          0x00403e10      0x180 RTAOS.lib(Os_Cfg.o)
                0x00403e10                Os_StartOS_DataInit
                0x00403f70                Os_StartOS_StartAuto
 .text          0x00403f90      0x3c0 RTAOS.lib(Os_Cfg_Counters.o)
                0x00403f90                Os_IncrementCounter_Rte_TOutCounter
                0x004040c0                Os_CounterRelativeStart
                0x004040f0                Os_ActivateTaskKL
                0x004042b0                Os_IncrementCounter_Rte_TickCounter
 .text          0x00404350       0x10 RTAOS.lib(Os_fsb.o)
                0x00404350                @Os_fsb@4
 .text          0x00404360       0x40 RTAOS.lib(Os_SetJmp.o)
                0x00404360                Os_SetJmp
                0x00404380                Os_LongJmp
 .text          0x004043a0       0x40 RTAOS.lib(Os_Stack.o)
                0x004043a0                Os_GetSP
                0x004043b0                Os_ExtendStack
 .text          0x004043e0       0x70 RTAOS.lib(ReleaseResource.o)
                0x004043e0                Os_ReleaseResource
 .text          0x00404450       0x50 RTAOS.lib(ResumeOSInterrupts.o)
                0x00404450                Os_ResumeOSInterrupts
 .text          0x004044a0      0x160 RTAOS.lib(SetEvent.o)
                0x004044a0                Os_SetEvent
                0x00404580                Os_SetEventKL
 .text          0x00404600       0xb0 RTAOS.lib(SetRelAlarm.o)
                0x00404600                Os_SetRelAlarm
 .text          0x004046b0       0x90 RTAOS.lib(StartOS.o)
                0x004046b0                Os_StartOS
 .text          0x00404740       0x90 RTAOS.lib(StartScheduleTableRel.o)
                0x00404740                Os_StartScheduleTableRel
 .text          0x004047d0       0x50 RTAOS.lib(StopScheduleTable.o)
                0x004047d0                Os_StopScheduleTable
 .text          0x00404820       0x70 RTAOS.lib(SuspendOSInterrupts.o)
                0x00404820                Os_SuspendOSInterrupts
 .text          0x00404890       0x60 RTAOS.lib(TerminateTask.o)
                0x00404890                Os_TerminateTask
 .text          0x004048f0       0x70 RTAOS.lib(vrtaAppMain.o)
                0x004048f0                vrtaFireISR
 .text          0x00404960     0x1070 RTAOS.lib(vrtaCore.o)
                0x00405210                vrtaDevice::WriteToPersistentStorage(unsigned short*, unsigned char**)
                0x00405260                vrtaDevice::ReadFromPersistentStorage(unsigned short*, unsigned char**)
                0x004052d0                vrtaReadHPTime
                0x00405340                vrtaReadHPCycles
                0x00405370                vrtaLoadVM
                0x00405390                vrtaUnloadVM()
                0x004053a0                vrtaSendAction
                0x004053b0                vrtaRaiseEvent
                0x004053c0                vrtaGetState
                0x004053d0                vrtaEventRegister
                0x004053e0                vrtaEventUnregister
                0x004053f0                vrtaHookEvent
                0x00405410                vrtaHookEventNotifications
                0x00405420                vrtaStart
                0x00405430                vrtaStartCore
                0x00405470                vrtaGetCoreICUID
                0x004054a0                vrtaTerminate
                0x00405510                vrtaReset
                0x00405520                vrtaEnterUninterruptibleSection
                0x00405530                vrtaLeaveUninterruptibleSection
                0x00405540                vrtaEnterGlobalUninterruptibleSection
                0x00405560                vrtaLeaveGlobalUninterruptibleSection
                0x00405580                vrtaIsIdle
                0x004055f0                vrtaLowPowerIdleEnable
                0x00405600                vrtaLowPowerIdleEnabled
                0x00405610                vrtaLowPowerIdle
                0x00405640                vrtaYield
                0x00405670                vrtaSpawnThread
                0x00405680                vrtaInitialize
                0x004056b0                vrtaAddCore
                0x004056e0                vrtaGetCoreID
                0x00405700                vrtaRegisterVirtualDevice
                0x00405710                vrtaIsAppThread
                0x00405720                vrtaIsAppFinished
                0x00405730                vrtaIsAppRunning
                0x00405740                vrtaNoneUserThread
                0x00405750                vrtaCoreCount
                0x00405770                vrtaOSGetUserStackBase
                0x00405780                vrtaOSSetInterruptDeferVar
                0x00405790                vrtaOSSetIPL
                0x004057a0                vrtaOSGetIPL
                0x004057b0                vrtaOSSetIrqMask
                0x004057c0                vrtaOSClearIrqMask
                0x004057d0                vrtaOSSetIrqPending
                0x004057e0                vrtaOSClearIrqPending
                0x004057f0                vrtaOSIsIrqPending
                0x00405800                vrtaDevice::vrtaDevice(char*, char*, char*, char*)
                0x00405800                vrtaDevice::vrtaDevice(char*, char*, char*, char*)
                0x004058a0                vrtaDevice::AssignCore(unsigned short)
                0x004058c0                vrtaDevice::RaiseEvent(vrtaEvent&)
                0x004058e0                vrtaDevice::GetState(unsigned short, vrtaEvent&)
                0x00405900                vrtaDevice::SendAction(unsigned short, vrtaAction&)
                0x00405920                vrtaDevice::RaiseInterrupt(unsigned int)
                0x004059a0                vrtaDevice::SpawnThread(void (*)())
                0x004059c0                vrtaDevice::PersistThroughReset(int)
 .text          0x004059d0       0xb0 RTAOS.lib(vrtaIdleHandling.o)
                0x004059d0                vrtaIdleSubscriber::vrtaIdleSubscriber()
                0x004059d0                vrtaIdleSubscriber::vrtaIdleSubscriber()
                0x004059e0                vrtaIdleSubscriber::Subscribe(vrtaIdleSubscriber*)
                0x00405a00                vrtaRunIdleHandlers
 .text          0x00405a80      0x980 RTAOS.lib(vrtaLoggerDevice.o)
                0x00405a80                Logger::GetPersistentDataSize()
                0x00405a90                Logger::GetPersistentData()
                0x00405aa0                Logger::Starting()
                0x00405bd0                Logger::SetPersistentData(unsigned char*, unsigned short)
                0x00405c00                Logger::AsyncGetState(vrtaEvent*)
                0x00405cd0                Logger::Logger(char*)
                0x00405cd0                Logger::Logger(char*)
                0x00405d50                Logger::Logger(char*, Logger&)
                0x00405d50                Logger::Logger(char*, Logger&)
                0x00405dc0                Logger::setfile(char*)
                0x00405ed0                Logger::Logger(char*, char*)
                0x00405ed0                Logger::Logger(char*, char*)
                0x00405f50                Logger::setduplicate(char*)
                0x00406060                Logger::Logger(char*, char*, char*)
                0x00406060                Logger::Logger(char*, char*, char*)
                0x004060f0                Logger::Stopping()
                0x00406120                Logger::UpdateText()
                0x00406220                Logger::print(char*)
                0x00406290                Logger::OnAction(vrtaAction const*)
                0x004062f0                Logger::print(char*, unsigned int)
                0x00406370                Logger::printf(char*, char*)
                0x004063d0                Logger::printf(char*, ...)
 .text          0x00406400       0x50 RTAOS.lib(vrtaOSMonitorDevice.o)
                0x00406400                OSIdleHandler::Idle(unsigned int)
                0x00406440                EnableOsMonitor
 .text          0x00406450     0x1ba0 RTAOS.lib(vrtaSampleDevices.o)
                0x00406450                vrtaBaseClock::SetPersistentData(unsigned char*, unsigned short)
                0x00406470                vrtaBaseClock::Starting()
                0x00406480                vrtaClock::initialize_clock()
                0x004064a0                vrtaComparable::SetPersistentData(unsigned char*, unsigned short)
                0x004064b0                vrtaCounter::SetPersistentData(unsigned char*, unsigned short)
                0x004064e0                vrtaCounter::Starting()
                0x004064f0                vrtaCounter::Stopping()
                0x00406500                vrtaCompare::SetPersistentData(unsigned char*, unsigned short)
                0x00406510                vrtaCompare::OnAction(vrtaAction const*)
                0x00406550                vrtaSensor::SetPersistentData(unsigned char*, unsigned short)
                0x00406570                vrtaSensor::AsyncGetState(vrtaEvent*)
                0x004065d0                vrtaActuator::SetPersistentData(unsigned char*, unsigned short)
                0x004065f0                vrtaActuator::AsyncGetState(vrtaEvent*)
                0x00406650                vrtaIO::GetPersistentDataSize()
                0x00406660                vrtaIO::GetPersistentData()
                0x00406670                vrtaIO::OnAction(vrtaAction const*)
                0x00406790                vrtaClock::ResetClock()
                0x00406800                vrtaIO::Stopping()
                0x00406830                vrtaIO::SetPersistentData(unsigned char*, unsigned short)
                0x00406870                vrtaIO::AsyncGetState(vrtaEvent*)
                0x00406920                vrtaBaseClock::Tick()
                0x00406940                non-virtual thunk to vrtaBaseClock::Tick()
                0x00406950                vrtaAdaptiveClock::Tick()
                0x00406980                non-virtual thunk to vrtaAdaptiveClock::Tick()
                0x00406990                vrtaClock::Stopping()
                0x004069d0                vrtaIO::Starting()
                0x00406a30                vrtaCounter::AsyncGetState(vrtaEvent*)
                0x00406a90                vrtaCompare::AsyncGetState(vrtaEvent*)
                0x00406af0                vrtaBaseClock::Start()
                0x00406b90                vrtaClock::Stop()
                0x00406c40                vrtaBaseClock::AsyncGetState(vrtaEvent*)
                0x00406cd0                vrtaBaseClock::vrtaBaseClock(char*, unsigned int, char*, char*, char*, bool)
                0x00406cd0                vrtaBaseClock::vrtaBaseClock(char*, unsigned int, char*, char*, char*, bool)
                0x00406d40                vrtaBaseClock::vrtaBaseClock(char*, unsigned int, bool)
                0x00406d40                vrtaBaseClock::vrtaBaseClock(char*, unsigned int, bool)
                0x00406db0                vrtaBaseClock::~vrtaBaseClock()
                0x00406db0                vrtaBaseClock::~vrtaBaseClock()
                0x00406e00                non-virtual thunk to vrtaBaseClock::~vrtaBaseClock()
                0x00406e10                vrtaBaseClock::~vrtaBaseClock()
                0x00406e30                non-virtual thunk to vrtaBaseClock::~vrtaBaseClock()
                0x00406e40                vrtaBaseClock::SetInterval(unsigned int)
                0x00406ee0                vrtaBaseClock::SetScale(unsigned int, unsigned int)
                0x00406fc0                vrtaBaseClock::OnAction(vrtaAction const*)
                0x00407050                vrtaAdaptiveClock::OnAction(vrtaAction const*)
                0x00407090                vrtaClock::vrtaClock(char*, unsigned int, bool)
                0x00407090                vrtaClock::vrtaClock(char*, unsigned int, bool)
                0x004070f0                vrtaClock::vrtaClock(char*, unsigned int, char*, char*, char*, bool)
                0x004070f0                vrtaClock::vrtaClock(char*, unsigned int, char*, char*, char*, bool)
                0x00407160                vrtaAdaptiveClock::vrtaAdaptiveClock(char*, unsigned int, bool)
                0x00407160                vrtaAdaptiveClock::vrtaAdaptiveClock(char*, unsigned int, bool)
                0x004071e0                vrtaAdaptiveClock::InjectTick()
                0x00407230                vrtaCounter::vrtaCounter(char*, char*, vrtaBaseClock&)
                0x00407230                vrtaCounter::vrtaCounter(char*, char*, vrtaBaseClock&)
                0x004072a0                vrtaCounter::Start()
                0x004072b0                vrtaCounter::Stop()
                0x004072c0                vrtaCompare::vrtaCompare(char*, vrtaComparable&, unsigned int, unsigned int)
                0x004072c0                vrtaCompare::vrtaCompare(char*, vrtaComparable&, unsigned int, unsigned int)
                0x00407320                vrtaCompare::SetMatch(unsigned int)
                0x00407330                vrtaCompare::SetVector(unsigned int)
                0x00407340                vrtaCompare::NewValue(unsigned int)
                0x00407420                vrtaComparable::CheckComparators()
                0x00407440                vrtaCounter::SetMin(unsigned int)
                0x004074a0                vrtaCounter::SetMax(unsigned int)
                0x00407500                vrtaCounter::OnAction(vrtaAction const*)
                0x00407610                vrtaCounter::SetVal(unsigned int)
                0x00407670                vrtaUpCounter::Tick()
                0x004076e0                vrtaDownCounter::Tick()
                0x00407750                vrtaSensor::SetVal(unsigned int)
                0x00407800                vrtaActuator::SetVal(unsigned int)
                0x004078b0                vrtaSensor::vrtaSensor(char*)
                0x004078b0                vrtaSensor::vrtaSensor(char*)
                0x00407900                vrtaSensor::vrtaSensor(char*, char*, char*, char*)
                0x00407900                vrtaSensor::vrtaSensor(char*, char*, char*, char*)
                0x00407950                vrtaSensor::SetMax(unsigned int)
                0x00407a70                vrtaSensor::OnAction(vrtaAction const*)
                0x00407ad0                vrtaSensorToggleSwitch::vrtaSensorToggleSwitch(char*)
                0x00407ad0                vrtaSensorToggleSwitch::vrtaSensorToggleSwitch(char*)
                0x00407b20                vrtaSensorMultiwaySwitch::vrtaSensorMultiwaySwitch(char*, unsigned int)
                0x00407b20                vrtaSensorMultiwaySwitch::vrtaSensorMultiwaySwitch(char*, unsigned int)
                0x00407b70                vrtaActuator::vrtaActuator(char*)
                0x00407b70                vrtaActuator::vrtaActuator(char*)
                0x00407bc0                vrtaActuator::vrtaActuator(char*, char*)
                0x00407bc0                vrtaActuator::vrtaActuator(char*, char*)
                0x00407c10                vrtaActuator::SetMax(unsigned int)
                0x00407d30                vrtaActuator::OnAction(vrtaAction const*)
                0x00407d90                vrtaActuatorLight::vrtaActuatorLight(char*)
                0x00407d90                vrtaActuatorLight::vrtaActuatorLight(char*)
                0x00407de0                vrtaActuatorDimmableLight::vrtaActuatorDimmableLight(char*, unsigned int)
                0x00407de0                vrtaActuatorDimmableLight::vrtaActuatorDimmableLight(char*, unsigned int)
                0x00407e30                vrtaActuatorMultiColorLight::vrtaActuatorMultiColorLight(char*, unsigned int)
                0x00407e30                vrtaActuatorMultiColorLight::vrtaActuatorMultiColorLight(char*, unsigned int)
                0x00407e80                vrtaIO::vrtaIO(char*, unsigned int)
                0x00407e80                vrtaIO::vrtaIO(char*, unsigned int)
                0x00407ed0                vrtaIO::vrtaIO(char*, unsigned int, char*, char*, char*)
                0x00407ed0                vrtaIO::vrtaIO(char*, unsigned int, char*, char*, char*)
                0x00407f20                vrtaIO::Init(unsigned int)
                0x00407f40                vrtaIO::SetValue(unsigned int, unsigned int)
                0x00407f60                vrtaIO::SetValues(unsigned int, unsigned int const*, unsigned int)
                0x00407fb0                vrtaIO::GetValue(unsigned int) const
                0x00407fe0                vrtaIO::GetValues() const
 .text          0x00407ff0      0xd40 RTAOS.lib(vrtaSystemClock.o)
                0x004081e0                vrtaSystemClockSubscriber::vrtaSystemClockSubscriber()
                0x004081e0                vrtaSystemClockSubscriber::vrtaSystemClockSubscriber()
                0x00408200                vrtaSystemClockType::vrtaSystemClockType()
                0x00408200                vrtaSystemClockType::vrtaSystemClockType()
                0x004082c0                vrtaSystemClockType::Scale()
                0x004082d0                vrtaSystemClockType::Scale(unsigned int)
                0x00408320                vrtaSystemClockType::Auto()
                0x00408380                vrtaSystemClockType::IsAuto()
                0x004083a0                vrtaSystemClockType::ManualCanDoLowPower(bool)
                0x004083c0                vrtaSystemClockType::ManualCanDoLowPower()
                0x004083e0                vrtaSystemClockType::ManualFreezesOS(bool)
                0x004083f0                vrtaSystemClockType::Manual(unsigned int)
                0x00408430                vrtaSystemClockType::ManualTicksRemaining()
                0x00408440                vrtaSystemClockType::ManualTicksCompleted()
                0x004084b0                vrtaSystemClockType::IsManual()
                0x004084c0                vrtaSystemClockType::IdleTick()
                0x00408520                vrtaSystemClockType::IsIdleTicked()
                0x00408530                vrtaSystemClockType::Tick()
                0x00408550                vrtaSystemClockType::Pause()
                0x00408560                vrtaSystemClockType::IsPaused()
                0x00408570                vrtaSystemClockType::Resume()
                0x00408580                vrtaSystemClockType::MillisecondsCount()
                0x00408590                vrtaSystemClockType::TickCount()
                0x004085a0                vrtaSystemClockType::Unsubscribe(vrtaSystemClockSubscriber*)
                0x00408630                vrtaSystemClockSubscriber::~vrtaSystemClockSubscriber()
                0x00408630                vrtaSystemClockSubscriber::~vrtaSystemClockSubscriber()
                0x00408660                vrtaSystemClockSubscriber::~vrtaSystemClockSubscriber()
                0x00408690                vrtaSystemClockType::Subscribe(vrtaSystemClockSubscriber*)
                0x00408780                vrtaSystemClockType::FavourFixedInterval(int)
                0x004087e0                vrtaSystemClockType::IsFavourFixedInterval()
                0x004087f0                vrtaCustomTickSource::vrtaCustomTickSource(unsigned int)
                0x004087f0                vrtaCustomTickSource::vrtaCustomTickSource(unsigned int)
                0x004088a0                vrtaCustomTickSource::TickCount()
                0x00408960                vrtaThreadWait::vrtaThreadWait(unsigned int)
                0x00408960                vrtaThreadWait::vrtaThreadWait(unsigned int)
                0x00408a60                vrtaThreadWait::WaitForTicks(unsigned int)
                0x00408c30                vrtaSystemClock_Auto
                0x00408c40                vrtaSystemClock_Manual
                0x00408c80                vrtaSystemClock_Pause
                0x00408c90                vrtaSystemClock_Resume
                0x00408ca0                vrtaSystemClock_Tick
                0x00408cc0                vrtaSystemClock_Scale
                0x00408ce0                vrtaSystemClock_FavourFixedInterval
                0x00408d00                vrtaSystemClock_IsFavourFixedInterval
                0x00408d10                vrtaSystemClock_HasFrozenOS
                0x00408d20                vrtaSystemClock_IsIdleTicked
 .text          0x00408d30      0x2b0 RTAOS.lib(vrtaSystemClockDevice.o)
                0x00408d30                CSLThread
                0x00408e70                SystemClockIdleHandler::Idle(unsigned int)
                0x00408fb0                SystemClockTickUpdateNotification(unsigned int)
 .text          0x00408fe0      0x1b0 RTAOS.lib(WaitEvent.o)
                0x00408fe0                Os_WaitEvent
 .text          0x00409190      0x170 RTAOS.lib(DispatchECC.o)
                0x00409190                Os_DispatchECC
 .text          0x00409300       0x20 RTAOS.lib(GetStackValue.o)
                0x00409300                Os_GetStackValue
 .text          0x00409320        0x0 RTAOS.lib(Os_vectors.o)
 .text          0x00409320       0x60 RTAOS.lib(Os_wrapper.o)
                0x00409320                Os_ISRWrapper
 .text          0x00409380       0x10 RTAOS.lib(StackOverrunHook.o)
                0x00409380                Os_Cbk_StackOverrunHook
 .text          0x00409390     0x1900 RTAOS.lib(virtualDevice.o)
                0x00409390                VirtualDevice::StringBuilder::Content()
                0x004093c0                VirtualDevice::EventZero(vrtaEvent const&)
                0x004093d0                VirtualDevice::EventHandler(vrtaEvent&)
                0x00409420                VirtualDevice::GetPersistentDataSize()
                0x00409430                VirtualDevice::GetPersistentData()
                0x00409440                VirtualDevice::SetPersistentData(unsigned char*, unsigned short)
                0x00409450                VirtualDevice::StringBuilder::~StringBuilder()
                0x00409450                VirtualDevice::StringBuilder::~StringBuilder()
                0x00409470                VirtualDevice::StringBuilder::~StringBuilder()
                0x00409510                VirtualDevice::SetValue(vrtaEvent&, void*, unsigned int)
                0x00409570                VECUAutoLock::VECUAutoLock()
                0x00409570                VECUAutoLock::VECUAutoLock()
                0x00409580                VECUAutoLock::~VECUAutoLock()
                0x00409580                VECUAutoLock::~VECUAutoLock()
                0x00409590                VirtualDevice::StringBuilder::StringBuilder(int)
                0x00409590                VirtualDevice::StringBuilder::StringBuilder(int)
                0x004095c0                VirtualDevice::StringBuilder::Append(char const*)
                0x00409640                VirtualDevice::StringBuilder::Length()
                0x00409650                VirtualDevice::OptList::OptList(int)
                0x00409650                VirtualDevice::OptList::OptList(int)
                0x00409690                VirtualDevice::OptList::Add(char const*, char const*)
                0x00409700                VirtualDevice::OptList::Clear()
                0x00409720                VirtualDevice::OptList::Replace(int, char const*, char const*)
                0x00409850                VirtualDevice::Linkable::Linkable()
                0x00409850                VirtualDevice::Linkable::Linkable()
                0x00409860                VirtualDevice::ParameterInfo::ParameterInfo(char const*, char const*, char const*)
                0x00409860                VirtualDevice::ParameterInfo::ParameterInfo(char const*, char const*, char const*)
                0x00409880                VirtualDevice::List::List()
                0x00409880                VirtualDevice::List::List()
                0x00409890                VirtualDevice::List::First()
                0x004098a0                VirtualDevice::List::Append(VirtualDevice::Linkable*)
                0x004098c0                VirtualDevice::List::Replace(int, VirtualDevice::Linkable*)
                0x00409930                VirtualDevice::ActionInfo::ActionInfo(char const*, char const*, char const*)
                0x00409930                VirtualDevice::ActionInfo::ActionInfo(char const*, char const*, char const*)
                0x00409960                VirtualDevice::ActionInfo::AddContent(VirtualDevice::OptList*)
                0x00409aa0                VirtualDevice::ActionList::Content()
                0x00409af0                VirtualDevice::ActionInfo::In(char const*, char const*, char const*)
                0x00409b50                VirtualDevice::EventInfo::EventInfo(char const*, char const*, char const*)
                0x00409b50                VirtualDevice::EventInfo::EventInfo(char const*, char const*, char const*)
                0x00409b90                VirtualDevice::EventInfo::AddContent(VirtualDevice::OptList*)
                0x00409d90                VirtualDevice::EventList::Content()
                0x00409de0                VirtualDevice::EventInfo::Out(char const*, char const*, char const*)
                0x00409e40                VirtualDevice::EventInfo::In(char const*, char const*, char const*)
                0x00409ea0                VirtualDevice::EventList::EventList()
                0x00409ea0                VirtualDevice::EventList::EventList()
                0x00409ef0                VirtualDevice::EventList::Add(char const*, char const*, char const*)
                0x00409f60                VirtualDevice::EventList::Replace(int, char const*, char const*, char const*)
                0x00409fd0                VirtualDevice::EventList::UpdateInfo(VirtualDevice::OptList&)
                0x0040a150                VirtualDevice::ActionList::ActionList()
                0x0040a150                VirtualDevice::ActionList::ActionList()
                0x0040a1a0                VirtualDevice::ActionList::Add(char const*, char const*, char const*)
                0x0040a200                VirtualDevice::ActionList::Replace(int, char const*, char const*, char const*)
                0x0040a270                VirtualDevice::ActionList::UpdateInfo(VirtualDevice::OptList&)
                0x0040a3e0                VirtualDevice::VirtualDevice()
                0x0040a3e0                VirtualDevice::VirtualDevice()
                0x0040a480                VirtualDevice::ActionHandler(vrtaAction const&)
                0x0040a4f0                VirtualDevice::AddActionHandler(unsigned short (VirtualDevice::*)(vrtaAction const&))
                0x0040a580                VirtualDevice::AddEventHandler(unsigned short (VirtualDevice::*)(vrtaEvent const&))
                0x0040a610                VirtualDevice::NullAction(vrtaAction const&)
                0x0040a620                VirtualDevice::NullEvent(vrtaEvent const&)
                0x0040a630                VirtualDevice::RegisterAs(char const*)
                0x0040a7e0                VirtualDevice::~VirtualDevice()
                0x0040a7e0                VirtualDevice::~VirtualDevice()
                0x0040a800                VirtualDevice::~VirtualDevice()
                0x0040a830                VirtualDevice::AssignCore(unsigned short)
                0x0040a850                VirtualDevice::Raise(unsigned short (VirtualDevice::*)(vrtaEvent const&), vrtaEvent&)
                0x0040a8f0                VirtualDevice::Raise(unsigned short (VirtualDevice::*)(vrtaEvent const&))
                0x0040a930                VirtualDevice::Raise(vrtaEvent&)
                0x0040a960                VirtualDevice::SendAction(unsigned short, unsigned short, vrtaAction&)
                0x0040a990                VirtualDevice::RaiseInterrupt(unsigned int)
                0x0040aa00                VirtualDevice::SpawnThread(void (*)())
                0x0040aa20                VirtualDevice::PersistThroughReset(int)
                0x0040aa30                VirtualDevice::ReadFromPersistentStorage(unsigned short*, unsigned char**)
                0x0040aa50                VirtualDevice::WriteToPersistentStorage(unsigned short*, unsigned char**)
                0x0040aaa0                VirtualDevice::LockDevice()
                0x0040aab0                VirtualDevice::ReleaseDevice()
                0x0040aac0                VirtualDevice::DataHasPersisted()
                0x0040aad0                VirtualDevice::DataHasPersisted(int)
                0x0040aae0                VirtualDevice::SetID(unsigned short)
                0x0040aaf0                VirtualDevice::GetID()
                0x0040ab00                VirtualDevice::UnpackData(vrtaAction const&, void*, unsigned int)
                0x0040ab40                VirtualDevice::ActionZero(vrtaAction const&)
                0x0040ac50                VirtualDevice::UnpackData(vrtaEvent const&, void*, unsigned int)
 .text          0x0040ac90       0x70 RTAOS.lib(ShutdownOS.o)
                0x0040ac90                Os_ShutdownOS
 .text          0x0040ad00       0x10 RTAOS.lib(InShutdown.o)
                0x0040ad00                Os_Cbk_InShutdown
 .text          0x0040ad10        0x0 C:/Program Files/ETAS/ISOLAR-EVE3.0/plugins/com.etas.evetools.toolsfolder_1.4.5/Tools/MinGW/bin/../lib/gcc/i686-w64-mingw32/4.9.2/../../../../i686-w64-mingw32/lib/../lib/libwinmm.a(dasfh.o)
 .text          0x0040ad10        0x0 C:/Program Files/ETAS/ISOLAR-EVE3.0/plugins/com.etas.evetools.toolsfolder_1.4.5/Tools/MinGW/bin/../lib/gcc/i686-w64-mingw32/4.9.2/../../../../i686-w64-mingw32/lib/../lib/libwinmm.a(dasft.o)
 .text          0x0040ad10        0x0 C:/Program Files/ETAS/ISOLAR-EVE3.0/plugins/com.etas.evetools.toolsfolder_1.4.5/Tools/MinGW/bin/../lib/gcc/i686-w64-mingw32/4.9.2\libstdc++.a(class_type_info.o)
 .text          0x0040ad10        0x0 C:/Program Files/ETAS/ISOLAR-EVE3.0/plugins/com.etas.evetools.toolsfolder_1.4.5/Tools/MinGW/bin/../lib/gcc/i686-w64-mingw32/4.9.2\libstdc++.a(del_op.o)
 .text          0x0040ad10        0x0 C:/Program Files/ETAS/ISOLAR-EVE3.0/plugins/com.etas.evetools.toolsfolder_1.4.5/Tools/MinGW/bin/../lib/gcc/i686-w64-mingw32/4.9.2\libstdc++.a(del_opv.o)
 .text          0x0040ad10        0x0 C:/Program Files/ETAS/ISOLAR-EVE3.0/plugins/com.etas.evetools.toolsfolder_1.4.5/Tools/MinGW/bin/../lib/gcc/i686-w64-mingw32/4.9.2\libstdc++.a(eh_catch.o)
 .text          0x0040ad10        0x0 C:/Program Files/ETAS/ISOLAR-EVE3.0/plugins/com.etas.evetools.toolsfolder_1.4.5/Tools/MinGW/bin/../lib/gcc/i686-w64-mingw32/4.9.2\libstdc++.a(eh_globals.o)
 .text          0x0040ad10        0x0 C:/Program Files/ETAS/ISOLAR-EVE3.0/plugins/com.etas.evetools.toolsfolder_1.4.5/Tools/MinGW/bin/../lib/gcc/i686-w64-mingw32/4.9.2\libstdc++.a(eh_personality.o)
 .text          0x0040ad10        0x0 C:/Program Files/ETAS/ISOLAR-EVE3.0/plugins/com.etas.evetools.toolsfolder_1.4.5/Tools/MinGW/bin/../lib/gcc/i686-w64-mingw32/4.9.2\libstdc++.a(eh_terminate.o)
 .text          0x0040ad10        0x0 C:/Program Files/ETAS/ISOLAR-EVE3.0/plugins/com.etas.evetools.toolsfolder_1.4.5/Tools/MinGW/bin/../lib/gcc/i686-w64-mingw32/4.9.2\libstdc++.a(eh_term_handler.o)
 .text          0x0040ad10        0x0 C:/Program Files/ETAS/ISOLAR-EVE3.0/plugins/com.etas.evetools.toolsfolder_1.4.5/Tools/MinGW/bin/../lib/gcc/i686-w64-mingw32/4.9.2\libstdc++.a(eh_throw.o)
 .text          0x0040ad10        0x0 C:/Program Files/ETAS/ISOLAR-EVE3.0/plugins/com.etas.evetools.toolsfolder_1.4.5/Tools/MinGW/bin/../lib/gcc/i686-w64-mingw32/4.9.2\libstdc++.a(eh_unex_handler.o)
 .text          0x0040ad10        0x0 C:/Program Files/ETAS/ISOLAR-EVE3.0/plugins/com.etas.evetools.toolsfolder_1.4.5/Tools/MinGW/bin/../lib/gcc/i686-w64-mingw32/4.9.2\libstdc++.a(new_op.o)
 .text          0x0040ad10        0x0 C:/Program Files/ETAS/ISOLAR-EVE3.0/plugins/com.etas.evetools.toolsfolder_1.4.5/Tools/MinGW/bin/../lib/gcc/i686-w64-mingw32/4.9.2\libstdc++.a(new_opv.o)
 .text          0x0040ad10        0x0 C:/Program Files/ETAS/ISOLAR-EVE3.0/plugins/com.etas.evetools.toolsfolder_1.4.5/Tools/MinGW/bin/../lib/gcc/i686-w64-mingw32/4.9.2\libstdc++.a(pure.o)
 .text          0x0040ad10        0x0 C:/Program Files/ETAS/ISOLAR-EVE3.0/plugins/com.etas.evetools.toolsfolder_1.4.5/Tools/MinGW/bin/../lib/gcc/i686-w64-mingw32/4.9.2\libstdc++.a(si_class_type_info.o)
 .text          0x0040ad10        0x0 C:/Program Files/ETAS/ISOLAR-EVE3.0/plugins/com.etas.evetools.toolsfolder_1.4.5/Tools/MinGW/bin/../lib/gcc/i686-w64-mingw32/4.9.2\libstdc++.a(tinfo.o)
 .text          0x0040ad10        0x0 C:/Program Files/ETAS/ISOLAR-EVE3.0/plugins/com.etas.evetools.toolsfolder_1.4.5/Tools/MinGW/bin/../lib/gcc/i686-w64-mingw32/4.9.2\libstdc++.a(vmi_class_type_info.o)
 .text          0x0040ad10        0x0 C:/Program Files/ETAS/ISOLAR-EVE3.0/plugins/com.etas.evetools.toolsfolder_1.4.5/Tools/MinGW/bin/../lib/gcc/i686-w64-mingw32/4.9.2\libstdc++.a(vterminate.o)
 .text          0x0040ad10        0x0 C:/Program Files/ETAS/ISOLAR-EVE3.0/plugins/com.etas.evetools.toolsfolder_1.4.5/Tools/MinGW/bin/../lib/gcc/i686-w64-mingw32/4.9.2\libstdc++.a(bad_alloc.o)
 .text          0x0040ad10     0xb620 C:/Program Files/ETAS/ISOLAR-EVE3.0/plugins/com.etas.evetools.toolsfolder_1.4.5/Tools/MinGW/bin/../lib/gcc/i686-w64-mingw32/4.9.2\libstdc++.a(cp-demangle.o)
                0x004161a0                __cxa_demangle
                0x004162f0                __gcclibcxx_demangle_callback
 .text          0x00416330        0x0 C:/Program Files/ETAS/ISOLAR-EVE3.0/plugins/com.etas.evetools.toolsfolder_1.4.5/Tools/MinGW/bin/../lib/gcc/i686-w64-mingw32/4.9.2\libstdc++.a(eh_alloc.o)
 .text          0x00416330        0x0 C:/Program Files/ETAS/ISOLAR-EVE3.0/plugins/com.etas.evetools.toolsfolder_1.4.5/Tools/MinGW/bin/../lib/gcc/i686-w64-mingw32/4.9.2\libstdc++.a(eh_call.o)
 .text          0x00416330        0x0 C:/Program Files/ETAS/ISOLAR-EVE3.0/plugins/com.etas.evetools.toolsfolder_1.4.5/Tools/MinGW/bin/../lib/gcc/i686-w64-mingw32/4.9.2\libstdc++.a(eh_exception.o)
 .text          0x00416330        0x0 C:/Program Files/ETAS/ISOLAR-EVE3.0/plugins/com.etas.evetools.toolsfolder_1.4.5/Tools/MinGW/bin/../lib/gcc/i686-w64-mingw32/4.9.2\libstdc++.a(eh_type.o)
 .text          0x00416330        0x0 C:/Program Files/ETAS/ISOLAR-EVE3.0/plugins/com.etas.evetools.toolsfolder_1.4.5/Tools/MinGW/bin/../lib/gcc/i686-w64-mingw32/4.9.2\libstdc++.a(new_handler.o)
 .text          0x00416330       0xe0 C:/Program Files/ETAS/ISOLAR-EVE3.0/plugins/com.etas.evetools.toolsfolder_1.4.5/Tools/MinGW/bin/../lib/gcc/i686-w64-mingw32/4.9.2/../../../../i686-w64-mingw32/lib/../lib/libmingw32.a(lib32_libmingw32_a-atonexit.o)
                0x00416330                mingw_onexit
                0x004163f0                atexit
 .text          0x00416410       0xa0 C:/Program Files/ETAS/ISOLAR-EVE3.0/plugins/com.etas.evetools.toolsfolder_1.4.5/Tools/MinGW/bin/../lib/gcc/i686-w64-mingw32/4.9.2/../../../../i686-w64-mingw32/lib/../lib/libmingw32.a(lib32_libmingw32_a-gccmain.o)
                0x00416410                __do_global_dtors
                0x00416440                __do_global_ctors
                0x00416490                __main
 .text          0x004164b0        0x0 C:/Program Files/ETAS/ISOLAR-EVE3.0/plugins/com.etas.evetools.toolsfolder_1.4.5/Tools/MinGW/bin/../lib/gcc/i686-w64-mingw32/4.9.2/../../../../i686-w64-mingw32/lib/../lib/libmingw32.a(lib32_libmingw32_a-natstart.o)
 .text          0x004164b0        0x0 C:/Program Files/ETAS/ISOLAR-EVE3.0/plugins/com.etas.evetools.toolsfolder_1.4.5/Tools/MinGW/bin/../lib/gcc/i686-w64-mingw32/4.9.2/../../../../i686-w64-mingw32/lib/../lib/libmingw32.a(lib32_libmingw32_a-wildcard.o)
 .text          0x004164b0       0x10 C:/Program Files/ETAS/ISOLAR-EVE3.0/plugins/com.etas.evetools.toolsfolder_1.4.5/Tools/MinGW/bin/../lib/gcc/i686-w64-mingw32/4.9.2/../../../../i686-w64-mingw32/lib/../lib/libmingw32.a(lib32_libmingw32_a-charmax.o)
 .text          0x004164c0       0x10 C:/Program Files/ETAS/ISOLAR-EVE3.0/plugins/com.etas.evetools.toolsfolder_1.4.5/Tools/MinGW/bin/../lib/gcc/i686-w64-mingw32/4.9.2/../../../../i686-w64-mingw32/lib/../lib/libmingw32.a(lib32_libmingw32_a-dllargv.o)
                0x004164c0                _setargv
 .text          0x004164d0      0x140 C:/Program Files/ETAS/ISOLAR-EVE3.0/plugins/com.etas.evetools.toolsfolder_1.4.5/Tools/MinGW/bin/../lib/gcc/i686-w64-mingw32/4.9.2/../../../../i686-w64-mingw32/lib/../lib/libmingw32.a(lib32_libmingw32_a-gs_support.o)
                0x004164d0                __security_init_cookie
                0x00416580                __report_gsfailure
 .text          0x00416610        0x0 C:/Program Files/ETAS/ISOLAR-EVE3.0/plugins/com.etas.evetools.toolsfolder_1.4.5/Tools/MinGW/bin/../lib/gcc/i686-w64-mingw32/4.9.2/../../../../i686-w64-mingw32/lib/../lib/libmingw32.a(lib32_libmingw32_a-_newmode.o)
 .text          0x00416610       0xe0 C:/Program Files/ETAS/ISOLAR-EVE3.0/plugins/com.etas.evetools.toolsfolder_1.4.5/Tools/MinGW/bin/../lib/gcc/i686-w64-mingw32/4.9.2/../../../../i686-w64-mingw32/lib/../lib/libmingw32.a(lib32_libmingw32_a-tlssup.o)
                0x00416660                __dyn_tls_init@12
                0x004166e0                __tlregdtor
 .text          0x004166f0        0x0 C:/Program Files/ETAS/ISOLAR-EVE3.0/plugins/com.etas.evetools.toolsfolder_1.4.5/Tools/MinGW/bin/../lib/gcc/i686-w64-mingw32/4.9.2/../../../../i686-w64-mingw32/lib/../lib/libmingw32.a(lib32_libmingw32_a-cinitexe.o)
 .text          0x004166f0       0xc0 C:/Program Files/ETAS/ISOLAR-EVE3.0/plugins/com.etas.evetools.toolsfolder_1.4.5/Tools/MinGW/bin/../lib/gcc/i686-w64-mingw32/4.9.2/../../../../i686-w64-mingw32/lib/../lib/libmingw32.a(lib32_libmingw32_a-merr.o)
                0x004166f0                __mingw_raise_matherr
                0x00416740                __mingw_setusermatherr
                0x00416750                _matherr
 .text          0x004167b0       0x10 C:/Program Files/ETAS/ISOLAR-EVE3.0/plugins/com.etas.evetools.toolsfolder_1.4.5/Tools/MinGW/bin/../lib/gcc/i686-w64-mingw32/4.9.2/../../../../i686-w64-mingw32/lib/../lib/libmingw32.a(lib32_libmingw32_a-CRT_fp10.o)
                0x004167b0                fpreset
                0x004167b0                _fpreset
 .text          0x004167c0       0x20 C:/Program Files/ETAS/ISOLAR-EVE3.0/plugins/com.etas.evetools.toolsfolder_1.4.5/Tools/MinGW/bin/../lib/gcc/i686-w64-mingw32/4.9.2/../../../../i686-w64-mingw32/lib/../lib/libmingw32.a(lib32_libmingw32_a-mingw_helpers.o)
                0x004167c0                _decode_pointer
                0x004167d0                _encode_pointer
 .text          0x004167e0      0x440 C:/Program Files/ETAS/ISOLAR-EVE3.0/plugins/com.etas.evetools.toolsfolder_1.4.5/Tools/MinGW/bin/../lib/gcc/i686-w64-mingw32/4.9.2/../../../../i686-w64-mingw32/lib/../lib/libmingw32.a(lib32_libmingw32_a-pseudo-reloc.o)
                0x00416980                _pei386_runtime_relocator
 .text          0x00416c20        0x0 C:/Program Files/ETAS/ISOLAR-EVE3.0/plugins/com.etas.evetools.toolsfolder_1.4.5/Tools/MinGW/bin/../lib/gcc/i686-w64-mingw32/4.9.2/../../../../i686-w64-mingw32/lib/../lib/libmingw32.a(lib32_libmingw32_a-xtxtmode.o)
 .text          0x00416c20      0x150 C:/Program Files/ETAS/ISOLAR-EVE3.0/plugins/com.etas.evetools.toolsfolder_1.4.5/Tools/MinGW/bin/../lib/gcc/i686-w64-mingw32/4.9.2/../../../../i686-w64-mingw32/lib/../lib/libmingw32.a(lib32_libmingw32_a-crt_handler.o)
                0x00416c20                _gnu_exception_handler@4
 .text          0x00416d70      0x290 C:/Program Files/ETAS/ISOLAR-EVE3.0/plugins/com.etas.evetools.toolsfolder_1.4.5/Tools/MinGW/bin/../lib/gcc/i686-w64-mingw32/4.9.2/../../../../i686-w64-mingw32/lib/../lib/libmingw32.a(lib32_libmingw32_a-tlsthrd.o)
                0x00416df0                ___w64_mingwthr_add_key_dtor
                0x00416e80                ___w64_mingwthr_remove_key_dtor
                0x00416f20                __mingw_TLScallback
 .text          0x00417000        0x0 C:/Program Files/ETAS/ISOLAR-EVE3.0/plugins/com.etas.evetools.toolsfolder_1.4.5/Tools/MinGW/bin/../lib/gcc/i686-w64-mingw32/4.9.2/../../../../i686-w64-mingw32/lib/../lib/libmingw32.a(lib32_libmingw32_a-tlsmcrt.o)
 .text          0x00417000        0x0 C:/Program Files/ETAS/ISOLAR-EVE3.0/plugins/com.etas.evetools.toolsfolder_1.4.5/Tools/MinGW/bin/../lib/gcc/i686-w64-mingw32/4.9.2/../../../../i686-w64-mingw32/lib/../lib/libmingw32.a(lib32_libmingw32_a-pseudo-reloc-list.o)
 .text          0x00417000      0x340 C:/Program Files/ETAS/ISOLAR-EVE3.0/plugins/com.etas.evetools.toolsfolder_1.4.5/Tools/MinGW/bin/../lib/gcc/i686-w64-mingw32/4.9.2/../../../../i686-w64-mingw32/lib/../lib/libmingw32.a(lib32_libmingw32_a-pesect.o)
                0x00417020                _ValidateImageBase
                0x00417040                _FindPESection
                0x00417080                _FindPESectionByName
                0x00417120                __mingw_GetSectionForAddress
                0x00417170                __mingw_GetSectionCount
                0x004171a0                _FindPESectionExec
                0x00417210                _GetPEImageBase
                0x00417240                _IsNonwritableInCurrentImage
                0x004172a0                __mingw_enum_import_library_names
 .text          0x00417340       0x2c C:/Program Files/ETAS/ISOLAR-EVE3.0/plugins/com.etas.evetools.toolsfolder_1.4.5/Tools/MinGW/bin/../lib/gcc/i686-w64-mingw32/4.9.2/libgcc.a(_chkstk_ms.o)
                0x00417340                __chkstk_ms
 .text          0x0041736c        0x0 C:/Program Files/ETAS/ISOLAR-EVE3.0/plugins/com.etas.evetools.toolsfolder_1.4.5/Tools/MinGW/bin/../lib/gcc/i686-w64-mingw32/4.9.2/libgcc.a(_ctors.o)
 *fill*         0x0041736c        0x4 
 .text          0x00417370      0x1a0 C:/Program Files/ETAS/ISOLAR-EVE3.0/plugins/com.etas.evetools.toolsfolder_1.4.5/Tools/MinGW/bin/../lib/gcc/i686-w64-mingw32/4.9.2/libgcc.a(_divdi3.o)
                0x00417370                __divdi3
 .text          0x00417510      0x430 C:/Program Files/ETAS/ISOLAR-EVE3.0/plugins/com.etas.evetools.toolsfolder_1.4.5/Tools/MinGW/bin/../lib/gcc/i686-w64-mingw32/4.9.2/libgcc.a(gthr-win32.o)
                0x00417510                __gthr_win32_once
                0x00417590                __gthr_win32_key_create
                0x004175d0                __gthr_win32_key_delete
                0x00417600                __gthr_win32_getspecific
                0x00417640                __gthr_win32_setspecific
                0x00417670                __gthr_win32_mutex_init_function
                0x004176b0                __gthr_win32_mutex_destroy
                0x004176d0                __gthr_win32_mutex_lock
                0x00417710                __gthr_win32_mutex_trylock
                0x00417730                __gthr_win32_mutex_unlock
                0x00417780                __gthr_win32_recursive_mutex_init_function
                0x004177d0                __gthr_win32_recursive_mutex_lock
                0x00417860                __gthr_win32_recursive_mutex_trylock
                0x004178c0                __gthr_win32_recursive_mutex_unlock
                0x00417920                __gthr_win32_recursive_mutex_destroy
 .text          0x00417940     0x2780 C:/Program Files/ETAS/ISOLAR-EVE3.0/plugins/com.etas.evetools.toolsfolder_1.4.5/Tools/MinGW/bin/../lib/gcc/i686-w64-mingw32/4.9.2/libgcc_eh.a(unwind-dw2.o)
                0x00419a70                _Unwind_GetGR
                0x00419ac0                _Unwind_GetCFA
                0x00419ad0                _Unwind_SetGR
                0x00419b20                _Unwind_GetIP
                0x00419b30                _Unwind_GetIPInfo
                0x00419b50                _Unwind_SetIP
                0x00419b60                _Unwind_GetLanguageSpecificData
                0x00419b70                _Unwind_GetRegionStart
                0x00419b80                _Unwind_FindEnclosingFunction
                0x00419bc0                _Unwind_GetDataRelBase
                0x00419bd0                _Unwind_GetTextRelBase
                0x00419be0                __frame_state_for
                0x00419cd0                _Unwind_RaiseException
                0x00419e30                _Unwind_ForcedUnwind
                0x00419ed0                _Unwind_Resume
                0x00419f70                _Unwind_Resume_or_Rethrow
                0x0041a020                _Unwind_DeleteException
                0x0041a040                _Unwind_Backtrace
 .text          0x0041a0c0     0x17d0 C:/Program Files/ETAS/ISOLAR-EVE3.0/plugins/com.etas.evetools.toolsfolder_1.4.5/Tools/MinGW/bin/../lib/gcc/i686-w64-mingw32/4.9.2/libgcc_eh.a(unwind-dw2-fde.o)
                0x0041b1b0                __register_frame_info_bases
                0x0041b1e0                __register_frame_info
                0x0041b210                __register_frame
                0x0041b250                __register_frame_info_table_bases
                0x0041b3b0                __register_frame_info_table
                0x0041b3e0                __register_frame_table
                0x0041b420                __deregister_frame_info_bases
                0x0041b610                __deregister_frame_info
                0x0041b620                __deregister_frame
                0x0041b650                _Unwind_Find_FDE
 .text          0x0041b890      0x3f0 C:/Program Files/ETAS/ISOLAR-EVE3.0/plugins/com.etas.evetools.toolsfolder_1.4.5/Tools/MinGW/bin/../lib/gcc/i686-w64-mingw32/4.9.2/libgcc_eh.a(emutls.o)
                0x0041b9d0                __emutls_get_address
                0x0041bc40                __emutls_register_common
 .text          0x0041bc80        0x0 C:/Program Files/ETAS/ISOLAR-EVE3.0/plugins/com.etas.evetools.toolsfolder_1.4.5/Tools/MinGW/bin/../lib/gcc/i686-w64-mingw32/4.9.2/../../../../i686-w64-mingw32/lib/../lib/libmingwex.a(lib32_libmingwex_a-mingw_matherr.o)
 .text          0x0041bc80        0x8 C:/Program Files/ETAS/ISOLAR-EVE3.0/plugins/com.etas.evetools.toolsfolder_1.4.5/Tools/MinGW/bin/../lib/gcc/i686-w64-mingw32/4.9.2/../../../../i686-w64-mingw32/lib/../lib/libmsvcrt.a(dcpds01256.o)
                0x0041bc80                vsprintf
 .text          0x0041bc88        0x8 C:/Program Files/ETAS/ISOLAR-EVE3.0/plugins/com.etas.evetools.toolsfolder_1.4.5/Tools/MinGW/bin/../lib/gcc/i686-w64-mingw32/4.9.2/../../../../i686-w64-mingw32/lib/../lib/libmsvcrt.a(dcpds01249.o)
                0x0041bc88                vfprintf
 .text          0x0041bc90        0x8 C:/Program Files/ETAS/ISOLAR-EVE3.0/plugins/com.etas.evetools.toolsfolder_1.4.5/Tools/MinGW/bin/../lib/gcc/i686-w64-mingw32/4.9.2/../../../../i686-w64-mingw32/lib/../lib/libmsvcrt.a(dcpds01217.o)
                0x0041bc90                strncpy
 .text          0x0041bc98        0x8 C:/Program Files/ETAS/ISOLAR-EVE3.0/plugins/com.etas.evetools.toolsfolder_1.4.5/Tools/MinGW/bin/../lib/gcc/i686-w64-mingw32/4.9.2/../../../../i686-w64-mingw32/lib/../lib/libmsvcrt.a(dcpds01216.o)
                0x0041bc98                strncmp
 .text          0x0041bca0        0x8 C:/Program Files/ETAS/ISOLAR-EVE3.0/plugins/com.etas.evetools.toolsfolder_1.4.5/Tools/MinGW/bin/../lib/gcc/i686-w64-mingw32/4.9.2/../../../../i686-w64-mingw32/lib/../lib/libmsvcrt.a(dcpds01213.o)
                0x0041bca0                strlen
 .text          0x0041bca8        0x8 C:/Program Files/ETAS/ISOLAR-EVE3.0/plugins/com.etas.evetools.toolsfolder_1.4.5/Tools/MinGW/bin/../lib/gcc/i686-w64-mingw32/4.9.2/../../../../i686-w64-mingw32/lib/../lib/libmsvcrt.a(dcpds01208.o)
                0x0041bca8                strcpy
 .text          0x0041bcb0        0x8 C:/Program Files/ETAS/ISOLAR-EVE3.0/plugins/com.etas.evetools.toolsfolder_1.4.5/Tools/MinGW/bin/../lib/gcc/i686-w64-mingw32/4.9.2/../../../../i686-w64-mingw32/lib/../lib/libmsvcrt.a(dcpds01206.o)
                0x0041bcb0                strcmp
 .text          0x0041bcb8        0x8 C:/Program Files/ETAS/ISOLAR-EVE3.0/plugins/com.etas.evetools.toolsfolder_1.4.5/Tools/MinGW/bin/../lib/gcc/i686-w64-mingw32/4.9.2/../../../../i686-w64-mingw32/lib/../lib/libmsvcrt.a(dcpds01203.o)
                0x0041bcb8                strcat
 .text          0x0041bcc0        0x8 C:/Program Files/ETAS/ISOLAR-EVE3.0/plugins/com.etas.evetools.toolsfolder_1.4.5/Tools/MinGW/bin/../lib/gcc/i686-w64-mingw32/4.9.2/../../../../i686-w64-mingw32/lib/../lib/libmsvcrt.a(dcpds01198.o)
                0x0041bcc0                sprintf
 .text          0x0041bcc8        0x8 C:/Program Files/ETAS/ISOLAR-EVE3.0/plugins/com.etas.evetools.toolsfolder_1.4.5/Tools/MinGW/bin/../lib/gcc/i686-w64-mingw32/4.9.2/../../../../i686-w64-mingw32/lib/../lib/libmsvcrt.a(dcpds01195.o)
                0x0041bcc8                signal
 .text          0x0041bcd0        0x8 C:/Program Files/ETAS/ISOLAR-EVE3.0/plugins/com.etas.evetools.toolsfolder_1.4.5/Tools/MinGW/bin/../lib/gcc/i686-w64-mingw32/4.9.2/../../../../i686-w64-mingw32/lib/../lib/libmsvcrt.a(dcpds01186.o)
                0x0041bcd0                realloc
 .text          0x0041bcd8        0x8 C:/Program Files/ETAS/ISOLAR-EVE3.0/plugins/com.etas.evetools.toolsfolder_1.4.5/Tools/MinGW/bin/../lib/gcc/i686-w64-mingw32/4.9.2/../../../../i686-w64-mingw32/lib/../lib/libmsvcrt.a(dcpds01170.o)
                0x0041bcd8                memcpy
 .text          0x0041bce0        0x8 C:/Program Files/ETAS/ISOLAR-EVE3.0/plugins/com.etas.evetools.toolsfolder_1.4.5/Tools/MinGW/bin/../lib/gcc/i686-w64-mingw32/4.9.2/../../../../i686-w64-mingw32/lib/../lib/libmsvcrt.a(dcpds01167.o)
                0x0041bce0                memset
 .text          0x0041bce8        0x8 C:/Program Files/ETAS/ISOLAR-EVE3.0/plugins/com.etas.evetools.toolsfolder_1.4.5/Tools/MinGW/bin/../lib/gcc/i686-w64-mingw32/4.9.2/../../../../i686-w64-mingw32/lib/../lib/libmsvcrt.a(dcpds01165.o)
                0x0041bce8                memcmp
 .text          0x0041bcf0        0x8 C:/Program Files/ETAS/ISOLAR-EVE3.0/plugins/com.etas.evetools.toolsfolder_1.4.5/Tools/MinGW/bin/../lib/gcc/i686-w64-mingw32/4.9.2/../../../../i686-w64-mingw32/lib/../lib/libmsvcrt.a(dcpds01159.o)
                0x0041bcf0                malloc
 .text          0x0041bcf8        0x8 C:/Program Files/ETAS/ISOLAR-EVE3.0/plugins/com.etas.evetools.toolsfolder_1.4.5/Tools/MinGW/bin/../lib/gcc/i686-w64-mingw32/4.9.2/../../../../i686-w64-mingw32/lib/../lib/libmsvcrt.a(dcpds01112.o)
                0x0041bcf8                fwrite
 .text          0x0041bd00        0x8 C:/Program Files/ETAS/ISOLAR-EVE3.0/plugins/com.etas.evetools.toolsfolder_1.4.5/Tools/MinGW/bin/../lib/gcc/i686-w64-mingw32/4.9.2/../../../../i686-w64-mingw32/lib/../lib/libmsvcrt.a(dcpds01101.o)
                0x0041bd00                free
 .text          0x0041bd08        0x8 C:/Program Files/ETAS/ISOLAR-EVE3.0/plugins/com.etas.evetools.toolsfolder_1.4.5/Tools/MinGW/bin/../lib/gcc/i686-w64-mingw32/4.9.2/../../../../i686-w64-mingw32/lib/../lib/libmsvcrt.a(dcpds01097.o)
                0x0041bd08                fputs
 .text          0x0041bd10        0x8 C:/Program Files/ETAS/ISOLAR-EVE3.0/plugins/com.etas.evetools.toolsfolder_1.4.5/Tools/MinGW/bin/../lib/gcc/i686-w64-mingw32/4.9.2/../../../../i686-w64-mingw32/lib/../lib/libmsvcrt.a(dcpds01096.o)
                0x0041bd10                fputc
 .text          0x0041bd18        0x8 C:/Program Files/ETAS/ISOLAR-EVE3.0/plugins/com.etas.evetools.toolsfolder_1.4.5/Tools/MinGW/bin/../lib/gcc/i686-w64-mingw32/4.9.2/../../../../i686-w64-mingw32/lib/../lib/libmsvcrt.a(dcpds01094.o)
                0x0041bd18                fprintf
 .text          0x0041bd20        0x8 C:/Program Files/ETAS/ISOLAR-EVE3.0/plugins/com.etas.evetools.toolsfolder_1.4.5/Tools/MinGW/bin/../lib/gcc/i686-w64-mingw32/4.9.2/../../../../i686-w64-mingw32/lib/../lib/libmsvcrt.a(dcpds01092.o)
                0x0041bd20                fopen
 .text          0x0041bd28        0x8 C:/Program Files/ETAS/ISOLAR-EVE3.0/plugins/com.etas.evetools.toolsfolder_1.4.5/Tools/MinGW/bin/../lib/gcc/i686-w64-mingw32/4.9.2/../../../../i686-w64-mingw32/lib/../lib/libmsvcrt.a(dcpds01081.o)
                0x0041bd28                fclose
 .text          0x0041bd30        0x8 C:/Program Files/ETAS/ISOLAR-EVE3.0/plugins/com.etas.evetools.toolsfolder_1.4.5/Tools/MinGW/bin/../lib/gcc/i686-w64-mingw32/4.9.2/../../../../i686-w64-mingw32/lib/../lib/libmsvcrt.a(dcpds01078.o)
                0x0041bd30                exit
 .text          0x0041bd38        0x8 C:/Program Files/ETAS/ISOLAR-EVE3.0/plugins/com.etas.evetools.toolsfolder_1.4.5/Tools/MinGW/bin/../lib/gcc/i686-w64-mingw32/4.9.2/../../../../i686-w64-mingw32/lib/../lib/libmsvcrt.a(dcpds01067.o)
                0x0041bd38                calloc
 .text          0x0041bd40        0x8 C:/Program Files/ETAS/ISOLAR-EVE3.0/plugins/com.etas.evetools.toolsfolder_1.4.5/Tools/MinGW/bin/../lib/gcc/i686-w64-mingw32/4.9.2/../../../../i686-w64-mingw32/lib/../lib/libmsvcrt.a(dcpds01063.o)
                0x0041bd40                atoi
 .text          0x0041bd48        0x8 C:/Program Files/ETAS/ISOLAR-EVE3.0/plugins/com.etas.evetools.toolsfolder_1.4.5/Tools/MinGW/bin/../lib/gcc/i686-w64-mingw32/4.9.2/../../../../i686-w64-mingw32/lib/../lib/libmsvcrt.a(dcpds01055.o)
                0x0041bd48                abort
 .text          0x0041bd50        0x8 C:/Program Files/ETAS/ISOLAR-EVE3.0/plugins/com.etas.evetools.toolsfolder_1.4.5/Tools/MinGW/bin/../lib/gcc/i686-w64-mingw32/4.9.2/../../../../i686-w64-mingw32/lib/../lib/libmsvcrt.a(dcpds01013.o)
                0x0041bd50                write
 .text          0x0041bd58        0x8 C:/Program Files/ETAS/ISOLAR-EVE3.0/plugins/com.etas.evetools.toolsfolder_1.4.5/Tools/MinGW/bin/../lib/gcc/i686-w64-mingw32/4.9.2/../../../../i686-w64-mingw32/lib/../lib/libmsvcrt.a(dcpds00840.o)
                0x0041bd58                _unlock
 .text          0x0041bd60        0x0 C:/Program Files/ETAS/ISOLAR-EVE3.0/plugins/com.etas.evetools.toolsfolder_1.4.5/Tools/MinGW/bin/../lib/gcc/i686-w64-mingw32/4.9.2/../../../../i686-w64-mingw32/lib/../lib/libmsvcrt.a(dcpds00627.o)
 .text          0x0041bd60        0x8 C:/Program Files/ETAS/ISOLAR-EVE3.0/plugins/com.etas.evetools.toolsfolder_1.4.5/Tools/MinGW/bin/../lib/gcc/i686-w64-mingw32/4.9.2/../../../../i686-w64-mingw32/lib/../lib/libmsvcrt.a(dcpds00460.o)
                0x0041bd60                _lock
 .text          0x0041bd68        0x0 C:/Program Files/ETAS/ISOLAR-EVE3.0/plugins/com.etas.evetools.toolsfolder_1.4.5/Tools/MinGW/bin/../lib/gcc/i686-w64-mingw32/4.9.2/../../../../i686-w64-mingw32/lib/../lib/libmsvcrt.a(dcpds00354.o)
 .text          0x0041bd68        0x8 C:/Program Files/ETAS/ISOLAR-EVE3.0/plugins/com.etas.evetools.toolsfolder_1.4.5/Tools/MinGW/bin/../lib/gcc/i686-w64-mingw32/4.9.2/../../../../i686-w64-mingw32/lib/../lib/libmsvcrt.a(dcpds00350.o)
                0x0041bd68                _initterm
 .text          0x0041bd70        0x0 C:/Program Files/ETAS/ISOLAR-EVE3.0/plugins/com.etas.evetools.toolsfolder_1.4.5/Tools/MinGW/bin/../lib/gcc/i686-w64-mingw32/4.9.2/../../../../i686-w64-mingw32/lib/../lib/libmsvcrt.a(dcpds00275.o)
 .text          0x0041bd70        0x8 C:/Program Files/ETAS/ISOLAR-EVE3.0/plugins/com.etas.evetools.toolsfolder_1.4.5/Tools/MinGW/bin/../lib/gcc/i686-w64-mingw32/4.9.2/../../../../i686-w64-mingw32/lib/../lib/libmsvcrt.a(dcpds00163.o)
                0x0041bd70                _cexit
 .text          0x0041bd78        0x8 C:/Program Files/ETAS/ISOLAR-EVE3.0/plugins/com.etas.evetools.toolsfolder_1.4.5/Tools/MinGW/bin/../lib/gcc/i686-w64-mingw32/4.9.2/../../../../i686-w64-mingw32/lib/../lib/libmsvcrt.a(dcpds00145.o)
                0x0041bd78                _amsg_exit
 .text          0x0041bd80        0x0 C:/Program Files/ETAS/ISOLAR-EVE3.0/plugins/com.etas.evetools.toolsfolder_1.4.5/Tools/MinGW/bin/../lib/gcc/i686-w64-mingw32/4.9.2/../../../../i686-w64-mingw32/lib/../lib/libmsvcrt.a(dcpds00123.o)
 .text          0x0041bd80        0x8 C:/Program Files/ETAS/ISOLAR-EVE3.0/plugins/com.etas.evetools.toolsfolder_1.4.5/Tools/MinGW/bin/../lib/gcc/i686-w64-mingw32/4.9.2/../../../../i686-w64-mingw32/lib/../lib/libmsvcrt.a(dcpds00108.o)
                0x0041bd80                __setusermatherr
 .text          0x0041bd88        0x8 C:/Program Files/ETAS/ISOLAR-EVE3.0/plugins/com.etas.evetools.toolsfolder_1.4.5/Tools/MinGW/bin/../lib/gcc/i686-w64-mingw32/4.9.2/../../../../i686-w64-mingw32/lib/../lib/libmsvcrt.a(dcpds00105.o)
                0x0041bd88                __set_app_type
 .text          0x0041bd90        0x0 C:/Program Files/ETAS/ISOLAR-EVE3.0/plugins/com.etas.evetools.toolsfolder_1.4.5/Tools/MinGW/bin/../lib/gcc/i686-w64-mingw32/4.9.2/../../../../i686-w64-mingw32/lib/../lib/libmsvcrt.a(dcpds00059.o)
 .text          0x0041bd90        0x8 C:/Program Files/ETAS/ISOLAR-EVE3.0/plugins/com.etas.evetools.toolsfolder_1.4.5/Tools/MinGW/bin/../lib/gcc/i686-w64-mingw32/4.9.2/../../../../i686-w64-mingw32/lib/../lib/libmsvcrt.a(dcpds00058.o)
                0x0041bd90                __getmainargs
 .text          0x0041bd98        0x8 C:/Program Files/ETAS/ISOLAR-EVE3.0/plugins/com.etas.evetools.toolsfolder_1.4.5/Tools/MinGW/bin/../lib/gcc/i686-w64-mingw32/4.9.2/../../../../i686-w64-mingw32/lib/../lib/libmsvcrt.a(dcpds00055.o)
                0x0041bd98                __dllonexit
 .text          0x0041bda0       0x20 C:/Program Files/ETAS/ISOLAR-EVE3.0/plugins/com.etas.evetools.toolsfolder_1.4.5/Tools/MinGW/bin/../lib/gcc/i686-w64-mingw32/4.9.2/../../../../i686-w64-mingw32/lib/../lib/libmsvcrt.a(lib32_libmsvcrt_a-invalid_parameter_handler.o)
                0x0041bda0                _get_invalid_parameter_handler
                0x0041bdb0                _set_invalid_parameter_handler
 .text          0x0041bdc0        0x0 C:/Program Files/ETAS/ISOLAR-EVE3.0/plugins/com.etas.evetools.toolsfolder_1.4.5/Tools/MinGW/bin/../lib/gcc/i686-w64-mingw32/4.9.2/../../../../i686-w64-mingw32/lib/../lib/libmsvcrt.a(dcpdh.o)
 .text          0x0041bdc0        0x0 C:/Program Files/ETAS/ISOLAR-EVE3.0/plugins/com.etas.evetools.toolsfolder_1.4.5/Tools/MinGW/bin/../lib/gcc/i686-w64-mingw32/4.9.2/../../../../i686-w64-mingw32/lib/../lib/libmsvcrt.a(dcpdt.o)
 .text          0x0041bdc0        0x0 C:/Program Files/ETAS/ISOLAR-EVE3.0/plugins/com.etas.evetools.toolsfolder_1.4.5/Tools/MinGW/bin/../lib/gcc/i686-w64-mingw32/4.9.2/../../../../i686-w64-mingw32/lib/../lib/libuser32.a(diqeh.o)
 .text          0x0041bdc0        0x0 C:/Program Files/ETAS/ISOLAR-EVE3.0/plugins/com.etas.evetools.toolsfolder_1.4.5/Tools/MinGW/bin/../lib/gcc/i686-w64-mingw32/4.9.2/../../../../i686-w64-mingw32/lib/../lib/libuser32.a(diqet.o)
 .text          0x0041bdc0        0x0 C:/Program Files/ETAS/ISOLAR-EVE3.0/plugins/com.etas.evetools.toolsfolder_1.4.5/Tools/MinGW/bin/../lib/gcc/i686-w64-mingw32/4.9.2/../../../../i686-w64-mingw32/lib/../lib/libkernel32.a(dkxh.o)
 .text          0x0041bdc0        0x0 C:/Program Files/ETAS/ISOLAR-EVE3.0/plugins/com.etas.evetools.toolsfolder_1.4.5/Tools/MinGW/bin/../lib/gcc/i686-w64-mingw32/4.9.2/../../../../i686-w64-mingw32/lib/../lib/libkernel32.a(dkxt.o)
 .text          0x0041bdc0       0x30 C:/Program Files/ETAS/ISOLAR-EVE3.0/plugins/com.etas.evetools.toolsfolder_1.4.5/Tools/MinGW/bin/../lib/gcc/i686-w64-mingw32/4.9.2/../../../../i686-w64-mingw32/lib/../lib/libmingw32.a(lib32_libmingw32_a-tlsmthread.o)
                0x0041bdc0                __mingwthr_remove_key_dtor
                0x0041bdd0                __mingwthr_key_dtor
 .text          0x0041bdf0        0x0 C:/Program Files/ETAS/ISOLAR-EVE3.0/plugins/com.etas.evetools.toolsfolder_1.4.5/Tools/MinGW/bin/../lib/gcc/i686-w64-mingw32/4.9.2/crtend.o
 *(SORT(.text$*))
 .text$_ZL12read_sleb128PKhPl
                0x0041bdf0       0x40 C:/Program Files/ETAS/ISOLAR-EVE3.0/plugins/com.etas.evetools.toolsfolder_1.4.5/Tools/MinGW/bin/../lib/gcc/i686-w64-mingw32/4.9.2\libstdc++.a(eh_personality.o)
 .text$_ZL15get_ttype_entryP16lsda_header_infom
                0x0041be30       0x80 C:/Program Files/ETAS/ISOLAR-EVE3.0/plugins/com.etas.evetools.toolsfolder_1.4.5/Tools/MinGW/bin/../lib/gcc/i686-w64-mingw32/4.9.2\libstdc++.a(eh_personality.o)
 .text$_ZL16get_adjusted_ptrPKSt9type_infoS1_PPv
                0x0041beb0       0x60 C:/Program Files/ETAS/ISOLAR-EVE3.0/plugins/com.etas.evetools.toolsfolder_1.4.5/Tools/MinGW/bin/../lib/gcc/i686-w64-mingw32/4.9.2\libstdc++.a(eh_personality.o)
 .text$_ZL17parse_lsda_headerP15_Unwind_ContextPKhP16lsda_header_info
                0x0041bf10       0xf0 C:/Program Files/ETAS/ISOLAR-EVE3.0/plugins/com.etas.evetools.toolsfolder_1.4.5/Tools/MinGW/bin/../lib/gcc/i686-w64-mingw32/4.9.2\libstdc++.a(eh_personality.o)
 .text$_ZL20check_exception_specP16lsda_header_infoPKSt9type_infoPvl
                0x0041c000       0x70 C:/Program Files/ETAS/ISOLAR-EVE3.0/plugins/com.etas.evetools.toolsfolder_1.4.5/Tools/MinGW/bin/../lib/gcc/i686-w64-mingw32/4.9.2\libstdc++.a(eh_personality.o)
 .text$_ZL21base_of_encoded_valuehP15_Unwind_Context
                0x0041c070       0x70 C:/Program Files/ETAS/ISOLAR-EVE3.0/plugins/com.etas.evetools.toolsfolder_1.4.5/Tools/MinGW/bin/../lib/gcc/i686-w64-mingw32/4.9.2\libstdc++.a(eh_personality.o)
 .text$_ZL23__gxx_exception_cleanup19_Unwind_Reason_CodeP17_Unwind_Exception
                0x0041c0e0       0x50 C:/Program Files/ETAS/ISOLAR-EVE3.0/plugins/com.etas.evetools.toolsfolder_1.4.5/Tools/MinGW/bin/../lib/gcc/i686-w64-mingw32/4.9.2\libstdc++.a(eh_throw.o)
 .text$_ZL28read_encoded_value_with_basehjPKhPj
                0x0041c130       0xf0 C:/Program Files/ETAS/ISOLAR-EVE3.0/plugins/com.etas.evetools.toolsfolder_1.4.5/Tools/MinGW/bin/../lib/gcc/i686-w64-mingw32/4.9.2\libstdc++.a(eh_personality.o)
 .text$_ZN10__cxxabiv111__terminateEPFvvE
                0x0041c220       0x40 C:/Program Files/ETAS/ISOLAR-EVE3.0/plugins/com.etas.evetools.toolsfolder_1.4.5/Tools/MinGW/bin/../lib/gcc/i686-w64-mingw32/4.9.2\libstdc++.a(eh_terminate.o)
                0x0041c220                __cxxabiv1::__terminate(void (*)())
 .text$_ZN10__cxxabiv112__unexpectedEPFvvE
                0x0041c260       0x10 C:/Program Files/ETAS/ISOLAR-EVE3.0/plugins/com.etas.evetools.toolsfolder_1.4.5/Tools/MinGW/bin/../lib/gcc/i686-w64-mingw32/4.9.2\libstdc++.a(eh_terminate.o)
                0x0041c260                __cxxabiv1::__unexpected(void (*)())
 .text$_ZN10__cxxabiv115__forced_unwindD0Ev
                0x0041c270       0x10 C:/Program Files/ETAS/ISOLAR-EVE3.0/plugins/com.etas.evetools.toolsfolder_1.4.5/Tools/MinGW/bin/../lib/gcc/i686-w64-mingw32/4.9.2\libstdc++.a(eh_exception.o)
                0x0041c270                __cxxabiv1::__forced_unwind::~__forced_unwind()
 .text$_ZN10__cxxabiv115__forced_unwindD2Ev
                0x0041c280       0x10 C:/Program Files/ETAS/ISOLAR-EVE3.0/plugins/com.etas.evetools.toolsfolder_1.4.5/Tools/MinGW/bin/../lib/gcc/i686-w64-mingw32/4.9.2\libstdc++.a(eh_exception.o)
                0x0041c280                __cxxabiv1::__forced_unwind::~__forced_unwind()
                0x0041c280                __cxxabiv1::__forced_unwind::~__forced_unwind()
 .text$_ZN10__cxxabiv117__class_type_infoD0Ev
                0x0041c290       0x20 C:/Program Files/ETAS/ISOLAR-EVE3.0/plugins/com.etas.evetools.toolsfolder_1.4.5/Tools/MinGW/bin/../lib/gcc/i686-w64-mingw32/4.9.2\libstdc++.a(class_type_info.o)
                0x0041c290                __cxxabiv1::__class_type_info::~__class_type_info()
 .text$_ZN10__cxxabiv117__class_type_infoD2Ev
                0x0041c2b0       0x10 C:/Program Files/ETAS/ISOLAR-EVE3.0/plugins/com.etas.evetools.toolsfolder_1.4.5/Tools/MinGW/bin/../lib/gcc/i686-w64-mingw32/4.9.2\libstdc++.a(class_type_info.o)
                0x0041c2b0                __cxxabiv1::__class_type_info::~__class_type_info()
                0x0041c2b0                __cxxabiv1::__class_type_info::~__class_type_info()
 .text$_ZN10__cxxabiv119__foreign_exceptionD0Ev
                0x0041c2c0       0x10 C:/Program Files/ETAS/ISOLAR-EVE3.0/plugins/com.etas.evetools.toolsfolder_1.4.5/Tools/MinGW/bin/../lib/gcc/i686-w64-mingw32/4.9.2\libstdc++.a(eh_exception.o)
                0x0041c2c0                __cxxabiv1::__foreign_exception::~__foreign_exception()
 .text$_ZN10__cxxabiv119__foreign_exceptionD2Ev
                0x0041c2d0       0x10 C:/Program Files/ETAS/ISOLAR-EVE3.0/plugins/com.etas.evetools.toolsfolder_1.4.5/Tools/MinGW/bin/../lib/gcc/i686-w64-mingw32/4.9.2\libstdc++.a(eh_exception.o)
                0x0041c2d0                __cxxabiv1::__foreign_exception::~__foreign_exception()
                0x0041c2d0                __cxxabiv1::__foreign_exception::~__foreign_exception()
 .text$_ZN10__cxxabiv120__si_class_type_infoD0Ev
                0x0041c2e0       0x20 C:/Program Files/ETAS/ISOLAR-EVE3.0/plugins/com.etas.evetools.toolsfolder_1.4.5/Tools/MinGW/bin/../lib/gcc/i686-w64-mingw32/4.9.2\libstdc++.a(si_class_type_info.o)
                0x0041c2e0                __cxxabiv1::__si_class_type_info::~__si_class_type_info()
 .text$_ZN10__cxxabiv120__si_class_type_infoD2Ev
                0x0041c300       0x10 C:/Program Files/ETAS/ISOLAR-EVE3.0/plugins/com.etas.evetools.toolsfolder_1.4.5/Tools/MinGW/bin/../lib/gcc/i686-w64-mingw32/4.9.2\libstdc++.a(si_class_type_info.o)
                0x0041c300                __cxxabiv1::__si_class_type_info::~__si_class_type_info()
                0x0041c300                __cxxabiv1::__si_class_type_info::~__si_class_type_info()
 .text$_ZN10__cxxabiv121__vmi_class_type_infoD0Ev
                0x0041c310       0x20 C:/Program Files/ETAS/ISOLAR-EVE3.0/plugins/com.etas.evetools.toolsfolder_1.4.5/Tools/MinGW/bin/../lib/gcc/i686-w64-mingw32/4.9.2\libstdc++.a(vmi_class_type_info.o)
                0x0041c310                __cxxabiv1::__vmi_class_type_info::~__vmi_class_type_info()
 .text$_ZN10__cxxabiv121__vmi_class_type_infoD2Ev
                0x0041c330       0x10 C:/Program Files/ETAS/ISOLAR-EVE3.0/plugins/com.etas.evetools.toolsfolder_1.4.5/Tools/MinGW/bin/../lib/gcc/i686-w64-mingw32/4.9.2\libstdc++.a(vmi_class_type_info.o)
                0x0041c330                __cxxabiv1::__vmi_class_type_info::~__vmi_class_type_info()
                0x0041c330                __cxxabiv1::__vmi_class_type_info::~__vmi_class_type_info()
 .text$_ZN10vrtaDevice17GetPersistentDataEv
                0x0041c340       0x10 RTAOS.lib(vrtaCore.o)
                0x0041c340                vrtaDevice::GetPersistentData()
 .text$_ZN10vrtaDevice17SetPersistentDataEPht
                0x0041c350       0x10 RTAOS.lib(vrtaCore.o)
                0x0041c350                vrtaDevice::SetPersistentData(unsigned char*, unsigned short)
 .text$_ZN10vrtaDevice21GetPersistentDataSizeEv
                0x0041c360       0x10 RTAOS.lib(vrtaCore.o)
                0x0041c360                vrtaDevice::GetPersistentDataSize()
 .text$_ZN10vrtaSensor17GetPersistentDataEv
                0x0041c370       0x40 RTAOS.lib(vrtaSampleDevices.o)
                0x0041c370                vrtaSensor::GetPersistentData()
 .text$_ZN10vrtaSensor21GetPersistentDataSizeEv
                0x0041c3b0       0x10 RTAOS.lib(vrtaSampleDevices.o)
                0x0041c3b0                vrtaSensor::GetPersistentDataSize()
 .text$_ZN10vrtaSensor8StartingEv
                0x0041c3c0       0x10 RTAOS.lib(vrtaSampleDevices.o)
                0x0041c3c0                vrtaSensor::Starting()
 .text$_ZN10vrtaSensor8StoppingEv
                0x0041c3d0       0x10 RTAOS.lib(vrtaSampleDevices.o)
                0x0041c3d0                vrtaSensor::Stopping()
 .text$_ZN11vrtaCompare17GetPersistentDataEv
                0x0041c3e0       0x10 RTAOS.lib(vrtaSampleDevices.o)
                0x0041c3e0                vrtaCompare::GetPersistentData()
 .text$_ZN11vrtaCompare21GetPersistentDataSizeEv
                0x0041c3f0       0x10 RTAOS.lib(vrtaSampleDevices.o)
                0x0041c3f0                vrtaCompare::GetPersistentDataSize()
 .text$_ZN11vrtaCompare8StartingEv
                0x0041c400       0x10 RTAOS.lib(vrtaSampleDevices.o)
                0x0041c400                vrtaCompare::Starting()
 .text$_ZN11vrtaCompare8StoppingEv
                0x0041c410       0x10 RTAOS.lib(vrtaSampleDevices.o)
                0x0041c410                vrtaCompare::Stopping()
 .text$_ZN11vrtaCounter17GetPersistentDataEv
                0x0041c420       0x40 RTAOS.lib(vrtaSampleDevices.o)
                0x0041c420                vrtaCounter::GetPersistentData()
 .text$_ZN11vrtaCounter21GetPersistentDataSizeEv
                0x0041c460       0x10 RTAOS.lib(vrtaSampleDevices.o)
                0x0041c460                vrtaCounter::GetPersistentDataSize()
 .text$_ZN12vrtaActuator17GetPersistentDataEv
                0x0041c470       0x40 RTAOS.lib(vrtaSampleDevices.o)
                0x0041c470                vrtaActuator::GetPersistentData()
 .text$_ZN12vrtaActuator21GetPersistentDataSizeEv
                0x0041c4b0       0x10 RTAOS.lib(vrtaSampleDevices.o)
                0x0041c4b0                vrtaActuator::GetPersistentDataSize()
 .text$_ZN12vrtaActuator8StartingEv
                0x0041c4c0       0x10 RTAOS.lib(vrtaSampleDevices.o)
                0x0041c4c0                vrtaActuator::Starting()
 .text$_ZN12vrtaActuator8StoppingEv
                0x0041c4d0       0x10 RTAOS.lib(vrtaSampleDevices.o)
                0x0041c4d0                vrtaActuator::Stopping()
 .text$_ZN13VirtualDevice10ActionListD0Ev
                0x0041c4e0       0x30 RTAOS.lib(virtualDevice.o)
                0x0041c4e0                VirtualDevice::ActionList::~ActionList()
 .text$_ZN13VirtualDevice10ActionListD1Ev
                0x0041c510       0x20 RTAOS.lib(virtualDevice.o)
                0x0041c510                VirtualDevice::ActionList::~ActionList()
 .text$_ZN13VirtualDevice7OptListD0Ev
                0x0041c530       0x30 RTAOS.lib(virtualDevice.o)
                0x0041c530                VirtualDevice::OptList::~OptList()
 .text$_ZN13VirtualDevice7OptListD1Ev
                0x0041c560       0x20 RTAOS.lib(virtualDevice.o)
                0x0041c560                VirtualDevice::OptList::~OptList()
 .text$_ZN13VirtualDevice8StartingEv
                0x0041c580       0x10 RTAOS.lib(vrtaOSMonitorDevice.o)
                0x0041c580                VirtualDevice::Starting()
 .text$_ZN13VirtualDevice8StoppingEv
                0x0041c590       0x10 RTAOS.lib(vrtaOSMonitorDevice.o)
                0x0041c590                VirtualDevice::Stopping()
 .text$_ZN13VirtualDevice9EventListD0Ev
                0x0041c5a0       0x30 RTAOS.lib(virtualDevice.o)
                0x0041c5a0                VirtualDevice::EventList::~EventList()
 .text$_ZN13VirtualDevice9EventListD1Ev
                0x0041c5d0       0x20 RTAOS.lib(virtualDevice.o)
                0x0041c5d0                VirtualDevice::EventList::~EventList()
 .text$_ZN13vrtaBaseClock17GetPersistentDataEv
                0x0041c5f0       0x20 RTAOS.lib(vrtaSampleDevices.o)
                0x0041c5f0                vrtaBaseClock::GetPersistentData()
 .text$_ZN13vrtaBaseClock21GetPersistentDataSizeEv
                0x0041c610       0x10 RTAOS.lib(vrtaSampleDevices.o)
                0x0041c610                vrtaBaseClock::GetPersistentDataSize()
 .text$_ZN13vrtaBaseClock4StopEv
                0x0041c620       0x10 RTAOS.lib(vrtaSampleDevices.o)
                0x0041c620                vrtaBaseClock::Stop()
 .text$_ZN13vrtaBaseClock8StoppingEv
                0x0041c630       0x10 RTAOS.lib(vrtaSampleDevices.o)
                0x0041c630                vrtaBaseClock::Stopping()
 .text$_ZN13vrtaUpCounterC1EPcR13vrtaBaseClock
                0x0041c640       0x38 EVE_SystemClock.o
                0x0041c640                vrtaUpCounter::vrtaUpCounter(char*, vrtaBaseClock&)
 *fill*         0x0041c678        0x8 
 .text$_ZN14vrtaComparable17GetPersistentDataEv
                0x0041c680       0x10 RTAOS.lib(vrtaSampleDevices.o)
                0x0041c680                vrtaComparable::GetPersistentData()
 .text$_ZN14vrtaComparable21GetPersistentDataSizeEv
                0x0041c690       0x10 RTAOS.lib(vrtaSampleDevices.o)
                0x0041c690                vrtaComparable::GetPersistentDataSize()
 .text$_ZN14vrtaComparable5ValueEv
                0x0041c6a0       0x14 EVE_SystemClock.o
                0x0041c6a0                vrtaComparable::Value()
 *fill*         0x0041c6b4        0xc 
 .text$_ZN14vrtaComparable6SetValEj
                0x0041c6c0       0x10 RTAOS.lib(vrtaSampleDevices.o)
                0x0041c6c0                vrtaComparable::SetVal(unsigned int)
 .text$_ZN14vrtaComparable8SetValueEj
                0x0041c6d0       0x2c VirtualDevices.o
                0x0041c6d0                vrtaComparable::SetValue(unsigned int)
 *fill*         0x0041c6fc        0x4 
 .text$_ZN17SystemClockDevice10AutoActionERK10vrtaAction
                0x0041c700       0x40 RTAOS.lib(vrtaSystemClockDevice.o)
                0x0041c700                SystemClockDevice::AutoAction(vrtaAction const&)
 .text$_ZN17SystemClockDevice10CSLIFEventER9vrtaEvent
                0x0041c740       0x40 RTAOS.lib(vrtaSystemClockDevice.o)
                0x0041c740                SystemClockDevice::CSLIFEvent(vrtaEvent&)
 .text$_ZN17SystemClockDevice10ScaleEventER9vrtaEvent
                0x0041c780       0x30 RTAOS.lib(vrtaSystemClockDevice.o)
                0x0041c780                SystemClockDevice::ScaleEvent(vrtaEvent&)
 .text$_ZN17SystemClockDevice10TicksEventER9vrtaEvent
                0x0041c7b0       0x20 RTAOS.lib(vrtaSystemClockDevice.o)
                0x0041c7b0                SystemClockDevice::TicksEvent(vrtaEvent&)
 .text$_ZN17SystemClockDevice11DirectEventER9vrtaEvent
                0x0041c7d0       0xa0 RTAOS.lib(vrtaSystemClockDevice.o)
                0x0041c7d0                SystemClockDevice::DirectEvent(vrtaEvent&)
 .text$_ZN17SystemClockDevice11PauseActionERK10vrtaAction
                0x0041c870       0x40 RTAOS.lib(vrtaSystemClockDevice.o)
                0x0041c870                SystemClockDevice::PauseAction(vrtaAction const&)
 .text$_ZN17SystemClockDevice11ScaleActionERK10vrtaAction
                0x0041c8b0       0x40 RTAOS.lib(vrtaSystemClockDevice.o)
                0x0041c8b0                SystemClockDevice::ScaleAction(vrtaAction const&)
 .text$_ZN17SystemClockDevice11TickEndDataER9vrtaEvent
                0x0041c8f0       0x90 RTAOS.lib(vrtaSystemClockDevice.o)
                0x0041c8f0                SystemClockDevice::TickEndData(vrtaEvent&)
 .text$_ZN17SystemClockDevice12DirectActionERK10vrtaAction
                0x0041c980       0x40 RTAOS.lib(vrtaSystemClockDevice.o)
                0x0041c980                SystemClockDevice::DirectAction(vrtaAction const&)
 .text$_ZN17SystemClockDevice12DirectFreezeERK10vrtaAction
                0x0041c9c0       0x30 RTAOS.lib(vrtaSystemClockDevice.o)
                0x0041c9c0                SystemClockDevice::DirectFreeze(vrtaAction const&)
 .text$_ZN17SystemClockDevice12ResumeActionERK10vrtaAction
                0x0041c9f0       0x40 RTAOS.lib(vrtaSystemClockDevice.o)
                0x0041c9f0                SystemClockDevice::ResumeAction(vrtaAction const&)
 .text$_ZN17SystemClockDevice13GetDeviceInfoERN13VirtualDevice7OptListE
                0x0041ca30       0x60 RTAOS.lib(vrtaSystemClockDevice.o)
                0x0041ca30                SystemClockDevice::GetDeviceInfo(VirtualDevice::OptList&)
 .text$_ZN17SystemClockDevice13MonitorEventsERK10vrtaAction
                0x0041ca90       0x90 RTAOS.lib(vrtaSystemClockDevice.o)
                0x0041ca90                SystemClockDevice::MonitorEvents(vrtaAction const&)
 .text$_ZN17SystemClockDevice13StrategyEventER9vrtaEvent
                0x0041cb20       0x40 RTAOS.lib(vrtaSystemClockDevice.o)
                0x0041cb20                SystemClockDevice::StrategyEvent(vrtaEvent&)
 .text$_ZN17SystemClockDevice13UpdateAndTickERK10vrtaAction
                0x0041cb60       0xe0 RTAOS.lib(vrtaSystemClockDevice.o)
                0x0041cb60                SystemClockDevice::UpdateAndTick(vrtaAction const&)
 .text$_ZN17SystemClockDevice14IdleTickActionERK10vrtaAction
                0x0041cc40       0x40 RTAOS.lib(vrtaSystemClockDevice.o)
                0x0041cc40                SystemClockDevice::IdleTickAction(vrtaAction const&)
 .text$_ZN17SystemClockDevice14StrategyActionERK10vrtaAction
                0x0041cc80       0x50 RTAOS.lib(vrtaSystemClockDevice.o)
                0x0041cc80                SystemClockDevice::StrategyAction(vrtaAction const&)
 .text$_ZN17SystemClockDevice15DirectTickYieldERK10vrtaAction
                0x0041ccd0       0x30 RTAOS.lib(vrtaSystemClockDevice.o)
                0x0041ccd0                SystemClockDevice::DirectTickYield(vrtaAction const&)
 .text$_ZN17SystemClockDevice15GetDeviceEventsERN13VirtualDevice9EventListE
                0x0041cd00      0x3c0 RTAOS.lib(vrtaSystemClockDevice.o)
                0x0041cd00                SystemClockDevice::GetDeviceEvents(VirtualDevice::EventList&)
 .text$_ZN17SystemClockDevice16GetDeviceActionsERN13VirtualDevice10ActionListE
                0x0041d0c0      0x3e0 RTAOS.lib(vrtaSystemClockDevice.o)
                0x0041d0c0                SystemClockDevice::GetDeviceActions(VirtualDevice::ActionList&)
 .text$_ZN17SystemClockDevice19TicksRemainingEventER9vrtaEvent
                0x0041d4a0       0x30 RTAOS.lib(vrtaSystemClockDevice.o)
                0x0041d4a0                SystemClockDevice::TicksRemainingEvent(vrtaEvent&)
 .text$_ZN17SystemClockDevice20DirectTickYieldEventER9vrtaEvent
                0x0041d4d0       0x40 RTAOS.lib(vrtaSystemClockDevice.o)
                0x0041d4d0                SystemClockDevice::DirectTickYieldEvent(vrtaEvent&)
 .text$_ZN17SystemClockDevice5CSLIFERK10vrtaAction
                0x0041d510      0x1e0 RTAOS.lib(vrtaSystemClockDevice.o)
                0x0041d510                SystemClockDevice::CSLIF(vrtaAction const&)
 .text$_ZN17SystemClockDevice7MSEventER9vrtaEvent
                0x0041d6f0       0x30 RTAOS.lib(vrtaSystemClockDevice.o)
                0x0041d6f0                SystemClockDevice::MSEvent(vrtaEvent&)
 .text$_ZN17SystemClockDevice9ModeEventER9vrtaEvent
                0x0041d720       0x60 RTAOS.lib(vrtaSystemClockDevice.o)
                0x0041d720                SystemClockDevice::ModeEvent(vrtaEvent&)
 .text$_ZN17SystemClockDeviceD0Ev
                0x0041d780       0x20 RTAOS.lib(vrtaSystemClockDevice.o)
                0x0041d780                SystemClockDevice::~SystemClockDevice()
 .text$_ZN17SystemClockDeviceD1Ev
                0x0041d7a0       0x10 RTAOS.lib(vrtaSystemClockDevice.o)
                0x0041d7a0                SystemClockDevice::~SystemClockDevice()
 .text$_ZN17vrtaAdaptiveClockD0Ev
                0x0041d7b0       0x30 RTAOS.lib(vrtaSampleDevices.o)
                0x0041d7b0                vrtaAdaptiveClock::~vrtaAdaptiveClock()
 .text$_ZN17vrtaAdaptiveClockD1Ev
                0x0041d7e0       0x20 RTAOS.lib(vrtaSampleDevices.o)
                0x0041d7e0                vrtaAdaptiveClock::~vrtaAdaptiveClock()
 .text$_ZN26vrtaSystemClockIdleHandler4IdleEj
                0x0041d800      0x100 RTAOS.lib(vrtaSystemClock.o)
                0x0041d800                vrtaSystemClockIdleHandler::Idle(unsigned int)
 .text$_ZN34vrtaCustomTickSourceImplementation4TickEv
                0x0041d900       0x30 RTAOS.lib(vrtaSystemClock.o)
                0x0041d900                vrtaCustomTickSourceImplementation::Tick()
 .text$_ZN34vrtaCustomTickSourceImplementationD0Ev
                0x0041d930       0x30 RTAOS.lib(vrtaSystemClock.o)
                0x0041d930                vrtaCustomTickSourceImplementation::~vrtaCustomTickSourceImplementation()
 .text$_ZN34vrtaCustomTickSourceImplementationD1Ev
                0x0041d960       0x30 RTAOS.lib(vrtaSystemClock.o)
                0x0041d960                vrtaCustomTickSourceImplementation::~vrtaCustomTickSourceImplementation()
 .text$_ZN6OsCore10RunningISRER9vrtaEvent
                0x0041d990       0x30 RTAOS.lib(vrtaOSMonitorDevice.o)
                0x0041d990                OsCore::RunningISR(vrtaEvent&)
 .text$_ZN6OsCore11RunningTaskER9vrtaEvent
                0x0041d9c0       0x40 RTAOS.lib(vrtaOSMonitorDevice.o)
                0x0041d9c0                OsCore::RunningTask(vrtaEvent&)
 .text$_ZN6OsCore13GetDeviceInfoERN13VirtualDevice7OptListE
                0x0041da00       0x80 RTAOS.lib(vrtaOSMonitorDevice.o)
                0x0041da00                OsCore::GetDeviceInfo(VirtualDevice::OptList&)
 .text$_ZN6OsCore15GetDeviceEventsERN13VirtualDevice9EventListE
                0x0041da80      0x240 RTAOS.lib(vrtaOSMonitorDevice.o)
                0x0041da80                OsCore::GetDeviceEvents(VirtualDevice::EventList&)
 .text$_ZN6OsCore16GetDeviceActionsERN13VirtualDevice10ActionListE
                0x0041dcc0       0x70 RTAOS.lib(vrtaOSMonitorDevice.o)
                0x0041dcc0                OsCore::GetDeviceActions(VirtualDevice::ActionList&)
 .text$_ZN6OsCore5AppIDER9vrtaEvent
                0x0041dd30       0x20 RTAOS.lib(vrtaOSMonitorDevice.o)
                0x0041dd30                OsCore::AppID(vrtaEvent&)
 .text$_ZN6OsCore5IdlesER9vrtaEvent
                0x0041dd50       0x20 RTAOS.lib(vrtaOSMonitorDevice.o)
                0x0041dd50                OsCore::Idles(vrtaEvent&)
 .text$_ZN6OsCore6ParentER9vrtaEvent
                0x0041dd70       0x30 RTAOS.lib(vrtaOSMonitorDevice.o)
                0x0041dd70                OsCore::Parent(vrtaEvent&)
 .text$_ZN6OsCore7IdleSetERK10vrtaAction
                0x0041dda0       0x10 RTAOS.lib(vrtaOSMonitorDevice.o)
                0x0041dda0                OsCore::IdleSet(vrtaAction const&)
 .text$_ZN6OsCore9LastErrorER9vrtaEvent
                0x0041ddb0       0x30 RTAOS.lib(vrtaOSMonitorDevice.o)
                0x0041ddb0                OsCore::LastError(vrtaEvent&)
 .text$_ZN6OsCoreD0Ev
                0x0041dde0       0x20 RTAOS.lib(vrtaOSMonitorDevice.o)
                0x0041dde0                OsCore::~OsCore()
 .text$_ZN6OsCoreD1Ev
                0x0041de00       0x10 RTAOS.lib(vrtaOSMonitorDevice.o)
                0x0041de00                OsCore::~OsCore()
 .text$_ZN9OsMonitor12AppModeEventER9vrtaEvent
                0x0041de10       0x30 RTAOS.lib(vrtaOSMonitorDevice.o)
                0x0041de10                OsMonitor::AppModeEvent(vrtaEvent&)
 .text$_ZN9OsMonitor13GetDeviceInfoERN13VirtualDevice7OptListE
                0x0041de40      0x170 RTAOS.lib(vrtaOSMonitorDevice.o)
                0x0041de40                OsMonitor::GetDeviceInfo(VirtualDevice::OptList&)
 .text$_ZN9OsMonitor15GetDeviceEventsERN13VirtualDevice9EventListE
                0x0041dfb0     0x11c0 RTAOS.lib(vrtaOSMonitorDevice.o)
                0x0041dfb0                OsMonitor::GetDeviceEvents(VirtualDevice::EventList&)
 .text$_ZN9OsMonitor16GetDeviceActionsERN13VirtualDevice10ActionListE
                0x0041f170       0x10 RTAOS.lib(vrtaOSMonitorDevice.o)
                0x0041f170                OsMonitor::GetDeviceActions(VirtualDevice::ActionList&)
 .text$_ZN9OsMonitor18TASKTAKS_ECU_SPEEDER9vrtaEvent
                0x0041f180       0x60 RTAOS.lib(vrtaOSMonitorDevice.o)
                0x0041f180                OsMonitor::TASKTAKS_ECU_SPEED(vrtaEvent&)
 .text$_ZN9OsMonitor18TASKTASK_APP_MOTORER9vrtaEvent
                0x0041f1e0       0x60 RTAOS.lib(vrtaOSMonitorDevice.o)
                0x0041f1e0                OsMonitor::TASKTASK_APP_MOTOR(vrtaEvent&)
 .text$_ZN9OsMonitor18TASKTASK_ECU_LIGHTER9vrtaEvent
                0x0041f240       0x60 RTAOS.lib(vrtaOSMonitorDevice.o)
                0x0041f240                OsMonitor::TASKTASK_ECU_LIGHT(vrtaEvent&)
 .text$_ZN9OsMonitor20TASKTASK_APP_LOWBEAMER9vrtaEvent
                0x0041f2a0       0x60 RTAOS.lib(vrtaOSMonitorDevice.o)
                0x0041f2a0                OsMonitor::TASKTASK_APP_LOWBEAM(vrtaEvent&)
 .text$_ZN9OsMonitor21TASKTASK_APP_HIGHBEAMER9vrtaEvent
                0x0041f300       0x60 RTAOS.lib(vrtaOSMonitorDevice.o)
                0x0041f300                OsMonitor::TASKTASK_APP_HIGHBEAM(vrtaEvent&)
 .text$_ZN9OsMonitor21TASKTASK_ECU_ACTUATORER9vrtaEvent
                0x0041f360       0x60 RTAOS.lib(vrtaOSMonitorDevice.o)
                0x0041f360                OsMonitor::TASKTASK_ECU_ACTUATOR(vrtaEvent&)
 .text$_ZN9OsMonitor21TASKTASK_ECU_DISTANCEER9vrtaEvent
                0x0041f3c0       0x60 RTAOS.lib(vrtaOSMonitorDevice.o)
                0x0041f3c0                OsMonitor::TASKTASK_ECU_DISTANCE(vrtaEvent&)
 .text$_ZN9OsMonitor21TASKTASK_SENSOR_LIGHTER9vrtaEvent
                0x0041f420       0x60 RTAOS.lib(vrtaOSMonitorDevice.o)
                0x0041f420                OsMonitor::TASKTASK_SENSOR_LIGHT(vrtaEvent&)
 .text$_ZN9OsMonitor21TASKTASK_SENSOR_SPEEDER9vrtaEvent
                0x0041f480       0x60 RTAOS.lib(vrtaOSMonitorDevice.o)
                0x0041f480                OsMonitor::TASKTASK_SENSOR_SPEED(vrtaEvent&)
 .text$_ZN9OsMonitor22AlarmRte_TimeoutAlarm1ER9vrtaEvent
                0x0041f4e0       0x70 RTAOS.lib(vrtaOSMonitorDevice.o)
                0x0041f4e0                OsMonitor::AlarmRte_TimeoutAlarm1(vrtaEvent&)
 .text$_ZN9OsMonitor22AlarmRte_TimeoutAlarm2ER9vrtaEvent
                0x0041f550       0x70 RTAOS.lib(vrtaOSMonitorDevice.o)
                0x0041f550                OsMonitor::AlarmRte_TimeoutAlarm2(vrtaEvent&)
 .text$_ZN9OsMonitor22AlarmRte_TimeoutAlarm3ER9vrtaEvent
                0x0041f5c0       0x70 RTAOS.lib(vrtaOSMonitorDevice.o)
                0x0041f5c0                OsMonitor::AlarmRte_TimeoutAlarm3(vrtaEvent&)
 .text$_ZN9OsMonitor22AlarmRte_TimeoutAlarm4ER9vrtaEvent
                0x0041f630       0x70 RTAOS.lib(vrtaOSMonitorDevice.o)
                0x0041f630                OsMonitor::AlarmRte_TimeoutAlarm4(vrtaEvent&)
 .text$_ZN9OsMonitor22AlarmRte_TimeoutAlarm5ER9vrtaEvent
                0x0041f6a0       0x70 RTAOS.lib(vrtaOSMonitorDevice.o)
                0x0041f6a0                OsMonitor::AlarmRte_TimeoutAlarm5(vrtaEvent&)
 .text$_ZN9OsMonitor22AlarmRte_TimeoutAlarm6ER9vrtaEvent
                0x0041f710       0x70 RTAOS.lib(vrtaOSMonitorDevice.o)
                0x0041f710                OsMonitor::AlarmRte_TimeoutAlarm6(vrtaEvent&)
 .text$_ZN9OsMonitor22CounterRte_TOutCounterER9vrtaEvent
                0x0041f780      0x210 RTAOS.lib(vrtaOSMonitorDevice.o)
                0x0041f780                OsMonitor::CounterRte_TOutCounter(vrtaEvent&)
 .text$_ZN9OsMonitor22CounterRte_TickCounterER9vrtaEvent
                0x0041f990       0x60 RTAOS.lib(vrtaOSMonitorDevice.o)
                0x0041f990                OsMonitor::CounterRte_TickCounter(vrtaEvent&)
 .text$_ZN9OsMonitor22TASKTASK_ECU_LIGHTMODEER9vrtaEvent
                0x0041f9f0       0x60 RTAOS.lib(vrtaOSMonitorDevice.o)
                0x0041f9f0                OsMonitor::TASKTASK_ECU_LIGHTMODE(vrtaEvent&)
 .text$_ZN9OsMonitor22TableRte_ScheduleTableER9vrtaEvent
                0x0041fa50       0x60 RTAOS.lib(vrtaOSMonitorDevice.o)
                0x0041fa50                OsMonitor::TableRte_ScheduleTable(vrtaEvent&)
 .text$_ZN9OsMonitor23ISRVECU_SystemClock_ISRER9vrtaEvent
                0x0041fab0       0x30 RTAOS.lib(vrtaOSMonitorDevice.o)
                0x0041fab0                OsMonitor::ISRVECU_SystemClock_ISR(vrtaEvent&)
 .text$_ZN9OsMonitor24TASKTASK_SENSOR_DISTANCEER9vrtaEvent
                0x0041fae0       0x60 RTAOS.lib(vrtaOSMonitorDevice.o)
                0x0041fae0                OsMonitor::TASKTASK_SENSOR_DISTANCE(vrtaEvent&)
 .text$_ZN9OsMonitor25TASKTASK_ACT_LOWBEAM_SENDER9vrtaEvent
                0x0041fb40       0x60 RTAOS.lib(vrtaOSMonitorDevice.o)
                0x0041fb40                OsMonitor::TASKTASK_ACT_LOWBEAM_SEND(vrtaEvent&)
 .text$_ZN9OsMonitor25TASKTASK_SENSOR_LIGHTMODEER9vrtaEvent
                0x0041fba0       0x60 RTAOS.lib(vrtaOSMonitorDevice.o)
                0x0041fba0                OsMonitor::TASKTASK_SENSOR_LIGHTMODE(vrtaEvent&)
 .text$_ZN9OsMonitor26TASKTASK_ACT_HIGHBEAM_SENDER9vrtaEvent
                0x0041fc00       0x60 RTAOS.lib(vrtaOSMonitorDevice.o)
                0x0041fc00                OsMonitor::TASKTASK_ACT_HIGHBEAM_SEND(vrtaEvent&)
 .text$_ZN9OsMonitor26TASKTASK_EUC_STEERINGANGLEER9vrtaEvent
                0x0041fc60       0x60 RTAOS.lib(vrtaOSMonitorDevice.o)
                0x0041fc60                OsMonitor::TASKTASK_EUC_STEERINGANGLE(vrtaEvent&)
 .text$_ZN9OsMonitor28TASKTASK_ACT_LOWBEAM_RECEIVEER9vrtaEvent
                0x0041fcc0       0x60 RTAOS.lib(vrtaOSMonitorDevice.o)
                0x0041fcc0                OsMonitor::TASKTASK_ACT_LOWBEAM_RECEIVE(vrtaEvent&)
 .text$_ZN9OsMonitor29TASKTASK_ACT_HIGHBEAM_RECEIVEER9vrtaEvent
                0x0041fd20       0x60 RTAOS.lib(vrtaOSMonitorDevice.o)
                0x0041fd20                OsMonitor::TASKTASK_ACT_HIGHBEAM_RECEIVE(vrtaEvent&)
 .text$_ZN9OsMonitor29TASKTASK_ACT_UPDOWNANGLE_SENDER9vrtaEvent
                0x0041fd80       0x60 RTAOS.lib(vrtaOSMonitorDevice.o)
                0x0041fd80                OsMonitor::TASKTASK_ACT_UPDOWNANGLE_SEND(vrtaEvent&)
 .text$_ZN9OsMonitor29TASKTASK_SENSOR_STEERINGANGLEER9vrtaEvent
                0x0041fde0       0x60 RTAOS.lib(vrtaOSMonitorDevice.o)
                0x0041fde0                OsMonitor::TASKTASK_SENSOR_STEERINGANGLE(vrtaEvent&)
 .text$_ZN9OsMonitor32TASKTASK_ACT_LEFTRIGHTANGLE_SENDER9vrtaEvent
                0x0041fe40       0x60 RTAOS.lib(vrtaOSMonitorDevice.o)
                0x0041fe40                OsMonitor::TASKTASK_ACT_LEFTRIGHTANGLE_SEND(vrtaEvent&)
 .text$_ZN9OsMonitor32TASKTASK_ACT_UPDOWNANGLE_RECEIVEER9vrtaEvent
                0x0041fea0       0x60 RTAOS.lib(vrtaOSMonitorDevice.o)
                0x0041fea0                OsMonitor::TASKTASK_ACT_UPDOWNANGLE_RECEIVE(vrtaEvent&)
 .text$_ZN9OsMonitor35TASKTASK_ACT_LEFTRIGHTANGLE_RECEIVEER9vrtaEvent
                0x0041ff00       0x60 RTAOS.lib(vrtaOSMonitorDevice.o)
                0x0041ff00                OsMonitor::TASKTASK_ACT_LEFTRIGHTANGLE_RECEIVE(vrtaEvent&)
 .text$_ZN9OsMonitorC1EPKc
                0x0041ff60      0x100 RTAOS.lib(vrtaOSMonitorDevice.o)
                0x0041ff60                OsMonitor::OsMonitor(char const*)
 .text$_ZN9OsMonitorD0Ev
                0x00420060       0x20 RTAOS.lib(vrtaOSMonitorDevice.o)
                0x00420060                OsMonitor::~OsMonitor()
 .text$_ZN9OsMonitorD1Ev
                0x00420080       0x10 RTAOS.lib(vrtaOSMonitorDevice.o)
                0x00420080                OsMonitor::~OsMonitor()
 .text$_ZN9__gnu_cxx24__concurrence_lock_errorD0Ev
                0x00420090       0x20 C:/Program Files/ETAS/ISOLAR-EVE3.0/plugins/com.etas.evetools.toolsfolder_1.4.5/Tools/MinGW/bin/../lib/gcc/i686-w64-mingw32/4.9.2\libstdc++.a(eh_alloc.o)
                0x00420090                __gnu_cxx::__concurrence_lock_error::~__concurrence_lock_error()
 .text$_ZN9__gnu_cxx24__concurrence_lock_errorD1Ev
                0x004200b0       0x10 C:/Program Files/ETAS/ISOLAR-EVE3.0/plugins/com.etas.evetools.toolsfolder_1.4.5/Tools/MinGW/bin/../lib/gcc/i686-w64-mingw32/4.9.2\libstdc++.a(eh_alloc.o)
                0x004200b0                __gnu_cxx::__concurrence_lock_error::~__concurrence_lock_error()
 .text$_ZN9__gnu_cxx26__concurrence_unlock_errorD0Ev
                0x004200c0       0x20 C:/Program Files/ETAS/ISOLAR-EVE3.0/plugins/com.etas.evetools.toolsfolder_1.4.5/Tools/MinGW/bin/../lib/gcc/i686-w64-mingw32/4.9.2\libstdc++.a(eh_alloc.o)
                0x004200c0                __gnu_cxx::__concurrence_unlock_error::~__concurrence_unlock_error()
 .text$_ZN9__gnu_cxx26__concurrence_unlock_errorD1Ev
                0x004200e0       0x10 C:/Program Files/ETAS/ISOLAR-EVE3.0/plugins/com.etas.evetools.toolsfolder_1.4.5/Tools/MinGW/bin/../lib/gcc/i686-w64-mingw32/4.9.2\libstdc++.a(eh_alloc.o)
                0x004200e0                __gnu_cxx::__concurrence_unlock_error::~__concurrence_unlock_error()
 .text$_ZN9__gnu_cxx27__verbose_terminate_handlerEv
                0x004200f0      0x1e0 C:/Program Files/ETAS/ISOLAR-EVE3.0/plugins/com.etas.evetools.toolsfolder_1.4.5/Tools/MinGW/bin/../lib/gcc/i686-w64-mingw32/4.9.2\libstdc++.a(vterminate.o)
                0x004200f0                __gnu_cxx::__verbose_terminate_handler()
 .text$_ZN9__gnu_cxx30__throw_concurrence_lock_errorEv
                0x004202d0       0x30 C:/Program Files/ETAS/ISOLAR-EVE3.0/plugins/com.etas.evetools.toolsfolder_1.4.5/Tools/MinGW/bin/../lib/gcc/i686-w64-mingw32/4.9.2\libstdc++.a(eh_alloc.o)
                0x004202d0                __gnu_cxx::__throw_concurrence_lock_error()
 .text$_ZN9__gnu_cxx32__throw_concurrence_unlock_errorEv
                0x00420300       0x30 C:/Program Files/ETAS/ISOLAR-EVE3.0/plugins/com.etas.evetools.toolsfolder_1.4.5/Tools/MinGW/bin/../lib/gcc/i686-w64-mingw32/4.9.2\libstdc++.a(eh_alloc.o)
                0x00420300                __gnu_cxx::__throw_concurrence_unlock_error()
 .text$_ZN9vrtaClockD0Ev
                0x00420330       0x30 RTAOS.lib(vrtaSampleDevices.o)
                0x00420330                vrtaClock::~vrtaClock()
 .text$_ZN9vrtaClockD1Ev
                0x00420360       0x3c EVE_SystemClock.o
                0x00420360                vrtaClock::~vrtaClock()
 *fill*         0x0042039c        0x4 
 .text$_ZNK10__cxxabiv117__class_type_info10__do_catchEPKSt9type_infoPPvj
                0x004203a0       0x50 C:/Program Files/ETAS/ISOLAR-EVE3.0/plugins/com.etas.evetools.toolsfolder_1.4.5/Tools/MinGW/bin/../lib/gcc/i686-w64-mingw32/4.9.2\libstdc++.a(class_type_info.o)
                0x004203a0                __cxxabiv1::__class_type_info::__do_catch(std::type_info const*, void**, unsigned int) const
 .text$_ZNK10__cxxabiv117__class_type_info11__do_upcastEPKS0_PKvRNS0_15__upcast_resultE
                0x004203f0       0x40 C:/Program Files/ETAS/ISOLAR-EVE3.0/plugins/com.etas.evetools.toolsfolder_1.4.5/Tools/MinGW/bin/../lib/gcc/i686-w64-mingw32/4.9.2\libstdc++.a(class_type_info.o)
                0x004203f0                __cxxabiv1::__class_type_info::__do_upcast(__cxxabiv1::__class_type_info const*, void const*, __cxxabiv1::__class_type_info::__upcast_result&) const
 .text$_ZNK10__cxxabiv117__class_type_info11__do_upcastEPKS0_PPv
                0x00420430       0x70 C:/Program Files/ETAS/ISOLAR-EVE3.0/plugins/com.etas.evetools.toolsfolder_1.4.5/Tools/MinGW/bin/../lib/gcc/i686-w64-mingw32/4.9.2\libstdc++.a(class_type_info.o)
                0x00420430                __cxxabiv1::__class_type_info::__do_upcast(__cxxabiv1::__class_type_info const*, void**) const
 .text$_ZNK10__cxxabiv117__class_type_info12__do_dyncastEiNS0_10__sub_kindEPKS0_PKvS3_S5_RNS0_16__dyncast_resultE
                0x004204a0       0x70 C:/Program Files/ETAS/ISOLAR-EVE3.0/plugins/com.etas.evetools.toolsfolder_1.4.5/Tools/MinGW/bin/../lib/gcc/i686-w64-mingw32/4.9.2\libstdc++.a(class_type_info.o)
                0x004204a0                __cxxabiv1::__class_type_info::__do_dyncast(int, __cxxabiv1::__class_type_info::__sub_kind, __cxxabiv1::__class_type_info const*, void const*, __cxxabiv1::__class_type_info const*, void const*, __cxxabiv1::__class_type_info::__dyncast_result&) const
 .text$_ZNK10__cxxabiv117__class_type_info20__do_find_public_srcEiPKvPKS0_S2_
                0x00420510       0x20 C:/Program Files/ETAS/ISOLAR-EVE3.0/plugins/com.etas.evetools.toolsfolder_1.4.5/Tools/MinGW/bin/../lib/gcc/i686-w64-mingw32/4.9.2\libstdc++.a(class_type_info.o)
                0x00420510                __cxxabiv1::__class_type_info::__do_find_public_src(int, void const*, __cxxabiv1::__class_type_info const*, void const*) const
 .text$_ZNK10__cxxabiv120__si_class_type_info11__do_upcastEPKNS_17__class_type_infoEPKvRNS1_15__upcast_resultE
                0x00420530       0x60 C:/Program Files/ETAS/ISOLAR-EVE3.0/plugins/com.etas.evetools.toolsfolder_1.4.5/Tools/MinGW/bin/../lib/gcc/i686-w64-mingw32/4.9.2\libstdc++.a(si_class_type_info.o)
                0x00420530                __cxxabiv1::__si_class_type_info::__do_upcast(__cxxabiv1::__class_type_info const*, void const*, __cxxabiv1::__class_type_info::__upcast_result&) const
 .text$_ZNK10__cxxabiv120__si_class_type_info12__do_dyncastEiNS_17__class_type_info10__sub_kindEPKS1_PKvS4_S6_RNS1_16__dyncast_resultE
                0x00420590       0xf0 C:/Program Files/ETAS/ISOLAR-EVE3.0/plugins/com.etas.evetools.toolsfolder_1.4.5/Tools/MinGW/bin/../lib/gcc/i686-w64-mingw32/4.9.2\libstdc++.a(si_class_type_info.o)
                0x00420590                __cxxabiv1::__si_class_type_info::__do_dyncast(int, __cxxabiv1::__class_type_info::__sub_kind, __cxxabiv1::__class_type_info const*, void const*, __cxxabiv1::__class_type_info const*, void const*, __cxxabiv1::__class_type_info::__dyncast_result&) const
 .text$_ZNK10__cxxabiv120__si_class_type_info20__do_find_public_srcEiPKvPKNS_17__class_type_infoES2_
                0x00420680       0x70 C:/Program Files/ETAS/ISOLAR-EVE3.0/plugins/com.etas.evetools.toolsfolder_1.4.5/Tools/MinGW/bin/../lib/gcc/i686-w64-mingw32/4.9.2\libstdc++.a(si_class_type_info.o)
                0x00420680                __cxxabiv1::__si_class_type_info::__do_find_public_src(int, void const*, __cxxabiv1::__class_type_info const*, void const*) const
 .text$_ZNK10__cxxabiv121__vmi_class_type_info11__do_upcastEPKNS_17__class_type_infoEPKvRNS1_15__upcast_resultE
                0x004206f0      0x260 C:/Program Files/ETAS/ISOLAR-EVE3.0/plugins/com.etas.evetools.toolsfolder_1.4.5/Tools/MinGW/bin/../lib/gcc/i686-w64-mingw32/4.9.2\libstdc++.a(vmi_class_type_info.o)
                0x004206f0                __cxxabiv1::__vmi_class_type_info::__do_upcast(__cxxabiv1::__class_type_info const*, void const*, __cxxabiv1::__class_type_info::__upcast_result&) const
 .text$_ZNK10__cxxabiv121__vmi_class_type_info12__do_dyncastEiNS_17__class_type_info10__sub_kindEPKS1_PKvS4_S6_RNS1_16__dyncast_resultE
                0x00420950      0x680 C:/Program Files/ETAS/ISOLAR-EVE3.0/plugins/com.etas.evetools.toolsfolder_1.4.5/Tools/MinGW/bin/../lib/gcc/i686-w64-mingw32/4.9.2\libstdc++.a(vmi_class_type_info.o)
                0x00420950                __cxxabiv1::__vmi_class_type_info::__do_dyncast(int, __cxxabiv1::__class_type_info::__sub_kind, __cxxabiv1::__class_type_info const*, void const*, __cxxabiv1::__class_type_info const*, void const*, __cxxabiv1::__class_type_info::__dyncast_result&) const
 .text$_ZNK10__cxxabiv121__vmi_class_type_info20__do_find_public_srcEiPKvPKNS_17__class_type_infoES2_
                0x00420fd0       0xd0 C:/Program Files/ETAS/ISOLAR-EVE3.0/plugins/com.etas.evetools.toolsfolder_1.4.5/Tools/MinGW/bin/../lib/gcc/i686-w64-mingw32/4.9.2\libstdc++.a(vmi_class_type_info.o)
                0x00420fd0                __cxxabiv1::__vmi_class_type_info::__do_find_public_src(int, void const*, __cxxabiv1::__class_type_info const*, void const*) const
 .text$_ZNK9__gnu_cxx24__concurrence_lock_error4whatEv
                0x004210a0       0x10 C:/Program Files/ETAS/ISOLAR-EVE3.0/plugins/com.etas.evetools.toolsfolder_1.4.5/Tools/MinGW/bin/../lib/gcc/i686-w64-mingw32/4.9.2\libstdc++.a(eh_alloc.o)
                0x004210a0                __gnu_cxx::__concurrence_lock_error::what() const
 .text$_ZNK9__gnu_cxx26__concurrence_unlock_error4whatEv
                0x004210b0       0x10 C:/Program Files/ETAS/ISOLAR-EVE3.0/plugins/com.etas.evetools.toolsfolder_1.4.5/Tools/MinGW/bin/../lib/gcc/i686-w64-mingw32/4.9.2\libstdc++.a(eh_alloc.o)
                0x004210b0                __gnu_cxx::__concurrence_unlock_error::what() const
 .text$_ZNKSt13bad_exception4whatEv
                0x004210c0       0x10 C:/Program Files/ETAS/ISOLAR-EVE3.0/plugins/com.etas.evetools.toolsfolder_1.4.5/Tools/MinGW/bin/../lib/gcc/i686-w64-mingw32/4.9.2\libstdc++.a(eh_exception.o)
                0x004210c0                std::bad_exception::what() const
 .text$_ZNKSt9bad_alloc4whatEv
                0x004210d0       0x10 C:/Program Files/ETAS/ISOLAR-EVE3.0/plugins/com.etas.evetools.toolsfolder_1.4.5/Tools/MinGW/bin/../lib/gcc/i686-w64-mingw32/4.9.2\libstdc++.a(bad_alloc.o)
                0x004210d0                std::bad_alloc::what() const
 .text$_ZNKSt9exception4whatEv
                0x004210e0       0x10 C:/Program Files/ETAS/ISOLAR-EVE3.0/plugins/com.etas.evetools.toolsfolder_1.4.5/Tools/MinGW/bin/../lib/gcc/i686-w64-mingw32/4.9.2\libstdc++.a(eh_exception.o)
                0x004210e0                std::exception::what() const
 .text$_ZNKSt9type_info10__do_catchEPKS_PPvj
                0x004210f0       0x20 C:/Program Files/ETAS/ISOLAR-EVE3.0/plugins/com.etas.evetools.toolsfolder_1.4.5/Tools/MinGW/bin/../lib/gcc/i686-w64-mingw32/4.9.2\libstdc++.a(tinfo.o)
                0x004210f0                std::type_info::__do_catch(std::type_info const*, void**, unsigned int) const
 .text$_ZNKSt9type_info11__do_upcastEPKN10__cxxabiv117__class_type_infoEPPv
                0x00421110       0x10 C:/Program Files/ETAS/ISOLAR-EVE3.0/plugins/com.etas.evetools.toolsfolder_1.4.5/Tools/MinGW/bin/../lib/gcc/i686-w64-mingw32/4.9.2\libstdc++.a(tinfo.o)
                0x00421110                std::type_info::__do_upcast(__cxxabiv1::__class_type_info const*, void**) const
 .text$_ZNKSt9type_info14__is_pointer_pEv
                0x00421120       0x10 C:/Program Files/ETAS/ISOLAR-EVE3.0/plugins/com.etas.evetools.toolsfolder_1.4.5/Tools/MinGW/bin/../lib/gcc/i686-w64-mingw32/4.9.2\libstdc++.a(tinfo.o)
                0x00421120                std::type_info::__is_pointer_p() const
 .text$_ZNKSt9type_info15__is_function_pEv
                0x00421130       0x10 C:/Program Files/ETAS/ISOLAR-EVE3.0/plugins/com.etas.evetools.toolsfolder_1.4.5/Tools/MinGW/bin/../lib/gcc/i686-w64-mingw32/4.9.2\libstdc++.a(tinfo.o)
                0x00421130                std::type_info::__is_function_p() const
 .text$_ZNKSt9type_infoeqERKS_
                0x00421140       0x50 C:/Program Files/ETAS/ISOLAR-EVE3.0/plugins/com.etas.evetools.toolsfolder_1.4.5/Tools/MinGW/bin/../lib/gcc/i686-w64-mingw32/4.9.2\libstdc++.a(tinfo.o)
                0x00421140                std::type_info::operator==(std::type_info const&) const
 .text$_ZNSt13bad_exceptionD0Ev
                0x00421190       0x10 C:/Program Files/ETAS/ISOLAR-EVE3.0/plugins/com.etas.evetools.toolsfolder_1.4.5/Tools/MinGW/bin/../lib/gcc/i686-w64-mingw32/4.9.2\libstdc++.a(eh_exception.o)
                0x00421190                std::bad_exception::~bad_exception()
 .text$_ZNSt13bad_exceptionD2Ev
                0x004211a0       0x10 C:/Program Files/ETAS/ISOLAR-EVE3.0/plugins/com.etas.evetools.toolsfolder_1.4.5/Tools/MinGW/bin/../lib/gcc/i686-w64-mingw32/4.9.2\libstdc++.a(eh_exception.o)
                0x004211a0                std::bad_exception::~bad_exception()
                0x004211a0                std::bad_exception::~bad_exception()
 .text$_ZNSt9bad_allocD0Ev
                0x004211b0       0x20 C:/Program Files/ETAS/ISOLAR-EVE3.0/plugins/com.etas.evetools.toolsfolder_1.4.5/Tools/MinGW/bin/../lib/gcc/i686-w64-mingw32/4.9.2\libstdc++.a(bad_alloc.o)
                0x004211b0                std::bad_alloc::~bad_alloc()
 .text$_ZNSt9bad_allocD2Ev
                0x004211d0       0x10 C:/Program Files/ETAS/ISOLAR-EVE3.0/plugins/com.etas.evetools.toolsfolder_1.4.5/Tools/MinGW/bin/../lib/gcc/i686-w64-mingw32/4.9.2\libstdc++.a(bad_alloc.o)
                0x004211d0                std::bad_alloc::~bad_alloc()
                0x004211d0                std::bad_alloc::~bad_alloc()
 .text$_ZNSt9exceptionD0Ev
                0x004211e0       0x10 C:/Program Files/ETAS/ISOLAR-EVE3.0/plugins/com.etas.evetools.toolsfolder_1.4.5/Tools/MinGW/bin/../lib/gcc/i686-w64-mingw32/4.9.2\libstdc++.a(eh_exception.o)
                0x004211e0                std::exception::~exception()
 .text$_ZNSt9exceptionD2Ev
                0x004211f0       0x10 C:/Program Files/ETAS/ISOLAR-EVE3.0/plugins/com.etas.evetools.toolsfolder_1.4.5/Tools/MinGW/bin/../lib/gcc/i686-w64-mingw32/4.9.2\libstdc++.a(eh_exception.o)
                0x004211f0                std::exception::~exception()
                0x004211f0                std::exception::~exception()
 .text$_ZNSt9type_infoD0Ev
                0x00421200       0x10 C:/Program Files/ETAS/ISOLAR-EVE3.0/plugins/com.etas.evetools.toolsfolder_1.4.5/Tools/MinGW/bin/../lib/gcc/i686-w64-mingw32/4.9.2\libstdc++.a(tinfo.o)
                0x00421200                std::type_info::~type_info()
 .text$_ZNSt9type_infoD2Ev
                0x00421210       0x10 C:/Program Files/ETAS/ISOLAR-EVE3.0/plugins/com.etas.evetools.toolsfolder_1.4.5/Tools/MinGW/bin/../lib/gcc/i686-w64-mingw32/4.9.2\libstdc++.a(tinfo.o)
                0x00421210                std::type_info::~type_info()
                0x00421210                std::type_info::~type_info()
 .text$_ZSt10unexpectedv
                0x00421220       0x10 C:/Program Files/ETAS/ISOLAR-EVE3.0/plugins/com.etas.evetools.toolsfolder_1.4.5/Tools/MinGW/bin/../lib/gcc/i686-w64-mingw32/4.9.2\libstdc++.a(eh_terminate.o)
                0x00421220                std::unexpected()
 .text$_ZSt13get_terminatev
                0x00421230       0x10 C:/Program Files/ETAS/ISOLAR-EVE3.0/plugins/com.etas.evetools.toolsfolder_1.4.5/Tools/MinGW/bin/../lib/gcc/i686-w64-mingw32/4.9.2\libstdc++.a(eh_terminate.o)
                0x00421230                std::get_terminate()
 .text$_ZSt13set_terminatePFvvE
                0x00421240       0x10 C:/Program Files/ETAS/ISOLAR-EVE3.0/plugins/com.etas.evetools.toolsfolder_1.4.5/Tools/MinGW/bin/../lib/gcc/i686-w64-mingw32/4.9.2\libstdc++.a(eh_terminate.o)
                0x00421240                std::set_terminate(void (*)())
 .text$_ZSt14get_unexpectedv
                0x00421250       0x10 C:/Program Files/ETAS/ISOLAR-EVE3.0/plugins/com.etas.evetools.toolsfolder_1.4.5/Tools/MinGW/bin/../lib/gcc/i686-w64-mingw32/4.9.2\libstdc++.a(eh_terminate.o)
                0x00421250                std::get_unexpected()
 .text$_ZSt14set_unexpectedPFvvE
                0x00421260       0x10 C:/Program Files/ETAS/ISOLAR-EVE3.0/plugins/com.etas.evetools.toolsfolder_1.4.5/Tools/MinGW/bin/../lib/gcc/i686-w64-mingw32/4.9.2\libstdc++.a(eh_terminate.o)
                0x00421260                std::set_unexpected(void (*)())
 .text$_ZSt15get_new_handlerv
                0x00421270       0x10 C:/Program Files/ETAS/ISOLAR-EVE3.0/plugins/com.etas.evetools.toolsfolder_1.4.5/Tools/MinGW/bin/../lib/gcc/i686-w64-mingw32/4.9.2\libstdc++.a(new_handler.o)
                0x00421270                std::get_new_handler()
 .text$_ZSt15set_new_handlerPFvvE
                0x00421280       0x10 C:/Program Files/ETAS/ISOLAR-EVE3.0/plugins/com.etas.evetools.toolsfolder_1.4.5/Tools/MinGW/bin/../lib/gcc/i686-w64-mingw32/4.9.2\libstdc++.a(new_handler.o)
                0x00421280                std::set_new_handler(void (*)())
 .text$_ZSt18uncaught_exceptionv
                0x00421290       0x20 C:/Program Files/ETAS/ISOLAR-EVE3.0/plugins/com.etas.evetools.toolsfolder_1.4.5/Tools/MinGW/bin/../lib/gcc/i686-w64-mingw32/4.9.2\libstdc++.a(eh_catch.o)
                0x00421290                std::uncaught_exception()
 .text$_ZSt9terminatev
                0x004212b0       0x10 C:/Program Files/ETAS/ISOLAR-EVE3.0/plugins/com.etas.evetools.toolsfolder_1.4.5/Tools/MinGW/bin/../lib/gcc/i686-w64-mingw32/4.9.2\libstdc++.a(eh_terminate.o)
                0x004212b0                std::terminate()
 .text$_ZThn36_N17vrtaAdaptiveClockD0Ev
                0x004212c0       0x10 RTAOS.lib(vrtaSampleDevices.o)
                0x004212c0                non-virtual thunk to vrtaAdaptiveClock::~vrtaAdaptiveClock()
 .text$_ZThn36_N17vrtaAdaptiveClockD1Ev
                0x004212d0       0x10 RTAOS.lib(vrtaSampleDevices.o)
                0x004212d0                non-virtual thunk to vrtaAdaptiveClock::~vrtaAdaptiveClock()
 .text$_ZThn36_N9vrtaClockD0Ev
                0x004212e0       0x10 RTAOS.lib(vrtaSampleDevices.o)
                0x004212e0                non-virtual thunk to vrtaClock::~vrtaClock()
 .text$_ZThn36_N9vrtaClockD1Ev
                0x004212f0        0x8 EVE_SystemClock.o
                0x004212f0                non-virtual thunk to vrtaClock::~vrtaClock()
 *fill*         0x004212f8        0x8 
 .text$_ZdaPv   0x00421300       0x10 C:/Program Files/ETAS/ISOLAR-EVE3.0/plugins/com.etas.evetools.toolsfolder_1.4.5/Tools/MinGW/bin/../lib/gcc/i686-w64-mingw32/4.9.2\libstdc++.a(del_opv.o)
                0x00421300                operator delete[](void*)
 .text$_ZdlPv   0x00421310       0x10 C:/Program Files/ETAS/ISOLAR-EVE3.0/plugins/com.etas.evetools.toolsfolder_1.4.5/Tools/MinGW/bin/../lib/gcc/i686-w64-mingw32/4.9.2\libstdc++.a(del_op.o)
                0x00421310                operator delete(void*)
 .text$_Znaj    0x00421320       0x30 C:/Program Files/ETAS/ISOLAR-EVE3.0/plugins/com.etas.evetools.toolsfolder_1.4.5/Tools/MinGW/bin/../lib/gcc/i686-w64-mingw32/4.9.2\libstdc++.a(new_opv.o)
                0x00421320                operator new[](unsigned int)
 .text$_Znwj    0x00421350       0x70 C:/Program Files/ETAS/ISOLAR-EVE3.0/plugins/com.etas.evetools.toolsfolder_1.4.5/Tools/MinGW/bin/../lib/gcc/i686-w64-mingw32/4.9.2\libstdc++.a(new_op.o)
                0x00421350                operator new(unsigned int)
 .text$__cxa_allocate_dependent_exception
                0x004213c0       0xd0 C:/Program Files/ETAS/ISOLAR-EVE3.0/plugins/com.etas.evetools.toolsfolder_1.4.5/Tools/MinGW/bin/../lib/gcc/i686-w64-mingw32/4.9.2\libstdc++.a(eh_alloc.o)
                0x004213c0                __cxa_allocate_dependent_exception
 .text$__cxa_allocate_exception
                0x00421490       0xd0 C:/Program Files/ETAS/ISOLAR-EVE3.0/plugins/com.etas.evetools.toolsfolder_1.4.5/Tools/MinGW/bin/../lib/gcc/i686-w64-mingw32/4.9.2\libstdc++.a(eh_alloc.o)
                0x00421490                __cxa_allocate_exception
 .text$__cxa_begin_catch
                0x00421560       0x70 C:/Program Files/ETAS/ISOLAR-EVE3.0/plugins/com.etas.evetools.toolsfolder_1.4.5/Tools/MinGW/bin/../lib/gcc/i686-w64-mingw32/4.9.2\libstdc++.a(eh_catch.o)
                0x00421560                __cxa_begin_catch
 .text$__cxa_call_terminate
                0x004215d0       0x50 C:/Program Files/ETAS/ISOLAR-EVE3.0/plugins/com.etas.evetools.toolsfolder_1.4.5/Tools/MinGW/bin/../lib/gcc/i686-w64-mingw32/4.9.2\libstdc++.a(eh_call.o)
                0x004215d0                __cxa_call_terminate
 .text$__cxa_call_unexpected
                0x00421620       0xd0 C:/Program Files/ETAS/ISOLAR-EVE3.0/plugins/com.etas.evetools.toolsfolder_1.4.5/Tools/MinGW/bin/../lib/gcc/i686-w64-mingw32/4.9.2\libstdc++.a(eh_personality.o)
                0x00421620                __cxa_call_unexpected
 .text$__cxa_current_exception_type
                0x004216f0       0x40 C:/Program Files/ETAS/ISOLAR-EVE3.0/plugins/com.etas.evetools.toolsfolder_1.4.5/Tools/MinGW/bin/../lib/gcc/i686-w64-mingw32/4.9.2\libstdc++.a(eh_type.o)
                0x004216f0                __cxa_current_exception_type
 .text$__cxa_deleted_virtual
                0x00421730       0x30 C:/Program Files/ETAS/ISOLAR-EVE3.0/plugins/com.etas.evetools.toolsfolder_1.4.5/Tools/MinGW/bin/../lib/gcc/i686-w64-mingw32/4.9.2\libstdc++.a(pure.o)
                0x00421730                __cxa_deleted_virtual
 .text$__cxa_end_catch
                0x00421760       0x90 C:/Program Files/ETAS/ISOLAR-EVE3.0/plugins/com.etas.evetools.toolsfolder_1.4.5/Tools/MinGW/bin/../lib/gcc/i686-w64-mingw32/4.9.2\libstdc++.a(eh_catch.o)
                0x00421760                __cxa_end_catch
 .text$__cxa_free_dependent_exception
                0x004217f0       0xc0 C:/Program Files/ETAS/ISOLAR-EVE3.0/plugins/com.etas.evetools.toolsfolder_1.4.5/Tools/MinGW/bin/../lib/gcc/i686-w64-mingw32/4.9.2\libstdc++.a(eh_alloc.o)
                0x004217f0                __cxa_free_dependent_exception
 .text$__cxa_free_exception
                0x004218b0       0xc0 C:/Program Files/ETAS/ISOLAR-EVE3.0/plugins/com.etas.evetools.toolsfolder_1.4.5/Tools/MinGW/bin/../lib/gcc/i686-w64-mingw32/4.9.2\libstdc++.a(eh_alloc.o)
                0x004218b0                __cxa_free_exception
 .text$__cxa_get_exception_ptr
                0x00421970       0x10 C:/Program Files/ETAS/ISOLAR-EVE3.0/plugins/com.etas.evetools.toolsfolder_1.4.5/Tools/MinGW/bin/../lib/gcc/i686-w64-mingw32/4.9.2\libstdc++.a(eh_catch.o)
                0x00421970                __cxa_get_exception_ptr
 .text$__cxa_get_globals
                0x00421980       0x20 C:/Program Files/ETAS/ISOLAR-EVE3.0/plugins/com.etas.evetools.toolsfolder_1.4.5/Tools/MinGW/bin/../lib/gcc/i686-w64-mingw32/4.9.2\libstdc++.a(eh_globals.o)
                0x00421980                __cxa_get_globals
 .text$__cxa_get_globals_fast
                0x004219a0       0x20 C:/Program Files/ETAS/ISOLAR-EVE3.0/plugins/com.etas.evetools.toolsfolder_1.4.5/Tools/MinGW/bin/../lib/gcc/i686-w64-mingw32/4.9.2\libstdc++.a(eh_globals.o)
                0x004219a0                __cxa_get_globals_fast
 .text$__cxa_pure_virtual
                0x004219c0       0x30 C:/Program Files/ETAS/ISOLAR-EVE3.0/plugins/com.etas.evetools.toolsfolder_1.4.5/Tools/MinGW/bin/../lib/gcc/i686-w64-mingw32/4.9.2\libstdc++.a(pure.o)
                0x004219c0                __cxa_pure_virtual
 .text$__cxa_rethrow
                0x004219f0       0x60 C:/Program Files/ETAS/ISOLAR-EVE3.0/plugins/com.etas.evetools.toolsfolder_1.4.5/Tools/MinGW/bin/../lib/gcc/i686-w64-mingw32/4.9.2\libstdc++.a(eh_throw.o)
                0x004219f0                __cxa_rethrow
 .text$__cxa_throw
                0x00421a50       0x70 C:/Program Files/ETAS/ISOLAR-EVE3.0/plugins/com.etas.evetools.toolsfolder_1.4.5/Tools/MinGW/bin/../lib/gcc/i686-w64-mingw32/4.9.2\libstdc++.a(eh_throw.o)
                0x00421a50                __cxa_throw
 .text$__gxx_personality_v0
                0x00421ac0      0x4e0 C:/Program Files/ETAS/ISOLAR-EVE3.0/plugins/com.etas.evetools.toolsfolder_1.4.5/Tools/MinGW/bin/../lib/gcc/i686-w64-mingw32/4.9.2\libstdc++.a(eh_personality.o)
                0x00421ac0                __gxx_personality_v0
 .text$__tcf_0  0x00421fa0       0x30 C:/Program Files/ETAS/ISOLAR-EVE3.0/plugins/com.etas.evetools.toolsfolder_1.4.5/Tools/MinGW/bin/../lib/gcc/i686-w64-mingw32/4.9.2\libstdc++.a(eh_alloc.o)
 *(.text.*)
 .text.unlikely
                0x00421fd0        0x0 C:/Program Files/ETAS/ISOLAR-EVE3.0/plugins/com.etas.evetools.toolsfolder_1.4.5/Tools/MinGW/bin/../lib/gcc/i686-w64-mingw32/4.9.2/crtbegin.o
 .text.unlikely
                0x00421fd0        0x0 RTAOS.lib(ActivateTask.o)
 .text.unlikely
                0x00421fd0        0x0 RTAOS.lib(CancelAlarm.o)
 .text.unlikely
                0x00421fd0        0x0 RTAOS.lib(ClearEvent.o)
 .text.unlikely
                0x00421fd0        0x0 RTAOS.lib(DispatchTask.o)
 .text.unlikely
                0x00421fd0        0x0 RTAOS.lib(GetEvent.o)
 .text.unlikely
                0x00421fd0        0x0 RTAOS.lib(GetISRID.o)
 .text.unlikely
                0x00421fd0        0x0 RTAOS.lib(GetResource.o)
 .text.unlikely
                0x00421fd0        0x0 RTAOS.lib(GetTaskID.o)
 .text.unlikely
                0x00421fd0        0x0 RTAOS.lib(Os_Cfg.o)
 .text.unlikely
                0x00421fd0        0x0 RTAOS.lib(Os_Cfg_Counters.o)
 .text.unlikely
                0x00421fd0        0x0 RTAOS.lib(Os_fsb.o)
 .text.unlikely
                0x00421fd0        0x0 RTAOS.lib(Os_Stack.o)
 .text.unlikely
                0x00421fd0        0x0 RTAOS.lib(ReleaseResource.o)
 .text.unlikely
                0x00421fd0        0x0 RTAOS.lib(ResumeOSInterrupts.o)
 .text.unlikely
                0x00421fd0        0x0 RTAOS.lib(SetEvent.o)
 .text.unlikely
                0x00421fd0        0x0 RTAOS.lib(SetRelAlarm.o)
 .text.unlikely
                0x00421fd0        0x0 RTAOS.lib(StartOS.o)
 .text.unlikely
                0x00421fd0        0x0 RTAOS.lib(StartScheduleTableRel.o)
 .text.unlikely
                0x00421fd0        0x0 RTAOS.lib(StopScheduleTable.o)
 .text.unlikely
                0x00421fd0        0x0 RTAOS.lib(SuspendOSInterrupts.o)
 .text.unlikely
                0x00421fd0        0x0 RTAOS.lib(TerminateTask.o)
 .text.unlikely
                0x00421fd0        0x0 RTAOS.lib(vrtaAppMain.o)
 .text.startup  0x00421fd0       0xd0 RTAOS.lib(vrtaAppMain.o)
                0x00421fd0                main
 .text.unlikely
                0x004220a0        0x0 RTAOS.lib(vrtaCore.o)
 .text.startup  0x004220a0       0x20 RTAOS.lib(vrtaCore.o)
 .text.unlikely
                0x004220c0        0x0 RTAOS.lib(vrtaIdleHandling.o)
 .text.unlikely
                0x004220c0        0x0 RTAOS.lib(vrtaLoggerDevice.o)
 .text.unlikely
                0x004220c0        0x0 RTAOS.lib(vrtaOSMonitorDevice.o)
 .text.startup  0x004220c0       0x30 RTAOS.lib(vrtaOSMonitorDevice.o)
 .text.unlikely
                0x004220f0        0x0 RTAOS.lib(vrtaSampleDevices.o)
 .text.unlikely
                0x004220f0        0x0 RTAOS.lib(vrtaSystemClock.o)
 .text.startup  0x004220f0       0x10 RTAOS.lib(vrtaSystemClock.o)
 .text.unlikely
                0x00422100        0x0 RTAOS.lib(vrtaSystemClockDevice.o)
 .text.startup  0x00422100       0xe0 RTAOS.lib(vrtaSystemClockDevice.o)
 .text.unlikely
                0x004221e0        0x0 RTAOS.lib(DispatchECC.o)
 .text.unlikely
                0x004221e0        0x0 RTAOS.lib(GetStackValue.o)
 .text.unlikely
                0x004221e0        0x0 RTAOS.lib(Os_wrapper.o)
 .text.unlikely
                0x004221e0        0x0 RTAOS.lib(StackOverrunHook.o)
 .text.unlikely
                0x004221e0        0x0 RTAOS.lib(virtualDevice.o)
 .text.unlikely
                0x004221e0        0x0 RTAOS.lib(ShutdownOS.o)
 .text.unlikely
                0x004221e0        0x0 RTAOS.lib(InShutdown.o)
 .text.unlikely._ZNK10__cxxabiv117__class_type_info11__do_upcastEPKS0_PPv
                0x004221e0        0x0 C:/Program Files/ETAS/ISOLAR-EVE3.0/plugins/com.etas.evetools.toolsfolder_1.4.5/Tools/MinGW/bin/../lib/gcc/i686-w64-mingw32/4.9.2\libstdc++.a(class_type_info.o)
 .text.unlikely._ZNK10__cxxabiv117__class_type_info20__do_find_public_srcEiPKvPKS0_S2_
                0x004221e0        0x0 C:/Program Files/ETAS/ISOLAR-EVE3.0/plugins/com.etas.evetools.toolsfolder_1.4.5/Tools/MinGW/bin/../lib/gcc/i686-w64-mingw32/4.9.2\libstdc++.a(class_type_info.o)
 .text.unlikely._ZN10__cxxabiv117__class_type_infoD2Ev
                0x004221e0        0x0 C:/Program Files/ETAS/ISOLAR-EVE3.0/plugins/com.etas.evetools.toolsfolder_1.4.5/Tools/MinGW/bin/../lib/gcc/i686-w64-mingw32/4.9.2\libstdc++.a(class_type_info.o)
 .text.unlikely._ZN10__cxxabiv117__class_type_infoD0Ev
                0x004221e0        0x0 C:/Program Files/ETAS/ISOLAR-EVE3.0/plugins/com.etas.evetools.toolsfolder_1.4.5/Tools/MinGW/bin/../lib/gcc/i686-w64-mingw32/4.9.2\libstdc++.a(class_type_info.o)
 .text.unlikely._ZNK10__cxxabiv117__class_type_info11__do_upcastEPKS0_PKvRNS0_15__upcast_resultE
                0x004221e0        0x0 C:/Program Files/ETAS/ISOLAR-EVE3.0/plugins/com.etas.evetools.toolsfolder_1.4.5/Tools/MinGW/bin/../lib/gcc/i686-w64-mingw32/4.9.2\libstdc++.a(class_type_info.o)
 .text.unlikely._ZNK10__cxxabiv117__class_type_info10__do_catchEPKSt9type_infoPPvj
                0x004221e0        0x0 C:/Program Files/ETAS/ISOLAR-EVE3.0/plugins/com.etas.evetools.toolsfolder_1.4.5/Tools/MinGW/bin/../lib/gcc/i686-w64-mingw32/4.9.2\libstdc++.a(class_type_info.o)
 .text.unlikely._ZNK10__cxxabiv117__class_type_info12__do_dyncastEiNS0_10__sub_kindEPKS0_PKvS3_S5_RNS0_16__dyncast_resultE
                0x004221e0        0x0 C:/Program Files/ETAS/ISOLAR-EVE3.0/plugins/com.etas.evetools.toolsfolder_1.4.5/Tools/MinGW/bin/../lib/gcc/i686-w64-mingw32/4.9.2\libstdc++.a(class_type_info.o)
 .text.unlikely._ZdlPv
                0x004221e0        0x0 C:/Program Files/ETAS/ISOLAR-EVE3.0/plugins/com.etas.evetools.toolsfolder_1.4.5/Tools/MinGW/bin/../lib/gcc/i686-w64-mingw32/4.9.2\libstdc++.a(del_op.o)
 .text.unlikely._ZdaPv
                0x004221e0        0x0 C:/Program Files/ETAS/ISOLAR-EVE3.0/plugins/com.etas.evetools.toolsfolder_1.4.5/Tools/MinGW/bin/../lib/gcc/i686-w64-mingw32/4.9.2\libstdc++.a(del_opv.o)
 .text.unlikely.__cxa_get_exception_ptr
                0x004221e0        0x0 C:/Program Files/ETAS/ISOLAR-EVE3.0/plugins/com.etas.evetools.toolsfolder_1.4.5/Tools/MinGW/bin/../lib/gcc/i686-w64-mingw32/4.9.2\libstdc++.a(eh_catch.o)
 .text.unlikely.__cxa_begin_catch
                0x004221e0        0x0 C:/Program Files/ETAS/ISOLAR-EVE3.0/plugins/com.etas.evetools.toolsfolder_1.4.5/Tools/MinGW/bin/../lib/gcc/i686-w64-mingw32/4.9.2\libstdc++.a(eh_catch.o)
 .text.unlikely.__cxa_end_catch
                0x004221e0        0x0 C:/Program Files/ETAS/ISOLAR-EVE3.0/plugins/com.etas.evetools.toolsfolder_1.4.5/Tools/MinGW/bin/../lib/gcc/i686-w64-mingw32/4.9.2\libstdc++.a(eh_catch.o)
 .text.unlikely._ZSt18uncaught_exceptionv
                0x004221e0        0x0 C:/Program Files/ETAS/ISOLAR-EVE3.0/plugins/com.etas.evetools.toolsfolder_1.4.5/Tools/MinGW/bin/../lib/gcc/i686-w64-mingw32/4.9.2\libstdc++.a(eh_catch.o)
 .text.unlikely.__cxa_get_globals_fast
                0x004221e0        0x0 C:/Program Files/ETAS/ISOLAR-EVE3.0/plugins/com.etas.evetools.toolsfolder_1.4.5/Tools/MinGW/bin/../lib/gcc/i686-w64-mingw32/4.9.2\libstdc++.a(eh_globals.o)
 .text.unlikely.__cxa_get_globals
                0x004221e0        0x0 C:/Program Files/ETAS/ISOLAR-EVE3.0/plugins/com.etas.evetools.toolsfolder_1.4.5/Tools/MinGW/bin/../lib/gcc/i686-w64-mingw32/4.9.2\libstdc++.a(eh_globals.o)
 .text.unlikely._ZL12read_sleb128PKhPl
                0x004221e0        0x0 C:/Program Files/ETAS/ISOLAR-EVE3.0/plugins/com.etas.evetools.toolsfolder_1.4.5/Tools/MinGW/bin/../lib/gcc/i686-w64-mingw32/4.9.2\libstdc++.a(eh_personality.o)
 .text.unlikely._ZL16get_adjusted_ptrPKSt9type_infoS1_PPv
                0x004221e0        0x0 C:/Program Files/ETAS/ISOLAR-EVE3.0/plugins/com.etas.evetools.toolsfolder_1.4.5/Tools/MinGW/bin/../lib/gcc/i686-w64-mingw32/4.9.2\libstdc++.a(eh_personality.o)
 .text.unlikely._ZL28read_encoded_value_with_basehjPKhPj
                0x004221e0        0x0 C:/Program Files/ETAS/ISOLAR-EVE3.0/plugins/com.etas.evetools.toolsfolder_1.4.5/Tools/MinGW/bin/../lib/gcc/i686-w64-mingw32/4.9.2\libstdc++.a(eh_personality.o)
 .text.unlikely._ZL15get_ttype_entryP16lsda_header_infom
                0x004221e0        0x0 C:/Program Files/ETAS/ISOLAR-EVE3.0/plugins/com.etas.evetools.toolsfolder_1.4.5/Tools/MinGW/bin/../lib/gcc/i686-w64-mingw32/4.9.2\libstdc++.a(eh_personality.o)
 .text.unlikely._ZL20check_exception_specP16lsda_header_infoPKSt9type_infoPvl
                0x004221e0        0x0 C:/Program Files/ETAS/ISOLAR-EVE3.0/plugins/com.etas.evetools.toolsfolder_1.4.5/Tools/MinGW/bin/../lib/gcc/i686-w64-mingw32/4.9.2\libstdc++.a(eh_personality.o)
 .text.unlikely._ZL21base_of_encoded_valuehP15_Unwind_Context
                0x004221e0        0x0 C:/Program Files/ETAS/ISOLAR-EVE3.0/plugins/com.etas.evetools.toolsfolder_1.4.5/Tools/MinGW/bin/../lib/gcc/i686-w64-mingw32/4.9.2\libstdc++.a(eh_personality.o)
 .text.unlikely._ZL17parse_lsda_headerP15_Unwind_ContextPKhP16lsda_header_info
                0x004221e0        0x0 C:/Program Files/ETAS/ISOLAR-EVE3.0/plugins/com.etas.evetools.toolsfolder_1.4.5/Tools/MinGW/bin/../lib/gcc/i686-w64-mingw32/4.9.2\libstdc++.a(eh_personality.o)
 .text.unlikely.__gxx_personality_v0
                0x004221e0        0x0 C:/Program Files/ETAS/ISOLAR-EVE3.0/plugins/com.etas.evetools.toolsfolder_1.4.5/Tools/MinGW/bin/../lib/gcc/i686-w64-mingw32/4.9.2\libstdc++.a(eh_personality.o)
 .text.unlikely.__cxa_call_unexpected
                0x004221e0        0x0 C:/Program Files/ETAS/ISOLAR-EVE3.0/plugins/com.etas.evetools.toolsfolder_1.4.5/Tools/MinGW/bin/../lib/gcc/i686-w64-mingw32/4.9.2\libstdc++.a(eh_personality.o)
 .text.unlikely._ZN10__cxxabiv111__terminateEPFvvE
                0x004221e0        0x0 C:/Program Files/ETAS/ISOLAR-EVE3.0/plugins/com.etas.evetools.toolsfolder_1.4.5/Tools/MinGW/bin/../lib/gcc/i686-w64-mingw32/4.9.2\libstdc++.a(eh_terminate.o)
 .text.unlikely._ZSt9terminatev
                0x004221e0        0x0 C:/Program Files/ETAS/ISOLAR-EVE3.0/plugins/com.etas.evetools.toolsfolder_1.4.5/Tools/MinGW/bin/../lib/gcc/i686-w64-mingw32/4.9.2\libstdc++.a(eh_terminate.o)
 .text.unlikely._ZN10__cxxabiv112__unexpectedEPFvvE
                0x004221e0        0x0 C:/Program Files/ETAS/ISOLAR-EVE3.0/plugins/com.etas.evetools.toolsfolder_1.4.5/Tools/MinGW/bin/../lib/gcc/i686-w64-mingw32/4.9.2\libstdc++.a(eh_terminate.o)
 .text.unlikely._ZSt10unexpectedv
                0x004221e0        0x0 C:/Program Files/ETAS/ISOLAR-EVE3.0/plugins/com.etas.evetools.toolsfolder_1.4.5/Tools/MinGW/bin/../lib/gcc/i686-w64-mingw32/4.9.2\libstdc++.a(eh_terminate.o)
 .text.unlikely._ZSt13set_terminatePFvvE
                0x004221e0        0x0 C:/Program Files/ETAS/ISOLAR-EVE3.0/plugins/com.etas.evetools.toolsfolder_1.4.5/Tools/MinGW/bin/../lib/gcc/i686-w64-mingw32/4.9.2\libstdc++.a(eh_terminate.o)
 .text.unlikely._ZSt13get_terminatev
                0x004221e0        0x0 C:/Program Files/ETAS/ISOLAR-EVE3.0/plugins/com.etas.evetools.toolsfolder_1.4.5/Tools/MinGW/bin/../lib/gcc/i686-w64-mingw32/4.9.2\libstdc++.a(eh_terminate.o)
 .text.unlikely._ZSt14set_unexpectedPFvvE
                0x004221e0        0x0 C:/Program Files/ETAS/ISOLAR-EVE3.0/plugins/com.etas.evetools.toolsfolder_1.4.5/Tools/MinGW/bin/../lib/gcc/i686-w64-mingw32/4.9.2\libstdc++.a(eh_terminate.o)
 .text.unlikely._ZSt14get_unexpectedv
                0x004221e0        0x0 C:/Program Files/ETAS/ISOLAR-EVE3.0/plugins/com.etas.evetools.toolsfolder_1.4.5/Tools/MinGW/bin/../lib/gcc/i686-w64-mingw32/4.9.2\libstdc++.a(eh_terminate.o)
 .text.unlikely._ZL23__gxx_exception_cleanup19_Unwind_Reason_CodeP17_Unwind_Exception
                0x004221e0        0x0 C:/Program Files/ETAS/ISOLAR-EVE3.0/plugins/com.etas.evetools.toolsfolder_1.4.5/Tools/MinGW/bin/../lib/gcc/i686-w64-mingw32/4.9.2\libstdc++.a(eh_throw.o)
 .text.unlikely.__cxa_throw
                0x004221e0        0x0 C:/Program Files/ETAS/ISOLAR-EVE3.0/plugins/com.etas.evetools.toolsfolder_1.4.5/Tools/MinGW/bin/../lib/gcc/i686-w64-mingw32/4.9.2\libstdc++.a(eh_throw.o)
 .text.unlikely.__cxa_rethrow
                0x004221e0        0x0 C:/Program Files/ETAS/ISOLAR-EVE3.0/plugins/com.etas.evetools.toolsfolder_1.4.5/Tools/MinGW/bin/../lib/gcc/i686-w64-mingw32/4.9.2\libstdc++.a(eh_throw.o)
 .text.unlikely._Znwj
                0x004221e0        0x0 C:/Program Files/ETAS/ISOLAR-EVE3.0/plugins/com.etas.evetools.toolsfolder_1.4.5/Tools/MinGW/bin/../lib/gcc/i686-w64-mingw32/4.9.2\libstdc++.a(new_op.o)
 .text.unlikely._Znaj
                0x004221e0        0x0 C:/Program Files/ETAS/ISOLAR-EVE3.0/plugins/com.etas.evetools.toolsfolder_1.4.5/Tools/MinGW/bin/../lib/gcc/i686-w64-mingw32/4.9.2\libstdc++.a(new_opv.o)
 .text.unlikely.__cxa_pure_virtual
                0x004221e0        0x0 C:/Program Files/ETAS/ISOLAR-EVE3.0/plugins/com.etas.evetools.toolsfolder_1.4.5/Tools/MinGW/bin/../lib/gcc/i686-w64-mingw32/4.9.2\libstdc++.a(pure.o)
 .text.unlikely.__cxa_deleted_virtual
                0x004221e0        0x0 C:/Program Files/ETAS/ISOLAR-EVE3.0/plugins/com.etas.evetools.toolsfolder_1.4.5/Tools/MinGW/bin/../lib/gcc/i686-w64-mingw32/4.9.2\libstdc++.a(pure.o)
 .text.unlikely._ZN10__cxxabiv120__si_class_type_infoD2Ev
                0x004221e0        0x0 C:/Program Files/ETAS/ISOLAR-EVE3.0/plugins/com.etas.evetools.toolsfolder_1.4.5/Tools/MinGW/bin/../lib/gcc/i686-w64-mingw32/4.9.2\libstdc++.a(si_class_type_info.o)
 .text.unlikely._ZN10__cxxabiv120__si_class_type_infoD0Ev
                0x004221e0        0x0 C:/Program Files/ETAS/ISOLAR-EVE3.0/plugins/com.etas.evetools.toolsfolder_1.4.5/Tools/MinGW/bin/../lib/gcc/i686-w64-mingw32/4.9.2\libstdc++.a(si_class_type_info.o)
 .text.unlikely._ZNK10__cxxabiv120__si_class_type_info20__do_find_public_srcEiPKvPKNS_17__class_type_infoES2_
                0x004221e0        0x0 C:/Program Files/ETAS/ISOLAR-EVE3.0/plugins/com.etas.evetools.toolsfolder_1.4.5/Tools/MinGW/bin/../lib/gcc/i686-w64-mingw32/4.9.2\libstdc++.a(si_class_type_info.o)
 .text.unlikely._ZNK10__cxxabiv120__si_class_type_info12__do_dyncastEiNS_17__class_type_info10__sub_kindEPKS1_PKvS4_S6_RNS1_16__dyncast_resultE
                0x004221e0        0x0 C:/Program Files/ETAS/ISOLAR-EVE3.0/plugins/com.etas.evetools.toolsfolder_1.4.5/Tools/MinGW/bin/../lib/gcc/i686-w64-mingw32/4.9.2\libstdc++.a(si_class_type_info.o)
 .text.unlikely._ZNK10__cxxabiv120__si_class_type_info11__do_upcastEPKNS_17__class_type_infoEPKvRNS1_15__upcast_resultE
                0x004221e0        0x0 C:/Program Files/ETAS/ISOLAR-EVE3.0/plugins/com.etas.evetools.toolsfolder_1.4.5/Tools/MinGW/bin/../lib/gcc/i686-w64-mingw32/4.9.2\libstdc++.a(si_class_type_info.o)
 .text.unlikely._ZNSt9type_infoD2Ev
                0x004221e0        0x0 C:/Program Files/ETAS/ISOLAR-EVE3.0/plugins/com.etas.evetools.toolsfolder_1.4.5/Tools/MinGW/bin/../lib/gcc/i686-w64-mingw32/4.9.2\libstdc++.a(tinfo.o)
 .text.unlikely._ZNKSt9type_info14__is_pointer_pEv
                0x004221e0        0x0 C:/Program Files/ETAS/ISOLAR-EVE3.0/plugins/com.etas.evetools.toolsfolder_1.4.5/Tools/MinGW/bin/../lib/gcc/i686-w64-mingw32/4.9.2\libstdc++.a(tinfo.o)
 .text.unlikely._ZNKSt9type_info15__is_function_pEv
                0x004221e0        0x0 C:/Program Files/ETAS/ISOLAR-EVE3.0/plugins/com.etas.evetools.toolsfolder_1.4.5/Tools/MinGW/bin/../lib/gcc/i686-w64-mingw32/4.9.2\libstdc++.a(tinfo.o)
 .text.unlikely._ZNKSt9type_info11__do_upcastEPKN10__cxxabiv117__class_type_infoEPPv
                0x004221e0        0x0 C:/Program Files/ETAS/ISOLAR-EVE3.0/plugins/com.etas.evetools.toolsfolder_1.4.5/Tools/MinGW/bin/../lib/gcc/i686-w64-mingw32/4.9.2\libstdc++.a(tinfo.o)
 .text.unlikely._ZNSt9type_infoD0Ev
                0x004221e0        0x0 C:/Program Files/ETAS/ISOLAR-EVE3.0/plugins/com.etas.evetools.toolsfolder_1.4.5/Tools/MinGW/bin/../lib/gcc/i686-w64-mingw32/4.9.2\libstdc++.a(tinfo.o)
 .text.unlikely._ZNKSt9type_infoeqERKS_
                0x004221e0        0x0 C:/Program Files/ETAS/ISOLAR-EVE3.0/plugins/com.etas.evetools.toolsfolder_1.4.5/Tools/MinGW/bin/../lib/gcc/i686-w64-mingw32/4.9.2\libstdc++.a(tinfo.o)
 .text.unlikely._ZNKSt9type_info10__do_catchEPKS_PPvj
                0x004221e0        0x0 C:/Program Files/ETAS/ISOLAR-EVE3.0/plugins/com.etas.evetools.toolsfolder_1.4.5/Tools/MinGW/bin/../lib/gcc/i686-w64-mingw32/4.9.2\libstdc++.a(tinfo.o)
 .text.unlikely._ZN10__cxxabiv121__vmi_class_type_infoD2Ev
                0x004221e0        0x0 C:/Program Files/ETAS/ISOLAR-EVE3.0/plugins/com.etas.evetools.toolsfolder_1.4.5/Tools/MinGW/bin/../lib/gcc/i686-w64-mingw32/4.9.2\libstdc++.a(vmi_class_type_info.o)
 .text.unlikely._ZN10__cxxabiv121__vmi_class_type_infoD0Ev
                0x004221e0        0x0 C:/Program Files/ETAS/ISOLAR-EVE3.0/plugins/com.etas.evetools.toolsfolder_1.4.5/Tools/MinGW/bin/../lib/gcc/i686-w64-mingw32/4.9.2\libstdc++.a(vmi_class_type_info.o)
 .text.unlikely._ZNK10__cxxabiv121__vmi_class_type_info20__do_find_public_srcEiPKvPKNS_17__class_type_infoES2_
                0x004221e0        0x0 C:/Program Files/ETAS/ISOLAR-EVE3.0/plugins/com.etas.evetools.toolsfolder_1.4.5/Tools/MinGW/bin/../lib/gcc/i686-w64-mingw32/4.9.2\libstdc++.a(vmi_class_type_info.o)
 .text.unlikely._ZNK10__cxxabiv121__vmi_class_type_info11__do_upcastEPKNS_17__class_type_infoEPKvRNS1_15__upcast_resultE
                0x004221e0        0x0 C:/Program Files/ETAS/ISOLAR-EVE3.0/plugins/com.etas.evetools.toolsfolder_1.4.5/Tools/MinGW/bin/../lib/gcc/i686-w64-mingw32/4.9.2\libstdc++.a(vmi_class_type_info.o)
 .text.unlikely._ZNK10__cxxabiv121__vmi_class_type_info12__do_dyncastEiNS_17__class_type_info10__sub_kindEPKS1_PKvS4_S6_RNS1_16__dyncast_resultE
                0x004221e0        0x0 C:/Program Files/ETAS/ISOLAR-EVE3.0/plugins/com.etas.evetools.toolsfolder_1.4.5/Tools/MinGW/bin/../lib/gcc/i686-w64-mingw32/4.9.2\libstdc++.a(vmi_class_type_info.o)
 .text.unlikely._ZN9__gnu_cxx27__verbose_terminate_handlerEv
                0x004221e0        0x0 C:/Program Files/ETAS/ISOLAR-EVE3.0/plugins/com.etas.evetools.toolsfolder_1.4.5/Tools/MinGW/bin/../lib/gcc/i686-w64-mingw32/4.9.2\libstdc++.a(vterminate.o)
 .text.unlikely._ZNKSt9bad_alloc4whatEv
                0x004221e0        0x0 C:/Program Files/ETAS/ISOLAR-EVE3.0/plugins/com.etas.evetools.toolsfolder_1.4.5/Tools/MinGW/bin/../lib/gcc/i686-w64-mingw32/4.9.2\libstdc++.a(bad_alloc.o)
 .text.unlikely._ZNSt9bad_allocD2Ev
                0x004221e0        0x0 C:/Program Files/ETAS/ISOLAR-EVE3.0/plugins/com.etas.evetools.toolsfolder_1.4.5/Tools/MinGW/bin/../lib/gcc/i686-w64-mingw32/4.9.2\libstdc++.a(bad_alloc.o)
 .text.unlikely._ZNSt9bad_allocD0Ev
                0x004221e0        0x0 C:/Program Files/ETAS/ISOLAR-EVE3.0/plugins/com.etas.evetools.toolsfolder_1.4.5/Tools/MinGW/bin/../lib/gcc/i686-w64-mingw32/4.9.2\libstdc++.a(bad_alloc.o)
 .text.unlikely
                0x004221e0        0x0 C:/Program Files/ETAS/ISOLAR-EVE3.0/plugins/com.etas.evetools.toolsfolder_1.4.5/Tools/MinGW/bin/../lib/gcc/i686-w64-mingw32/4.9.2\libstdc++.a(cp-demangle.o)
 .text.unlikely.__tcf_0
                0x004221e0        0x0 C:/Program Files/ETAS/ISOLAR-EVE3.0/plugins/com.etas.evetools.toolsfolder_1.4.5/Tools/MinGW/bin/../lib/gcc/i686-w64-mingw32/4.9.2\libstdc++.a(eh_alloc.o)
 .text.unlikely.__cxa_allocate_exception
                0x004221e0        0x0 C:/Program Files/ETAS/ISOLAR-EVE3.0/plugins/com.etas.evetools.toolsfolder_1.4.5/Tools/MinGW/bin/../lib/gcc/i686-w64-mingw32/4.9.2\libstdc++.a(eh_alloc.o)
 .text.unlikely.__cxa_free_exception
                0x004221e0        0x0 C:/Program Files/ETAS/ISOLAR-EVE3.0/plugins/com.etas.evetools.toolsfolder_1.4.5/Tools/MinGW/bin/../lib/gcc/i686-w64-mingw32/4.9.2\libstdc++.a(eh_alloc.o)
 .text.unlikely.__cxa_allocate_dependent_exception
                0x004221e0        0x0 C:/Program Files/ETAS/ISOLAR-EVE3.0/plugins/com.etas.evetools.toolsfolder_1.4.5/Tools/MinGW/bin/../lib/gcc/i686-w64-mingw32/4.9.2\libstdc++.a(eh_alloc.o)
 .text.unlikely.__cxa_free_dependent_exception
                0x004221e0        0x0 C:/Program Files/ETAS/ISOLAR-EVE3.0/plugins/com.etas.evetools.toolsfolder_1.4.5/Tools/MinGW/bin/../lib/gcc/i686-w64-mingw32/4.9.2\libstdc++.a(eh_alloc.o)
 .text.unlikely._GLOBAL__sub_I___cxa_allocate_exception
                0x004221e0        0x0 C:/Program Files/ETAS/ISOLAR-EVE3.0/plugins/com.etas.evetools.toolsfolder_1.4.5/Tools/MinGW/bin/../lib/gcc/i686-w64-mingw32/4.9.2\libstdc++.a(eh_alloc.o)
 .text.startup._GLOBAL__sub_I___cxa_allocate_exception
                0x004221e0       0x30 C:/Program Files/ETAS/ISOLAR-EVE3.0/plugins/com.etas.evetools.toolsfolder_1.4.5/Tools/MinGW/bin/../lib/gcc/i686-w64-mingw32/4.9.2\libstdc++.a(eh_alloc.o)
 .text.unlikely.__cxa_call_terminate
                0x00422210        0x0 C:/Program Files/ETAS/ISOLAR-EVE3.0/plugins/com.etas.evetools.toolsfolder_1.4.5/Tools/MinGW/bin/../lib/gcc/i686-w64-mingw32/4.9.2\libstdc++.a(eh_call.o)
 .text.unlikely._ZNSt9exceptionD2Ev
                0x00422210        0x0 C:/Program Files/ETAS/ISOLAR-EVE3.0/plugins/com.etas.evetools.toolsfolder_1.4.5/Tools/MinGW/bin/../lib/gcc/i686-w64-mingw32/4.9.2\libstdc++.a(eh_exception.o)
 .text.unlikely._ZNSt13bad_exceptionD2Ev
                0x00422210        0x0 C:/Program Files/ETAS/ISOLAR-EVE3.0/plugins/com.etas.evetools.toolsfolder_1.4.5/Tools/MinGW/bin/../lib/gcc/i686-w64-mingw32/4.9.2\libstdc++.a(eh_exception.o)
 .text.unlikely._ZNKSt9exception4whatEv
                0x00422210        0x0 C:/Program Files/ETAS/ISOLAR-EVE3.0/plugins/com.etas.evetools.toolsfolder_1.4.5/Tools/MinGW/bin/../lib/gcc/i686-w64-mingw32/4.9.2\libstdc++.a(eh_exception.o)
 .text.unlikely._ZNKSt13bad_exception4whatEv
                0x00422210        0x0 C:/Program Files/ETAS/ISOLAR-EVE3.0/plugins/com.etas.evetools.toolsfolder_1.4.5/Tools/MinGW/bin/../lib/gcc/i686-w64-mingw32/4.9.2\libstdc++.a(eh_exception.o)
 .text.unlikely._ZNSt9exceptionD0Ev
                0x00422210        0x0 C:/Program Files/ETAS/ISOLAR-EVE3.0/plugins/com.etas.evetools.toolsfolder_1.4.5/Tools/MinGW/bin/../lib/gcc/i686-w64-mingw32/4.9.2\libstdc++.a(eh_exception.o)
 .text.unlikely._ZNSt13bad_exceptionD0Ev
                0x00422210        0x0 C:/Program Files/ETAS/ISOLAR-EVE3.0/plugins/com.etas.evetools.toolsfolder_1.4.5/Tools/MinGW/bin/../lib/gcc/i686-w64-mingw32/4.9.2\libstdc++.a(eh_exception.o)
 .text.unlikely._ZN10__cxxabiv115__forced_unwindD2Ev
                0x00422210        0x0 C:/Program Files/ETAS/ISOLAR-EVE3.0/plugins/com.etas.evetools.toolsfolder_1.4.5/Tools/MinGW/bin/../lib/gcc/i686-w64-mingw32/4.9.2\libstdc++.a(eh_exception.o)
 .text.unlikely._ZN10__cxxabiv115__forced_unwindD0Ev
                0x00422210        0x0 C:/Program Files/ETAS/ISOLAR-EVE3.0/plugins/com.etas.evetools.toolsfolder_1.4.5/Tools/MinGW/bin/../lib/gcc/i686-w64-mingw32/4.9.2\libstdc++.a(eh_exception.o)
 .text.unlikely._ZN10__cxxabiv119__foreign_exceptionD2Ev
                0x00422210        0x0 C:/Program Files/ETAS/ISOLAR-EVE3.0/plugins/com.etas.evetools.toolsfolder_1.4.5/Tools/MinGW/bin/../lib/gcc/i686-w64-mingw32/4.9.2\libstdc++.a(eh_exception.o)
 .text.unlikely._ZN10__cxxabiv119__foreign_exceptionD0Ev
                0x00422210        0x0 C:/Program Files/ETAS/ISOLAR-EVE3.0/plugins/com.etas.evetools.toolsfolder_1.4.5/Tools/MinGW/bin/../lib/gcc/i686-w64-mingw32/4.9.2\libstdc++.a(eh_exception.o)
 .text.unlikely.__cxa_current_exception_type
                0x00422210        0x0 C:/Program Files/ETAS/ISOLAR-EVE3.0/plugins/com.etas.evetools.toolsfolder_1.4.5/Tools/MinGW/bin/../lib/gcc/i686-w64-mingw32/4.9.2\libstdc++.a(eh_type.o)
 .text.unlikely._ZSt15set_new_handlerPFvvE
                0x00422210        0x0 C:/Program Files/ETAS/ISOLAR-EVE3.0/plugins/com.etas.evetools.toolsfolder_1.4.5/Tools/MinGW/bin/../lib/gcc/i686-w64-mingw32/4.9.2\libstdc++.a(new_handler.o)
 .text.unlikely._ZSt15get_new_handlerv
                0x00422210        0x0 C:/Program Files/ETAS/ISOLAR-EVE3.0/plugins/com.etas.evetools.toolsfolder_1.4.5/Tools/MinGW/bin/../lib/gcc/i686-w64-mingw32/4.9.2\libstdc++.a(new_handler.o)
 .text.unlikely
                0x00422210        0x0 C:/Program Files/ETAS/ISOLAR-EVE3.0/plugins/com.etas.evetools.toolsfolder_1.4.5/Tools/MinGW/bin/../lib/gcc/i686-w64-mingw32/4.9.2/libgcc.a(_divdi3.o)
 .text.unlikely
                0x00422210        0x0 C:/Program Files/ETAS/ISOLAR-EVE3.0/plugins/com.etas.evetools.toolsfolder_1.4.5/Tools/MinGW/bin/../lib/gcc/i686-w64-mingw32/4.9.2/libgcc.a(gthr-win32.o)
 .text.unlikely
                0x00422210        0x0 C:/Program Files/ETAS/ISOLAR-EVE3.0/plugins/com.etas.evetools.toolsfolder_1.4.5/Tools/MinGW/bin/../lib/gcc/i686-w64-mingw32/4.9.2/libgcc_eh.a(unwind-dw2.o)
 .text.unlikely
                0x00422210        0x0 C:/Program Files/ETAS/ISOLAR-EVE3.0/plugins/com.etas.evetools.toolsfolder_1.4.5/Tools/MinGW/bin/../lib/gcc/i686-w64-mingw32/4.9.2/libgcc_eh.a(unwind-dw2-fde.o)
 .text.unlikely
                0x00422210        0x0 C:/Program Files/ETAS/ISOLAR-EVE3.0/plugins/com.etas.evetools.toolsfolder_1.4.5/Tools/MinGW/bin/../lib/gcc/i686-w64-mingw32/4.9.2/libgcc_eh.a(emutls.o)
 .text.unlikely
                0x00422210        0x0 C:/Program Files/ETAS/ISOLAR-EVE3.0/plugins/com.etas.evetools.toolsfolder_1.4.5/Tools/MinGW/bin/../lib/gcc/i686-w64-mingw32/4.9.2/crtend.o
 .text.startup  0x00422210       0x20 C:/Program Files/ETAS/ISOLAR-EVE3.0/plugins/com.etas.evetools.toolsfolder_1.4.5/Tools/MinGW/bin/../lib/gcc/i686-w64-mingw32/4.9.2/crtend.o
 *(.gnu.linkonce.t.*)
 *(.glue_7t)
 *(.glue_7)
                0x00422230                ___CTOR_LIST__ = .
                0x00422230                __CTOR_LIST__ = .
                0x00422230        0x4 LONG 0xffffffff
 *(.ctors)
 .ctors         0x00422234        0x4 EVE_SystemClock.o
 .ctors         0x00422238        0x4 VirtualDevices.o
 .ctors         0x0042223c        0x4 RTAOS.lib(vrtaCore.o)
 .ctors         0x00422240        0x4 RTAOS.lib(vrtaOSMonitorDevice.o)
 .ctors         0x00422244        0x4 RTAOS.lib(vrtaSystemClock.o)
 .ctors         0x00422248        0x4 RTAOS.lib(vrtaSystemClockDevice.o)
 .ctors         0x0042224c        0x4 C:/Program Files/ETAS/ISOLAR-EVE3.0/plugins/com.etas.evetools.toolsfolder_1.4.5/Tools/MinGW/bin/../lib/gcc/i686-w64-mingw32/4.9.2\libstdc++.a(eh_alloc.o)
 *(.ctor)
 *(SORT(.ctors.*))
 .ctors.65535   0x00422250        0x4 C:/Program Files/ETAS/ISOLAR-EVE3.0/plugins/com.etas.evetools.toolsfolder_1.4.5/Tools/MinGW/bin/../lib/gcc/i686-w64-mingw32/4.9.2/crtend.o
                0x00422254        0x4 LONG 0x0
                0x00422258                ___DTOR_LIST__ = .
                0x00422258                __DTOR_LIST__ = .
                0x00422258        0x4 LONG 0xffffffff
 *(.dtors)
 *(.dtor)
 *(SORT(.dtors.*))
                0x0042225c        0x4 LONG 0x0
 *(.fini)
 *(.gcc_exc)
                0x00422260                PROVIDE (etext, .)
                0x00422260                PROVIDE (_etext, .)
 *(.gcc_except_table)
 .gcc_except_table
                0x00422260       0x5c RTAOS.lib(vrtaCore.o)
 .gcc_except_table
                0x004222bc       0x30 RTAOS.lib(vrtaOSMonitorDevice.o)
 .gcc_except_table
                0x004222ec       0x10 RTAOS.lib(vrtaSampleDevices.o)
 .gcc_except_table
                0x004222fc       0x38 RTAOS.lib(vrtaSystemClock.o)
 .gcc_except_table
                0x00422334       0x20 RTAOS.lib(vrtaSystemClockDevice.o)
 .gcc_except_table
                0x00422354       0x88 RTAOS.lib(virtualDevice.o)
 .gcc_except_table
                0x004223dc       0x38 C:/Program Files/ETAS/ISOLAR-EVE3.0/plugins/com.etas.evetools.toolsfolder_1.4.5/Tools/MinGW/bin/../lib/gcc/i686-w64-mingw32/4.9.2\libstdc++.a(eh_personality.o)
 .gcc_except_table
                0x00422414       0x20 C:/Program Files/ETAS/ISOLAR-EVE3.0/plugins/com.etas.evetools.toolsfolder_1.4.5/Tools/MinGW/bin/../lib/gcc/i686-w64-mingw32/4.9.2\libstdc++.a(eh_terminate.o)
 .gcc_except_table
                0x00422434       0x18 C:/Program Files/ETAS/ISOLAR-EVE3.0/plugins/com.etas.evetools.toolsfolder_1.4.5/Tools/MinGW/bin/../lib/gcc/i686-w64-mingw32/4.9.2\libstdc++.a(new_opv.o)
 .gcc_except_table
                0x0042244c       0x2c C:/Program Files/ETAS/ISOLAR-EVE3.0/plugins/com.etas.evetools.toolsfolder_1.4.5/Tools/MinGW/bin/../lib/gcc/i686-w64-mingw32/4.9.2\libstdc++.a(vterminate.o)
 .gcc_except_table
                0x00422478       0x88 C:/Program Files/ETAS/ISOLAR-EVE3.0/plugins/com.etas.evetools.toolsfolder_1.4.5/Tools/MinGW/bin/../lib/gcc/i686-w64-mingw32/4.9.2\libstdc++.a(eh_alloc.o)

.data           0x00423000     0x4c00
                0x00423000                __data_start__ = .
 *(.data)
 .data          0x00423000        0x4 C:/Program Files/ETAS/ISOLAR-EVE3.0/plugins/com.etas.evetools.toolsfolder_1.4.5/Tools/MinGW/bin/../lib/gcc/i686-w64-mingw32/4.9.2/../../../../i686-w64-mingw32/lib/../lib/crt2.o
                0x00423000                __mingw_winmain_nShowCmd
 .data          0x00423004        0x0 C:/Program Files/ETAS/ISOLAR-EVE3.0/plugins/com.etas.evetools.toolsfolder_1.4.5/Tools/MinGW/bin/../lib/gcc/i686-w64-mingw32/4.9.2/crtbegin.o
 .data          0x00423004        0x0 BswTasks.o
 .data          0x00423004        0x0 EVE_SystemClock.o
 .data          0x00423004        0x0 main.o
 .data          0x00423004        0x0 Os_ErrorHook.o
 .data          0x00423004        0x0 Os_Hooks.o
 .data          0x00423004       0xd8 Rte.o
                0x00423004                Rte_Queue_CPT_ACT_HIGHBEAM_P_HIGBEAMMODE_TO_ECU_ABS_AFS_OPER_ACT_TO_ECU_dyn
                0x00423010                Rte_Queue_CPT_ACT_LEFTRIGHT_MOTOR_P_LEFTRIGHTANGLE_TO_ECU_ABS_AFS_OPER_ACT_TO_ECU_dyn
                0x0042301c                Rte_Queue_CPT_ACT_LOWBEAM_P_LOWBEAMMODE_TO_ECU_ABS_AFS_OPER_ACT_TO_ECU_dyn
                0x00423028                Rte_Queue_CPT_ACT_UPDOWN_MOTOR_P_UPDOWNANGLE_TO_ECU_ABS_AFS_OPER_ACT_TO_ECU_dyn
                0x00423034                Rte_Queue_CPT_ECU_ABS_AFS_P_DISTANCE_TO_SENSOR_DISTANCE_OPER_ECU_TO_SENSOR_dyn
                0x00423040                Rte_Queue_CPT_ECU_ABS_AFS_P_LIGHTMODE_TO_SENSOR_LIGHTMODE_OPER_ECU_TO_SENSOR_dyn
                0x0042304c                Rte_Queue_CPT_ECU_ABS_AFS_P_LIGHT_TO_SENSOR_LIGHT_OPER_ECU_TO_SENSOR_dyn
                0x00423058                Rte_Queue_CPT_ECU_ABS_AFS_P_SPEED_TO_SENSOR_SPEED_OPER_ECU_TO_SENSOR_dyn
                0x00423064                Rte_Queue_CPT_ECU_ABS_AFS_P_STEERINGALGLE_TO_SENSOR_STERRINGANGLE_OPER_ECU_TO_SENSOR_dyn
                0x00423070                Rte_Queue_CPT_ECU_ABS_AFS_R_HIGHBEAMMODE_FROM_ACT_HIGHBEAM_OPER_ACT_TO_ECU_dynamic
                0x0042307c                Rte_Queue_CPT_ECU_ABS_AFS_R_LEFTRIGHTANGLE_FROM_ACT_LEFTRIGHT_MOTOR_OPER_ACT_TO_ECU_dynamic
                0x00423088                Rte_Queue_CPT_ECU_ABS_AFS_R_LOWBEAMMODE_FROM_ACT_LOWBEAM_OPER_ACT_TO_ECU_dynamic
                0x00423094                Rte_Queue_CPT_ECU_ABS_AFS_R_UPDOWNANGLE_FROM_ACT_UPDOWN_MOTOR_OPER_ACT_TO_ECU_dynamic
                0x004230a0                Rte_Queue_CPT_SENSOR_DISTANCE_R_DISTANCE_FROM_ECU_ABS_AFS_OPER_ECU_TO_SENSOR_dynamic
                0x004230ac                Rte_Queue_CPT_SENSOR_LIGHTMODE_R_LIGHTMODE_FROM_ECU_ABS_AFS_OPER_ECU_TO_SENSOR_dynamic
                0x004230b8                Rte_Queue_CPT_SENSOR_LIGHT_R_LIGHT_FROM_ECU_ABS_AFS_OPER_ECU_TO_SENSOR_dynamic
                0x004230c4                Rte_Queue_CPT_SENSOR_SPEED_R_SPEED_FROM_ECU_ABS_AFS_OPER_ECU_TO_SENSOR_dynamic
                0x004230d0                Rte_Queue_CPT_SENSOR_STEERINGANGLE_R_STEERINGANGLE_FROM_ECU_ABS_AFS_OPER_ECU_TO_SENSOR_dynamic
 .data          0x004230dc        0x0 Rte_ACT_HIGHBEAM.o
 .data          0x004230dc        0x0 Rte_ACT_LEFTRIGHT_MOTOR.o
 .data          0x004230dc        0x0 Rte_ACT_LOWBEAM.o
 .data          0x004230dc        0x0 Rte_ACT_UPDOWN_MOTOR.o
 .data          0x004230dc        0x0 Rte_APP_HIGHBEAM.o
 .data          0x004230dc        0x0 Rte_APP_LOWBEAM.o
 .data          0x004230dc        0x0 Rte_APP_MOTOR.o
 .data          0x004230dc       0x10 Rte_ECU_ABS_AFS.o
                0x004230dc                orgLRMotor
                0x004230e0                orgUDMotor
                0x004230e4                orgHighBeam
                0x004230e8                orgLowBeam
 .data          0x004230ec        0x0 Rte_Lib.o
 .data          0x004230ec        0x0 Rte_SENSOR_DISTANCE.o
 .data          0x004230ec        0x0 Rte_SENSOR_LIGHT.o
 .data          0x004230ec        0x0 Rte_SENSOR_LIGHTMODE.o
 .data          0x004230ec        0x0 Rte_SENSOR_SPEED.o
 .data          0x004230ec        0x0 Rte_SENSOR_STEERINGANGLE.o
 .data          0x004230ec        0x0 TAKS_ECU_SPEED.o
 .data          0x004230ec        0x0 target.o
 .data          0x004230ec        0x0 TASK_ACT_HIGHBEAM_RECEIVE.o
 .data          0x004230ec        0x0 TASK_ACT_HIGHBEAM_SEND.o
 .data          0x004230ec        0x0 TASK_ACT_LEFTRIGHTANGLE_RECEIVE.o
 .data          0x004230ec        0x0 TASK_ACT_LEFTRIGHTANGLE_SEND.o
 .data          0x004230ec        0x0 TASK_ACT_LOWBEAM_RECEIVE.o
 .data          0x004230ec        0x0 TASK_ACT_LOWBEAM_SEND.o
 .data          0x004230ec        0x0 TASK_ACT_UPDOWNANGLE_RECEIVE.o
 .data          0x004230ec        0x0 TASK_ACT_UPDOWNANGLE_SEND.o
 .data          0x004230ec        0x0 TASK_APP_HIGHBEAM.o
 .data          0x004230ec        0x0 TASK_APP_LOWBEAM.o
 .data          0x004230ec        0x0 TASK_APP_MOTOR.o
 .data          0x004230ec        0x0 TASK_ECU_ACTUATOR.o
 .data          0x004230ec        0x0 TASK_ECU_DISTANCE.o
 .data          0x004230ec        0x0 TASK_ECU_LIGHT.o
 .data          0x004230ec        0x0 TASK_ECU_LIGHTMODE.o
 .data          0x004230ec        0x0 TASK_EUC_STEERINGANGLE.o
 .data          0x004230ec        0x0 TASK_SENSOR_DISTANCE.o
 .data          0x004230ec        0x0 TASK_SENSOR_LIGHT.o
 .data          0x004230ec        0x0 TASK_SENSOR_LIGHTMODE.o
 .data          0x004230ec        0x0 TASK_SENSOR_SPEED.o
 .data          0x004230ec        0x0 TASK_SENSOR_STEERINGANGLE.o
 .data          0x004230ec        0x0 VECU_SystemClock_ISR.o
 .data          0x004230ec        0x0 VirtualDevices.o
 .data          0x004230ec        0x0 Vrta_Cfg.o
 .data          0x004230ec        0x0 RTAOS.lib(ActivateTask.o)
 .data          0x004230ec        0x0 RTAOS.lib(CancelAlarm.o)
 .data          0x004230ec        0x0 RTAOS.lib(ClearEvent.o)
 .data          0x004230ec        0x0 RTAOS.lib(DispatchTask.o)
 .data          0x004230ec        0x0 RTAOS.lib(GetEvent.o)
 .data          0x004230ec        0x0 RTAOS.lib(GetISRID.o)
 .data          0x004230ec        0x0 RTAOS.lib(GetResource.o)
 .data          0x004230ec        0x0 RTAOS.lib(GetTaskID.o)
 .data          0x004230ec        0x0 RTAOS.lib(Os_Cfg.o)
 .data          0x004230ec        0x0 RTAOS.lib(Os_Cfg_Counters.o)
 .data          0x004230ec        0x0 RTAOS.lib(Os_fsb.o)
 .data          0x004230ec        0x0 RTAOS.lib(Os_SetJmp.o)
 .data          0x004230ec        0x0 RTAOS.lib(Os_Stack.o)
 .data          0x004230ec        0x0 RTAOS.lib(ReleaseResource.o)
 .data          0x004230ec        0x0 RTAOS.lib(ResumeOSInterrupts.o)
 .data          0x004230ec        0x0 RTAOS.lib(SetEvent.o)
 .data          0x004230ec        0x0 RTAOS.lib(SetRelAlarm.o)
 .data          0x004230ec        0x0 RTAOS.lib(StartOS.o)
 .data          0x004230ec        0x0 RTAOS.lib(StartScheduleTableRel.o)
 .data          0x004230ec        0x0 RTAOS.lib(StopScheduleTable.o)
 .data          0x004230ec        0x0 RTAOS.lib(SuspendOSInterrupts.o)
 .data          0x004230ec        0x0 RTAOS.lib(TerminateTask.o)
 .data          0x004230ec        0x0 RTAOS.lib(vrtaAppMain.o)
 .data          0x004230ec        0x4 RTAOS.lib(vrtaCore.o)
 .data          0x004230f0        0x0 RTAOS.lib(vrtaIdleHandling.o)
 .data          0x004230f0        0x0 RTAOS.lib(vrtaLoggerDevice.o)
 .data          0x004230f0        0x0 RTAOS.lib(vrtaOSMonitorDevice.o)
 .data          0x004230f0        0x0 RTAOS.lib(vrtaSampleDevices.o)
 .data          0x004230f0        0x4 RTAOS.lib(vrtaSystemClock.o)
 .data          0x004230f4        0x0 RTAOS.lib(vrtaSystemClockDevice.o)
 .data          0x004230f4        0x0 RTAOS.lib(WaitEvent.o)
 .data          0x004230f4        0x0 RTAOS.lib(DispatchECC.o)
 .data          0x004230f4        0x0 RTAOS.lib(GetStackValue.o)
 .data          0x004230f4        0x0 RTAOS.lib(Os_vectors.o)
 .data          0x004230f4        0x0 RTAOS.lib(Os_wrapper.o)
 .data          0x004230f4        0x0 RTAOS.lib(StackOverrunHook.o)
 .data          0x004230f4        0x0 RTAOS.lib(virtualDevice.o)
 .data          0x004230f4        0x0 RTAOS.lib(ShutdownOS.o)
 .data          0x004230f4        0x0 RTAOS.lib(InShutdown.o)
 .data          0x004230f4        0x0 C:/Program Files/ETAS/ISOLAR-EVE3.0/plugins/com.etas.evetools.toolsfolder_1.4.5/Tools/MinGW/bin/../lib/gcc/i686-w64-mingw32/4.9.2/../../../../i686-w64-mingw32/lib/../lib/libwinmm.a(dasfs00150.o)
 .data          0x004230f4        0x0 C:/Program Files/ETAS/ISOLAR-EVE3.0/plugins/com.etas.evetools.toolsfolder_1.4.5/Tools/MinGW/bin/../lib/gcc/i686-w64-mingw32/4.9.2/../../../../i686-w64-mingw32/lib/../lib/libwinmm.a(dasfs00149.o)
 .data          0x004230f4        0x0 C:/Program Files/ETAS/ISOLAR-EVE3.0/plugins/com.etas.evetools.toolsfolder_1.4.5/Tools/MinGW/bin/../lib/gcc/i686-w64-mingw32/4.9.2/../../../../i686-w64-mingw32/lib/../lib/libwinmm.a(dasfs00144.o)
 .data          0x004230f4        0x0 C:/Program Files/ETAS/ISOLAR-EVE3.0/plugins/com.etas.evetools.toolsfolder_1.4.5/Tools/MinGW/bin/../lib/gcc/i686-w64-mingw32/4.9.2/../../../../i686-w64-mingw32/lib/../lib/libwinmm.a(dasfh.o)
 .data          0x004230f4        0x0 C:/Program Files/ETAS/ISOLAR-EVE3.0/plugins/com.etas.evetools.toolsfolder_1.4.5/Tools/MinGW/bin/../lib/gcc/i686-w64-mingw32/4.9.2/../../../../i686-w64-mingw32/lib/../lib/libwinmm.a(dasft.o)
 .data          0x004230f4        0x0 C:/Program Files/ETAS/ISOLAR-EVE3.0/plugins/com.etas.evetools.toolsfolder_1.4.5/Tools/MinGW/bin/../lib/gcc/i686-w64-mingw32/4.9.2\libstdc++.a(class_type_info.o)
 .data          0x004230f4        0x0 C:/Program Files/ETAS/ISOLAR-EVE3.0/plugins/com.etas.evetools.toolsfolder_1.4.5/Tools/MinGW/bin/../lib/gcc/i686-w64-mingw32/4.9.2\libstdc++.a(del_op.o)
 .data          0x004230f4        0x0 C:/Program Files/ETAS/ISOLAR-EVE3.0/plugins/com.etas.evetools.toolsfolder_1.4.5/Tools/MinGW/bin/../lib/gcc/i686-w64-mingw32/4.9.2\libstdc++.a(del_opv.o)
 .data          0x004230f4        0x0 C:/Program Files/ETAS/ISOLAR-EVE3.0/plugins/com.etas.evetools.toolsfolder_1.4.5/Tools/MinGW/bin/../lib/gcc/i686-w64-mingw32/4.9.2\libstdc++.a(eh_catch.o)
 .data          0x004230f4        0x0 C:/Program Files/ETAS/ISOLAR-EVE3.0/plugins/com.etas.evetools.toolsfolder_1.4.5/Tools/MinGW/bin/../lib/gcc/i686-w64-mingw32/4.9.2\libstdc++.a(eh_globals.o)
 .data          0x004230f4        0x0 C:/Program Files/ETAS/ISOLAR-EVE3.0/plugins/com.etas.evetools.toolsfolder_1.4.5/Tools/MinGW/bin/../lib/gcc/i686-w64-mingw32/4.9.2\libstdc++.a(eh_personality.o)
 .data          0x004230f4        0x0 C:/Program Files/ETAS/ISOLAR-EVE3.0/plugins/com.etas.evetools.toolsfolder_1.4.5/Tools/MinGW/bin/../lib/gcc/i686-w64-mingw32/4.9.2\libstdc++.a(eh_terminate.o)
 .data          0x004230f4        0x0 C:/Program Files/ETAS/ISOLAR-EVE3.0/plugins/com.etas.evetools.toolsfolder_1.4.5/Tools/MinGW/bin/../lib/gcc/i686-w64-mingw32/4.9.2\libstdc++.a(eh_term_handler.o)
 .data          0x004230f4        0x0 C:/Program Files/ETAS/ISOLAR-EVE3.0/plugins/com.etas.evetools.toolsfolder_1.4.5/Tools/MinGW/bin/../lib/gcc/i686-w64-mingw32/4.9.2\libstdc++.a(eh_throw.o)
 .data          0x004230f4        0x0 C:/Program Files/ETAS/ISOLAR-EVE3.0/plugins/com.etas.evetools.toolsfolder_1.4.5/Tools/MinGW/bin/../lib/gcc/i686-w64-mingw32/4.9.2\libstdc++.a(eh_unex_handler.o)
 .data          0x004230f4        0x0 C:/Program Files/ETAS/ISOLAR-EVE3.0/plugins/com.etas.evetools.toolsfolder_1.4.5/Tools/MinGW/bin/../lib/gcc/i686-w64-mingw32/4.9.2\libstdc++.a(new_op.o)
 .data          0x004230f4        0x0 C:/Program Files/ETAS/ISOLAR-EVE3.0/plugins/com.etas.evetools.toolsfolder_1.4.5/Tools/MinGW/bin/../lib/gcc/i686-w64-mingw32/4.9.2\libstdc++.a(new_opv.o)
 .data          0x004230f4        0x0 C:/Program Files/ETAS/ISOLAR-EVE3.0/plugins/com.etas.evetools.toolsfolder_1.4.5/Tools/MinGW/bin/../lib/gcc/i686-w64-mingw32/4.9.2\libstdc++.a(pure.o)
 .data          0x004230f4        0x0 C:/Program Files/ETAS/ISOLAR-EVE3.0/plugins/com.etas.evetools.toolsfolder_1.4.5/Tools/MinGW/bin/../lib/gcc/i686-w64-mingw32/4.9.2\libstdc++.a(si_class_type_info.o)
 .data          0x004230f4        0x0 C:/Program Files/ETAS/ISOLAR-EVE3.0/plugins/com.etas.evetools.toolsfolder_1.4.5/Tools/MinGW/bin/../lib/gcc/i686-w64-mingw32/4.9.2\libstdc++.a(tinfo.o)
 .data          0x004230f4        0x0 C:/Program Files/ETAS/ISOLAR-EVE3.0/plugins/com.etas.evetools.toolsfolder_1.4.5/Tools/MinGW/bin/../lib/gcc/i686-w64-mingw32/4.9.2\libstdc++.a(vmi_class_type_info.o)
 .data          0x004230f4        0x0 C:/Program Files/ETAS/ISOLAR-EVE3.0/plugins/com.etas.evetools.toolsfolder_1.4.5/Tools/MinGW/bin/../lib/gcc/i686-w64-mingw32/4.9.2\libstdc++.a(vterminate.o)
 .data          0x004230f4        0x0 C:/Program Files/ETAS/ISOLAR-EVE3.0/plugins/com.etas.evetools.toolsfolder_1.4.5/Tools/MinGW/bin/../lib/gcc/i686-w64-mingw32/4.9.2\libstdc++.a(bad_alloc.o)
 .data          0x004230f4        0x0 C:/Program Files/ETAS/ISOLAR-EVE3.0/plugins/com.etas.evetools.toolsfolder_1.4.5/Tools/MinGW/bin/../lib/gcc/i686-w64-mingw32/4.9.2\libstdc++.a(cp-demangle.o)
 .data          0x004230f4        0x0 C:/Program Files/ETAS/ISOLAR-EVE3.0/plugins/com.etas.evetools.toolsfolder_1.4.5/Tools/MinGW/bin/../lib/gcc/i686-w64-mingw32/4.9.2\libstdc++.a(eh_alloc.o)
 .data          0x004230f4        0x0 C:/Program Files/ETAS/ISOLAR-EVE3.0/plugins/com.etas.evetools.toolsfolder_1.4.5/Tools/MinGW/bin/../lib/gcc/i686-w64-mingw32/4.9.2\libstdc++.a(eh_call.o)
 .data          0x004230f4        0x0 C:/Program Files/ETAS/ISOLAR-EVE3.0/plugins/com.etas.evetools.toolsfolder_1.4.5/Tools/MinGW/bin/../lib/gcc/i686-w64-mingw32/4.9.2\libstdc++.a(eh_exception.o)
 .data          0x004230f4        0x0 C:/Program Files/ETAS/ISOLAR-EVE3.0/plugins/com.etas.evetools.toolsfolder_1.4.5/Tools/MinGW/bin/../lib/gcc/i686-w64-mingw32/4.9.2\libstdc++.a(eh_type.o)
 .data          0x004230f4        0x0 C:/Program Files/ETAS/ISOLAR-EVE3.0/plugins/com.etas.evetools.toolsfolder_1.4.5/Tools/MinGW/bin/../lib/gcc/i686-w64-mingw32/4.9.2\libstdc++.a(new_handler.o)
 .data          0x004230f4        0x0 C:/Program Files/ETAS/ISOLAR-EVE3.0/plugins/com.etas.evetools.toolsfolder_1.4.5/Tools/MinGW/bin/../lib/gcc/i686-w64-mingw32/4.9.2/../../../../i686-w64-mingw32/lib/../lib/libmingw32.a(lib32_libmingw32_a-atonexit.o)
 .data          0x004230f4        0x4 C:/Program Files/ETAS/ISOLAR-EVE3.0/plugins/com.etas.evetools.toolsfolder_1.4.5/Tools/MinGW/bin/../lib/gcc/i686-w64-mingw32/4.9.2/../../../../i686-w64-mingw32/lib/../lib/libmingw32.a(lib32_libmingw32_a-gccmain.o)
 .data          0x004230f8        0x8 C:/Program Files/ETAS/ISOLAR-EVE3.0/plugins/com.etas.evetools.toolsfolder_1.4.5/Tools/MinGW/bin/../lib/gcc/i686-w64-mingw32/4.9.2/../../../../i686-w64-mingw32/lib/../lib/libmingw32.a(lib32_libmingw32_a-natstart.o)
                0x004230f8                __native_vcclrit_reason
                0x004230fc                __native_dllmain_reason
 .data          0x00423100        0x4 C:/Program Files/ETAS/ISOLAR-EVE3.0/plugins/com.etas.evetools.toolsfolder_1.4.5/Tools/MinGW/bin/../lib/gcc/i686-w64-mingw32/4.9.2/../../../../i686-w64-mingw32/lib/../lib/libmingw32.a(lib32_libmingw32_a-wildcard.o)
                0x00423100                _dowildcard
 .data          0x00423104        0x4 C:/Program Files/ETAS/ISOLAR-EVE3.0/plugins/com.etas.evetools.toolsfolder_1.4.5/Tools/MinGW/bin/../lib/gcc/i686-w64-mingw32/4.9.2/../../../../i686-w64-mingw32/lib/../lib/libmingw32.a(lib32_libmingw32_a-charmax.o)
                0x00423104                _charmax
 .data          0x00423108        0x0 C:/Program Files/ETAS/ISOLAR-EVE3.0/plugins/com.etas.evetools.toolsfolder_1.4.5/Tools/MinGW/bin/../lib/gcc/i686-w64-mingw32/4.9.2/../../../../i686-w64-mingw32/lib/../lib/libmingw32.a(lib32_libmingw32_a-dllargv.o)
 .data          0x00423108        0x0 C:/Program Files/ETAS/ISOLAR-EVE3.0/plugins/com.etas.evetools.toolsfolder_1.4.5/Tools/MinGW/bin/../lib/gcc/i686-w64-mingw32/4.9.2/../../../../i686-w64-mingw32/lib/../lib/libmingw32.a(lib32_libmingw32_a-gs_support.o)
 .data          0x00423108        0x0 C:/Program Files/ETAS/ISOLAR-EVE3.0/plugins/com.etas.evetools.toolsfolder_1.4.5/Tools/MinGW/bin/../lib/gcc/i686-w64-mingw32/4.9.2/../../../../i686-w64-mingw32/lib/../lib/libmingw32.a(lib32_libmingw32_a-_newmode.o)
 .data          0x00423108        0x0 C:/Program Files/ETAS/ISOLAR-EVE3.0/plugins/com.etas.evetools.toolsfolder_1.4.5/Tools/MinGW/bin/../lib/gcc/i686-w64-mingw32/4.9.2/../../../../i686-w64-mingw32/lib/../lib/libmingw32.a(lib32_libmingw32_a-tlssup.o)
 .data          0x00423108        0x0 C:/Program Files/ETAS/ISOLAR-EVE3.0/plugins/com.etas.evetools.toolsfolder_1.4.5/Tools/MinGW/bin/../lib/gcc/i686-w64-mingw32/4.9.2/../../../../i686-w64-mingw32/lib/../lib/libmingw32.a(lib32_libmingw32_a-cinitexe.o)
 .data          0x00423108        0x0 C:/Program Files/ETAS/ISOLAR-EVE3.0/plugins/com.etas.evetools.toolsfolder_1.4.5/Tools/MinGW/bin/../lib/gcc/i686-w64-mingw32/4.9.2/../../../../i686-w64-mingw32/lib/../lib/libmingw32.a(lib32_libmingw32_a-merr.o)
 .data          0x00423108        0x0 C:/Program Files/ETAS/ISOLAR-EVE3.0/plugins/com.etas.evetools.toolsfolder_1.4.5/Tools/MinGW/bin/../lib/gcc/i686-w64-mingw32/4.9.2/../../../../i686-w64-mingw32/lib/../lib/libmingw32.a(lib32_libmingw32_a-CRT_fp10.o)
 .data          0x00423108        0x0 C:/Program Files/ETAS/ISOLAR-EVE3.0/plugins/com.etas.evetools.toolsfolder_1.4.5/Tools/MinGW/bin/../lib/gcc/i686-w64-mingw32/4.9.2/../../../../i686-w64-mingw32/lib/../lib/libmingw32.a(lib32_libmingw32_a-mingw_helpers.o)
 .data          0x00423108        0x0 C:/Program Files/ETAS/ISOLAR-EVE3.0/plugins/com.etas.evetools.toolsfolder_1.4.5/Tools/MinGW/bin/../lib/gcc/i686-w64-mingw32/4.9.2/../../../../i686-w64-mingw32/lib/../lib/libmingw32.a(lib32_libmingw32_a-pseudo-reloc.o)
 .data          0x00423108        0x0 C:/Program Files/ETAS/ISOLAR-EVE3.0/plugins/com.etas.evetools.toolsfolder_1.4.5/Tools/MinGW/bin/../lib/gcc/i686-w64-mingw32/4.9.2/../../../../i686-w64-mingw32/lib/../lib/libmingw32.a(lib32_libmingw32_a-xtxtmode.o)
 .data          0x00423108        0x0 C:/Program Files/ETAS/ISOLAR-EVE3.0/plugins/com.etas.evetools.toolsfolder_1.4.5/Tools/MinGW/bin/../lib/gcc/i686-w64-mingw32/4.9.2/../../../../i686-w64-mingw32/lib/../lib/libmingw32.a(lib32_libmingw32_a-crt_handler.o)
 .data          0x00423108        0x0 C:/Program Files/ETAS/ISOLAR-EVE3.0/plugins/com.etas.evetools.toolsfolder_1.4.5/Tools/MinGW/bin/../lib/gcc/i686-w64-mingw32/4.9.2/../../../../i686-w64-mingw32/lib/../lib/libmingw32.a(lib32_libmingw32_a-tlsthrd.o)
 .data          0x00423108        0x4 C:/Program Files/ETAS/ISOLAR-EVE3.0/plugins/com.etas.evetools.toolsfolder_1.4.5/Tools/MinGW/bin/../lib/gcc/i686-w64-mingw32/4.9.2/../../../../i686-w64-mingw32/lib/../lib/libmingw32.a(lib32_libmingw32_a-tlsmcrt.o)
                0x00423108                _CRT_MT
 .data          0x0042310c        0x0 C:/Program Files/ETAS/ISOLAR-EVE3.0/plugins/com.etas.evetools.toolsfolder_1.4.5/Tools/MinGW/bin/../lib/gcc/i686-w64-mingw32/4.9.2/../../../../i686-w64-mingw32/lib/../lib/libmingw32.a(lib32_libmingw32_a-pseudo-reloc-list.o)
 .data          0x0042310c        0x0 C:/Program Files/ETAS/ISOLAR-EVE3.0/plugins/com.etas.evetools.toolsfolder_1.4.5/Tools/MinGW/bin/../lib/gcc/i686-w64-mingw32/4.9.2/../../../../i686-w64-mingw32/lib/../lib/libmingw32.a(lib32_libmingw32_a-pesect.o)
 .data          0x0042310c        0x0 C:/Program Files/ETAS/ISOLAR-EVE3.0/plugins/com.etas.evetools.toolsfolder_1.4.5/Tools/MinGW/bin/../lib/gcc/i686-w64-mingw32/4.9.2/libgcc.a(_chkstk_ms.o)
 .data          0x0042310c        0x0 C:/Program Files/ETAS/ISOLAR-EVE3.0/plugins/com.etas.evetools.toolsfolder_1.4.5/Tools/MinGW/bin/../lib/gcc/i686-w64-mingw32/4.9.2/libgcc.a(_ctors.o)
 .data          0x0042310c        0x0 C:/Program Files/ETAS/ISOLAR-EVE3.0/plugins/com.etas.evetools.toolsfolder_1.4.5/Tools/MinGW/bin/../lib/gcc/i686-w64-mingw32/4.9.2/libgcc.a(_divdi3.o)
 .data          0x0042310c        0x0 C:/Program Files/ETAS/ISOLAR-EVE3.0/plugins/com.etas.evetools.toolsfolder_1.4.5/Tools/MinGW/bin/../lib/gcc/i686-w64-mingw32/4.9.2/libgcc.a(gthr-win32.o)
 .data          0x0042310c        0x8 C:/Program Files/ETAS/ISOLAR-EVE3.0/plugins/com.etas.evetools.toolsfolder_1.4.5/Tools/MinGW/bin/../lib/gcc/i686-w64-mingw32/4.9.2/libgcc_eh.a(unwind-dw2.o)
 .data          0x00423114        0x8 C:/Program Files/ETAS/ISOLAR-EVE3.0/plugins/com.etas.evetools.toolsfolder_1.4.5/Tools/MinGW/bin/../lib/gcc/i686-w64-mingw32/4.9.2/libgcc_eh.a(unwind-dw2-fde.o)
 .data          0x0042311c        0x8 C:/Program Files/ETAS/ISOLAR-EVE3.0/plugins/com.etas.evetools.toolsfolder_1.4.5/Tools/MinGW/bin/../lib/gcc/i686-w64-mingw32/4.9.2/libgcc_eh.a(emutls.o)
 .data          0x00423124        0x4 C:/Program Files/ETAS/ISOLAR-EVE3.0/plugins/com.etas.evetools.toolsfolder_1.4.5/Tools/MinGW/bin/../lib/gcc/i686-w64-mingw32/4.9.2/../../../../i686-w64-mingw32/lib/../lib/libmingwex.a(lib32_libmingwex_a-mingw_matherr.o)
                0x00423124                _MINGW_INSTALL_DEBUG_MATHERR
 .data          0x00423128        0x0 C:/Program Files/ETAS/ISOLAR-EVE3.0/plugins/com.etas.evetools.toolsfolder_1.4.5/Tools/MinGW/bin/../lib/gcc/i686-w64-mingw32/4.9.2/../../../../i686-w64-mingw32/lib/../lib/libmsvcrt.a(dcpds01256.o)
 .data          0x00423128        0x0 C:/Program Files/ETAS/ISOLAR-EVE3.0/plugins/com.etas.evetools.toolsfolder_1.4.5/Tools/MinGW/bin/../lib/gcc/i686-w64-mingw32/4.9.2/../../../../i686-w64-mingw32/lib/../lib/libmsvcrt.a(dcpds01249.o)
 .data          0x00423128        0x0 C:/Program Files/ETAS/ISOLAR-EVE3.0/plugins/com.etas.evetools.toolsfolder_1.4.5/Tools/MinGW/bin/../lib/gcc/i686-w64-mingw32/4.9.2/../../../../i686-w64-mingw32/lib/../lib/libmsvcrt.a(dcpds01217.o)
 .data          0x00423128        0x0 C:/Program Files/ETAS/ISOLAR-EVE3.0/plugins/com.etas.evetools.toolsfolder_1.4.5/Tools/MinGW/bin/../lib/gcc/i686-w64-mingw32/4.9.2/../../../../i686-w64-mingw32/lib/../lib/libmsvcrt.a(dcpds01216.o)
 .data          0x00423128        0x0 C:/Program Files/ETAS/ISOLAR-EVE3.0/plugins/com.etas.evetools.toolsfolder_1.4.5/Tools/MinGW/bin/../lib/gcc/i686-w64-mingw32/4.9.2/../../../../i686-w64-mingw32/lib/../lib/libmsvcrt.a(dcpds01213.o)
 .data          0x00423128        0x0 C:/Program Files/ETAS/ISOLAR-EVE3.0/plugins/com.etas.evetools.toolsfolder_1.4.5/Tools/MinGW/bin/../lib/gcc/i686-w64-mingw32/4.9.2/../../../../i686-w64-mingw32/lib/../lib/libmsvcrt.a(dcpds01208.o)
 .data          0x00423128        0x0 C:/Program Files/ETAS/ISOLAR-EVE3.0/plugins/com.etas.evetools.toolsfolder_1.4.5/Tools/MinGW/bin/../lib/gcc/i686-w64-mingw32/4.9.2/../../../../i686-w64-mingw32/lib/../lib/libmsvcrt.a(dcpds01206.o)
 .data          0x00423128        0x0 C:/Program Files/ETAS/ISOLAR-EVE3.0/plugins/com.etas.evetools.toolsfolder_1.4.5/Tools/MinGW/bin/../lib/gcc/i686-w64-mingw32/4.9.2/../../../../i686-w64-mingw32/lib/../lib/libmsvcrt.a(dcpds01203.o)
 .data          0x00423128        0x0 C:/Program Files/ETAS/ISOLAR-EVE3.0/plugins/com.etas.evetools.toolsfolder_1.4.5/Tools/MinGW/bin/../lib/gcc/i686-w64-mingw32/4.9.2/../../../../i686-w64-mingw32/lib/../lib/libmsvcrt.a(dcpds01198.o)
 .data          0x00423128        0x0 C:/Program Files/ETAS/ISOLAR-EVE3.0/plugins/com.etas.evetools.toolsfolder_1.4.5/Tools/MinGW/bin/../lib/gcc/i686-w64-mingw32/4.9.2/../../../../i686-w64-mingw32/lib/../lib/libmsvcrt.a(dcpds01195.o)
 .data          0x00423128        0x0 C:/Program Files/ETAS/ISOLAR-EVE3.0/plugins/com.etas.evetools.toolsfolder_1.4.5/Tools/MinGW/bin/../lib/gcc/i686-w64-mingw32/4.9.2/../../../../i686-w64-mingw32/lib/../lib/libmsvcrt.a(dcpds01186.o)
 .data          0x00423128        0x0 C:/Program Files/ETAS/ISOLAR-EVE3.0/plugins/com.etas.evetools.toolsfolder_1.4.5/Tools/MinGW/bin/../lib/gcc/i686-w64-mingw32/4.9.2/../../../../i686-w64-mingw32/lib/../lib/libmsvcrt.a(dcpds01170.o)
 .data          0x00423128        0x0 C:/Program Files/ETAS/ISOLAR-EVE3.0/plugins/com.etas.evetools.toolsfolder_1.4.5/Tools/MinGW/bin/../lib/gcc/i686-w64-mingw32/4.9.2/../../../../i686-w64-mingw32/lib/../lib/libmsvcrt.a(dcpds01167.o)
 .data          0x00423128        0x0 C:/Program Files/ETAS/ISOLAR-EVE3.0/plugins/com.etas.evetools.toolsfolder_1.4.5/Tools/MinGW/bin/../lib/gcc/i686-w64-mingw32/4.9.2/../../../../i686-w64-mingw32/lib/../lib/libmsvcrt.a(dcpds01165.o)
 .data          0x00423128        0x0 C:/Program Files/ETAS/ISOLAR-EVE3.0/plugins/com.etas.evetools.toolsfolder_1.4.5/Tools/MinGW/bin/../lib/gcc/i686-w64-mingw32/4.9.2/../../../../i686-w64-mingw32/lib/../lib/libmsvcrt.a(dcpds01159.o)
 .data          0x00423128        0x0 C:/Program Files/ETAS/ISOLAR-EVE3.0/plugins/com.etas.evetools.toolsfolder_1.4.5/Tools/MinGW/bin/../lib/gcc/i686-w64-mingw32/4.9.2/../../../../i686-w64-mingw32/lib/../lib/libmsvcrt.a(dcpds01112.o)
 .data          0x00423128        0x0 C:/Program Files/ETAS/ISOLAR-EVE3.0/plugins/com.etas.evetools.toolsfolder_1.4.5/Tools/MinGW/bin/../lib/gcc/i686-w64-mingw32/4.9.2/../../../../i686-w64-mingw32/lib/../lib/libmsvcrt.a(dcpds01101.o)
 .data          0x00423128        0x0 C:/Program Files/ETAS/ISOLAR-EVE3.0/plugins/com.etas.evetools.toolsfolder_1.4.5/Tools/MinGW/bin/../lib/gcc/i686-w64-mingw32/4.9.2/../../../../i686-w64-mingw32/lib/../lib/libmsvcrt.a(dcpds01097.o)
 .data          0x00423128        0x0 C:/Program Files/ETAS/ISOLAR-EVE3.0/plugins/com.etas.evetools.toolsfolder_1.4.5/Tools/MinGW/bin/../lib/gcc/i686-w64-mingw32/4.9.2/../../../../i686-w64-mingw32/lib/../lib/libmsvcrt.a(dcpds01096.o)
 .data          0x00423128        0x0 C:/Program Files/ETAS/ISOLAR-EVE3.0/plugins/com.etas.evetools.toolsfolder_1.4.5/Tools/MinGW/bin/../lib/gcc/i686-w64-mingw32/4.9.2/../../../../i686-w64-mingw32/lib/../lib/libmsvcrt.a(dcpds01094.o)
 .data          0x00423128        0x0 C:/Program Files/ETAS/ISOLAR-EVE3.0/plugins/com.etas.evetools.toolsfolder_1.4.5/Tools/MinGW/bin/../lib/gcc/i686-w64-mingw32/4.9.2/../../../../i686-w64-mingw32/lib/../lib/libmsvcrt.a(dcpds01092.o)
 .data          0x00423128        0x0 C:/Program Files/ETAS/ISOLAR-EVE3.0/plugins/com.etas.evetools.toolsfolder_1.4.5/Tools/MinGW/bin/../lib/gcc/i686-w64-mingw32/4.9.2/../../../../i686-w64-mingw32/lib/../lib/libmsvcrt.a(dcpds01081.o)
 .data          0x00423128        0x0 C:/Program Files/ETAS/ISOLAR-EVE3.0/plugins/com.etas.evetools.toolsfolder_1.4.5/Tools/MinGW/bin/../lib/gcc/i686-w64-mingw32/4.9.2/../../../../i686-w64-mingw32/lib/../lib/libmsvcrt.a(dcpds01078.o)
 .data          0x00423128        0x0 C:/Program Files/ETAS/ISOLAR-EVE3.0/plugins/com.etas.evetools.toolsfolder_1.4.5/Tools/MinGW/bin/../lib/gcc/i686-w64-mingw32/4.9.2/../../../../i686-w64-mingw32/lib/../lib/libmsvcrt.a(dcpds01067.o)
 .data          0x00423128        0x0 C:/Program Files/ETAS/ISOLAR-EVE3.0/plugins/com.etas.evetools.toolsfolder_1.4.5/Tools/MinGW/bin/../lib/gcc/i686-w64-mingw32/4.9.2/../../../../i686-w64-mingw32/lib/../lib/libmsvcrt.a(dcpds01063.o)
 .data          0x00423128        0x0 C:/Program Files/ETAS/ISOLAR-EVE3.0/plugins/com.etas.evetools.toolsfolder_1.4.5/Tools/MinGW/bin/../lib/gcc/i686-w64-mingw32/4.9.2/../../../../i686-w64-mingw32/lib/../lib/libmsvcrt.a(dcpds01055.o)
 .data          0x00423128        0x0 C:/Program Files/ETAS/ISOLAR-EVE3.0/plugins/com.etas.evetools.toolsfolder_1.4.5/Tools/MinGW/bin/../lib/gcc/i686-w64-mingw32/4.9.2/../../../../i686-w64-mingw32/lib/../lib/libmsvcrt.a(dcpds01013.o)
 .data          0x00423128        0x0 C:/Program Files/ETAS/ISOLAR-EVE3.0/plugins/com.etas.evetools.toolsfolder_1.4.5/Tools/MinGW/bin/../lib/gcc/i686-w64-mingw32/4.9.2/../../../../i686-w64-mingw32/lib/../lib/libmsvcrt.a(dcpds00840.o)
 .data          0x00423128        0x0 C:/Program Files/ETAS/ISOLAR-EVE3.0/plugins/com.etas.evetools.toolsfolder_1.4.5/Tools/MinGW/bin/../lib/gcc/i686-w64-mingw32/4.9.2/../../../../i686-w64-mingw32/lib/../lib/libmsvcrt.a(dcpds00627.o)
 .data          0x00423128        0x0 C:/Program Files/ETAS/ISOLAR-EVE3.0/plugins/com.etas.evetools.toolsfolder_1.4.5/Tools/MinGW/bin/../lib/gcc/i686-w64-mingw32/4.9.2/../../../../i686-w64-mingw32/lib/../lib/libmsvcrt.a(dcpds00460.o)
 .data          0x00423128        0x0 C:/Program Files/ETAS/ISOLAR-EVE3.0/plugins/com.etas.evetools.toolsfolder_1.4.5/Tools/MinGW/bin/../lib/gcc/i686-w64-mingw32/4.9.2/../../../../i686-w64-mingw32/lib/../lib/libmsvcrt.a(dcpds00354.o)
 .data          0x00423128        0x0 C:/Program Files/ETAS/ISOLAR-EVE3.0/plugins/com.etas.evetools.toolsfolder_1.4.5/Tools/MinGW/bin/../lib/gcc/i686-w64-mingw32/4.9.2/../../../../i686-w64-mingw32/lib/../lib/libmsvcrt.a(dcpds00350.o)
 .data          0x00423128        0x0 C:/Program Files/ETAS/ISOLAR-EVE3.0/plugins/com.etas.evetools.toolsfolder_1.4.5/Tools/MinGW/bin/../lib/gcc/i686-w64-mingw32/4.9.2/../../../../i686-w64-mingw32/lib/../lib/libmsvcrt.a(dcpds00275.o)
 .data          0x00423128        0x0 C:/Program Files/ETAS/ISOLAR-EVE3.0/plugins/com.etas.evetools.toolsfolder_1.4.5/Tools/MinGW/bin/../lib/gcc/i686-w64-mingw32/4.9.2/../../../../i686-w64-mingw32/lib/../lib/libmsvcrt.a(dcpds00163.o)
 .data          0x00423128        0x0 C:/Program Files/ETAS/ISOLAR-EVE3.0/plugins/com.etas.evetools.toolsfolder_1.4.5/Tools/MinGW/bin/../lib/gcc/i686-w64-mingw32/4.9.2/../../../../i686-w64-mingw32/lib/../lib/libmsvcrt.a(dcpds00145.o)
 .data          0x00423128        0x0 C:/Program Files/ETAS/ISOLAR-EVE3.0/plugins/com.etas.evetools.toolsfolder_1.4.5/Tools/MinGW/bin/../lib/gcc/i686-w64-mingw32/4.9.2/../../../../i686-w64-mingw32/lib/../lib/libmsvcrt.a(dcpds00123.o)
 .data          0x00423128        0x0 C:/Program Files/ETAS/ISOLAR-EVE3.0/plugins/com.etas.evetools.toolsfolder_1.4.5/Tools/MinGW/bin/../lib/gcc/i686-w64-mingw32/4.9.2/../../../../i686-w64-mingw32/lib/../lib/libmsvcrt.a(dcpds00108.o)
 .data          0x00423128        0x0 C:/Program Files/ETAS/ISOLAR-EVE3.0/plugins/com.etas.evetools.toolsfolder_1.4.5/Tools/MinGW/bin/../lib/gcc/i686-w64-mingw32/4.9.2/../../../../i686-w64-mingw32/lib/../lib/libmsvcrt.a(dcpds00105.o)
 .data          0x00423128        0x0 C:/Program Files/ETAS/ISOLAR-EVE3.0/plugins/com.etas.evetools.toolsfolder_1.4.5/Tools/MinGW/bin/../lib/gcc/i686-w64-mingw32/4.9.2/../../../../i686-w64-mingw32/lib/../lib/libmsvcrt.a(dcpds00069.o)
 .data          0x00423128        0x0 C:/Program Files/ETAS/ISOLAR-EVE3.0/plugins/com.etas.evetools.toolsfolder_1.4.5/Tools/MinGW/bin/../lib/gcc/i686-w64-mingw32/4.9.2/../../../../i686-w64-mingw32/lib/../lib/libmsvcrt.a(dcpds00059.o)
 .data          0x00423128        0x0 C:/Program Files/ETAS/ISOLAR-EVE3.0/plugins/com.etas.evetools.toolsfolder_1.4.5/Tools/MinGW/bin/../lib/gcc/i686-w64-mingw32/4.9.2/../../../../i686-w64-mingw32/lib/../lib/libmsvcrt.a(dcpds00058.o)
 .data          0x00423128        0x0 C:/Program Files/ETAS/ISOLAR-EVE3.0/plugins/com.etas.evetools.toolsfolder_1.4.5/Tools/MinGW/bin/../lib/gcc/i686-w64-mingw32/4.9.2/../../../../i686-w64-mingw32/lib/../lib/libmsvcrt.a(dcpds00055.o)
 .data          0x00423128        0x8 C:/Program Files/ETAS/ISOLAR-EVE3.0/plugins/com.etas.evetools.toolsfolder_1.4.5/Tools/MinGW/bin/../lib/gcc/i686-w64-mingw32/4.9.2/../../../../i686-w64-mingw32/lib/../lib/libmsvcrt.a(lib32_libmsvcrt_a-invalid_parameter_handler.o)
                0x00423128                _imp___get_invalid_parameter_handler
                0x0042312c                _imp___set_invalid_parameter_handler
 .data          0x00423130        0x0 C:/Program Files/ETAS/ISOLAR-EVE3.0/plugins/com.etas.evetools.toolsfolder_1.4.5/Tools/MinGW/bin/../lib/gcc/i686-w64-mingw32/4.9.2/../../../../i686-w64-mingw32/lib/../lib/libmsvcrt.a(dcpdh.o)
 .data          0x00423130        0x0 C:/Program Files/ETAS/ISOLAR-EVE3.0/plugins/com.etas.evetools.toolsfolder_1.4.5/Tools/MinGW/bin/../lib/gcc/i686-w64-mingw32/4.9.2/../../../../i686-w64-mingw32/lib/../lib/libmsvcrt.a(dcpdt.o)
 .data          0x00423130        0x0 C:/Program Files/ETAS/ISOLAR-EVE3.0/plugins/com.etas.evetools.toolsfolder_1.4.5/Tools/MinGW/bin/../lib/gcc/i686-w64-mingw32/4.9.2/../../../../i686-w64-mingw32/lib/../lib/libuser32.a(diqes00588.o)
 .data          0x00423130        0x0 C:/Program Files/ETAS/ISOLAR-EVE3.0/plugins/com.etas.evetools.toolsfolder_1.4.5/Tools/MinGW/bin/../lib/gcc/i686-w64-mingw32/4.9.2/../../../../i686-w64-mingw32/lib/../lib/libuser32.a(diqeh.o)
 .data          0x00423130        0x0 C:/Program Files/ETAS/ISOLAR-EVE3.0/plugins/com.etas.evetools.toolsfolder_1.4.5/Tools/MinGW/bin/../lib/gcc/i686-w64-mingw32/4.9.2/../../../../i686-w64-mingw32/lib/../lib/libuser32.a(diqet.o)
 .data          0x00423130        0x0 C:/Program Files/ETAS/ISOLAR-EVE3.0/plugins/com.etas.evetools.toolsfolder_1.4.5/Tools/MinGW/bin/../lib/gcc/i686-w64-mingw32/4.9.2/../../../../i686-w64-mingw32/lib/../lib/libkernel32.a(dkxs01218.o)
 .data          0x00423130        0x0 C:/Program Files/ETAS/ISOLAR-EVE3.0/plugins/com.etas.evetools.toolsfolder_1.4.5/Tools/MinGW/bin/../lib/gcc/i686-w64-mingw32/4.9.2/../../../../i686-w64-mingw32/lib/../lib/libkernel32.a(dkxs01209.o)
 .data          0x00423130        0x0 C:/Program Files/ETAS/ISOLAR-EVE3.0/plugins/com.etas.evetools.toolsfolder_1.4.5/Tools/MinGW/bin/../lib/gcc/i686-w64-mingw32/4.9.2/../../../../i686-w64-mingw32/lib/../lib/libkernel32.a(dkxs01206.o)
 .data          0x00423130        0x0 C:/Program Files/ETAS/ISOLAR-EVE3.0/plugins/com.etas.evetools.toolsfolder_1.4.5/Tools/MinGW/bin/../lib/gcc/i686-w64-mingw32/4.9.2/../../../../i686-w64-mingw32/lib/../lib/libkernel32.a(dkxs01174.o)
 .data          0x00423130        0x0 C:/Program Files/ETAS/ISOLAR-EVE3.0/plugins/com.etas.evetools.toolsfolder_1.4.5/Tools/MinGW/bin/../lib/gcc/i686-w64-mingw32/4.9.2/../../../../i686-w64-mingw32/lib/../lib/libkernel32.a(dkxs01162.o)
 .data          0x00423130        0x0 C:/Program Files/ETAS/ISOLAR-EVE3.0/plugins/com.etas.evetools.toolsfolder_1.4.5/Tools/MinGW/bin/../lib/gcc/i686-w64-mingw32/4.9.2/../../../../i686-w64-mingw32/lib/../lib/libkernel32.a(dkxs01161.o)
 .data          0x00423130        0x0 C:/Program Files/ETAS/ISOLAR-EVE3.0/plugins/com.etas.evetools.toolsfolder_1.4.5/Tools/MinGW/bin/../lib/gcc/i686-w64-mingw32/4.9.2/../../../../i686-w64-mingw32/lib/../lib/libkernel32.a(dkxs01160.o)
 .data          0x00423130        0x0 C:/Program Files/ETAS/ISOLAR-EVE3.0/plugins/com.etas.evetools.toolsfolder_1.4.5/Tools/MinGW/bin/../lib/gcc/i686-w64-mingw32/4.9.2/../../../../i686-w64-mingw32/lib/../lib/libkernel32.a(dkxs01159.o)
 .data          0x00423130        0x0 C:/Program Files/ETAS/ISOLAR-EVE3.0/plugins/com.etas.evetools.toolsfolder_1.4.5/Tools/MinGW/bin/../lib/gcc/i686-w64-mingw32/4.9.2/../../../../i686-w64-mingw32/lib/../lib/libkernel32.a(dkxs01154.o)
 .data          0x00423130        0x0 C:/Program Files/ETAS/ISOLAR-EVE3.0/plugins/com.etas.evetools.toolsfolder_1.4.5/Tools/MinGW/bin/../lib/gcc/i686-w64-mingw32/4.9.2/../../../../i686-w64-mingw32/lib/../lib/libkernel32.a(dkxs01140.o)
 .data          0x00423130        0x0 C:/Program Files/ETAS/ISOLAR-EVE3.0/plugins/com.etas.evetools.toolsfolder_1.4.5/Tools/MinGW/bin/../lib/gcc/i686-w64-mingw32/4.9.2/../../../../i686-w64-mingw32/lib/../lib/libkernel32.a(dkxs01127.o)
 .data          0x00423130        0x0 C:/Program Files/ETAS/ISOLAR-EVE3.0/plugins/com.etas.evetools.toolsfolder_1.4.5/Tools/MinGW/bin/../lib/gcc/i686-w64-mingw32/4.9.2/../../../../i686-w64-mingw32/lib/../lib/libkernel32.a(dkxs01078.o)
 .data          0x00423130        0x0 C:/Program Files/ETAS/ISOLAR-EVE3.0/plugins/com.etas.evetools.toolsfolder_1.4.5/Tools/MinGW/bin/../lib/gcc/i686-w64-mingw32/4.9.2/../../../../i686-w64-mingw32/lib/../lib/libkernel32.a(dkxs00962.o)
 .data          0x00423130        0x0 C:/Program Files/ETAS/ISOLAR-EVE3.0/plugins/com.etas.evetools.toolsfolder_1.4.5/Tools/MinGW/bin/../lib/gcc/i686-w64-mingw32/4.9.2/../../../../i686-w64-mingw32/lib/../lib/libkernel32.a(dkxs00958.o)
 .data          0x00423130        0x0 C:/Program Files/ETAS/ISOLAR-EVE3.0/plugins/com.etas.evetools.toolsfolder_1.4.5/Tools/MinGW/bin/../lib/gcc/i686-w64-mingw32/4.9.2/../../../../i686-w64-mingw32/lib/../lib/libkernel32.a(dkxs00916.o)
 .data          0x00423130        0x0 C:/Program Files/ETAS/ISOLAR-EVE3.0/plugins/com.etas.evetools.toolsfolder_1.4.5/Tools/MinGW/bin/../lib/gcc/i686-w64-mingw32/4.9.2/../../../../i686-w64-mingw32/lib/../lib/libkernel32.a(dkxs00915.o)
 .data          0x00423130        0x0 C:/Program Files/ETAS/ISOLAR-EVE3.0/plugins/com.etas.evetools.toolsfolder_1.4.5/Tools/MinGW/bin/../lib/gcc/i686-w64-mingw32/4.9.2/../../../../i686-w64-mingw32/lib/../lib/libkernel32.a(dkxs00836.o)
 .data          0x00423130        0x0 C:/Program Files/ETAS/ISOLAR-EVE3.0/plugins/com.etas.evetools.toolsfolder_1.4.5/Tools/MinGW/bin/../lib/gcc/i686-w64-mingw32/4.9.2/../../../../i686-w64-mingw32/lib/../lib/libkernel32.a(dkxs00809.o)
 .data          0x00423130        0x0 C:/Program Files/ETAS/ISOLAR-EVE3.0/plugins/com.etas.evetools.toolsfolder_1.4.5/Tools/MinGW/bin/../lib/gcc/i686-w64-mingw32/4.9.2/../../../../i686-w64-mingw32/lib/../lib/libkernel32.a(dkxs00806.o)
 .data          0x00423130        0x0 C:/Program Files/ETAS/ISOLAR-EVE3.0/plugins/com.etas.evetools.toolsfolder_1.4.5/Tools/MinGW/bin/../lib/gcc/i686-w64-mingw32/4.9.2/../../../../i686-w64-mingw32/lib/../lib/libkernel32.a(dkxs00747.o)
 .data          0x00423130        0x0 C:/Program Files/ETAS/ISOLAR-EVE3.0/plugins/com.etas.evetools.toolsfolder_1.4.5/Tools/MinGW/bin/../lib/gcc/i686-w64-mingw32/4.9.2/../../../../i686-w64-mingw32/lib/../lib/libkernel32.a(dkxs00663.o)
 .data          0x00423130        0x0 C:/Program Files/ETAS/ISOLAR-EVE3.0/plugins/com.etas.evetools.toolsfolder_1.4.5/Tools/MinGW/bin/../lib/gcc/i686-w64-mingw32/4.9.2/../../../../i686-w64-mingw32/lib/../lib/libkernel32.a(dkxs00635.o)
 .data          0x00423130        0x0 C:/Program Files/ETAS/ISOLAR-EVE3.0/plugins/com.etas.evetools.toolsfolder_1.4.5/Tools/MinGW/bin/../lib/gcc/i686-w64-mingw32/4.9.2/../../../../i686-w64-mingw32/lib/../lib/libkernel32.a(dkxs00612.o)
 .data          0x00423130        0x0 C:/Program Files/ETAS/ISOLAR-EVE3.0/plugins/com.etas.evetools.toolsfolder_1.4.5/Tools/MinGW/bin/../lib/gcc/i686-w64-mingw32/4.9.2/../../../../i686-w64-mingw32/lib/../lib/libkernel32.a(dkxs00581.o)
 .data          0x00423130        0x0 C:/Program Files/ETAS/ISOLAR-EVE3.0/plugins/com.etas.evetools.toolsfolder_1.4.5/Tools/MinGW/bin/../lib/gcc/i686-w64-mingw32/4.9.2/../../../../i686-w64-mingw32/lib/../lib/libkernel32.a(dkxs00533.o)
 .data          0x00423130        0x0 C:/Program Files/ETAS/ISOLAR-EVE3.0/plugins/com.etas.evetools.toolsfolder_1.4.5/Tools/MinGW/bin/../lib/gcc/i686-w64-mingw32/4.9.2/../../../../i686-w64-mingw32/lib/../lib/libkernel32.a(dkxs00515.o)
 .data          0x00423130        0x0 C:/Program Files/ETAS/ISOLAR-EVE3.0/plugins/com.etas.evetools.toolsfolder_1.4.5/Tools/MinGW/bin/../lib/gcc/i686-w64-mingw32/4.9.2/../../../../i686-w64-mingw32/lib/../lib/libkernel32.a(dkxs00479.o)
 .data          0x00423130        0x0 C:/Program Files/ETAS/ISOLAR-EVE3.0/plugins/com.etas.evetools.toolsfolder_1.4.5/Tools/MinGW/bin/../lib/gcc/i686-w64-mingw32/4.9.2/../../../../i686-w64-mingw32/lib/../lib/libkernel32.a(dkxs00457.o)
 .data          0x00423130        0x0 C:/Program Files/ETAS/ISOLAR-EVE3.0/plugins/com.etas.evetools.toolsfolder_1.4.5/Tools/MinGW/bin/../lib/gcc/i686-w64-mingw32/4.9.2/../../../../i686-w64-mingw32/lib/../lib/libkernel32.a(dkxs00453.o)
 .data          0x00423130        0x0 C:/Program Files/ETAS/ISOLAR-EVE3.0/plugins/com.etas.evetools.toolsfolder_1.4.5/Tools/MinGW/bin/../lib/gcc/i686-w64-mingw32/4.9.2/../../../../i686-w64-mingw32/lib/../lib/libkernel32.a(dkxs00452.o)
 .data          0x00423130        0x0 C:/Program Files/ETAS/ISOLAR-EVE3.0/plugins/com.etas.evetools.toolsfolder_1.4.5/Tools/MinGW/bin/../lib/gcc/i686-w64-mingw32/4.9.2/../../../../i686-w64-mingw32/lib/../lib/libkernel32.a(dkxs00356.o)
 .data          0x00423130        0x0 C:/Program Files/ETAS/ISOLAR-EVE3.0/plugins/com.etas.evetools.toolsfolder_1.4.5/Tools/MinGW/bin/../lib/gcc/i686-w64-mingw32/4.9.2/../../../../i686-w64-mingw32/lib/../lib/libkernel32.a(dkxs00351.o)
 .data          0x00423130        0x0 C:/Program Files/ETAS/ISOLAR-EVE3.0/plugins/com.etas.evetools.toolsfolder_1.4.5/Tools/MinGW/bin/../lib/gcc/i686-w64-mingw32/4.9.2/../../../../i686-w64-mingw32/lib/../lib/libkernel32.a(dkxs00283.o)
 .data          0x00423130        0x0 C:/Program Files/ETAS/ISOLAR-EVE3.0/plugins/com.etas.evetools.toolsfolder_1.4.5/Tools/MinGW/bin/../lib/gcc/i686-w64-mingw32/4.9.2/../../../../i686-w64-mingw32/lib/../lib/libkernel32.a(dkxs00239.o)
 .data          0x00423130        0x0 C:/Program Files/ETAS/ISOLAR-EVE3.0/plugins/com.etas.evetools.toolsfolder_1.4.5/Tools/MinGW/bin/../lib/gcc/i686-w64-mingw32/4.9.2/../../../../i686-w64-mingw32/lib/../lib/libkernel32.a(dkxs00212.o)
 .data          0x00423130        0x0 C:/Program Files/ETAS/ISOLAR-EVE3.0/plugins/com.etas.evetools.toolsfolder_1.4.5/Tools/MinGW/bin/../lib/gcc/i686-w64-mingw32/4.9.2/../../../../i686-w64-mingw32/lib/../lib/libkernel32.a(dkxs00176.o)
 .data          0x00423130        0x0 C:/Program Files/ETAS/ISOLAR-EVE3.0/plugins/com.etas.evetools.toolsfolder_1.4.5/Tools/MinGW/bin/../lib/gcc/i686-w64-mingw32/4.9.2/../../../../i686-w64-mingw32/lib/../lib/libkernel32.a(dkxs00173.o)
 .data          0x00423130        0x0 C:/Program Files/ETAS/ISOLAR-EVE3.0/plugins/com.etas.evetools.toolsfolder_1.4.5/Tools/MinGW/bin/../lib/gcc/i686-w64-mingw32/4.9.2/../../../../i686-w64-mingw32/lib/../lib/libkernel32.a(dkxs00158.o)
 .data          0x00423130        0x0 C:/Program Files/ETAS/ISOLAR-EVE3.0/plugins/com.etas.evetools.toolsfolder_1.4.5/Tools/MinGW/bin/../lib/gcc/i686-w64-mingw32/4.9.2/../../../../i686-w64-mingw32/lib/../lib/libkernel32.a(dkxs00140.o)
 .data          0x00423130        0x0 C:/Program Files/ETAS/ISOLAR-EVE3.0/plugins/com.etas.evetools.toolsfolder_1.4.5/Tools/MinGW/bin/../lib/gcc/i686-w64-mingw32/4.9.2/../../../../i686-w64-mingw32/lib/../lib/libkernel32.a(dkxs00083.o)
 .data          0x00423130        0x0 C:/Program Files/ETAS/ISOLAR-EVE3.0/plugins/com.etas.evetools.toolsfolder_1.4.5/Tools/MinGW/bin/../lib/gcc/i686-w64-mingw32/4.9.2/../../../../i686-w64-mingw32/lib/../lib/libkernel32.a(dkxh.o)
 .data          0x00423130        0x0 C:/Program Files/ETAS/ISOLAR-EVE3.0/plugins/com.etas.evetools.toolsfolder_1.4.5/Tools/MinGW/bin/../lib/gcc/i686-w64-mingw32/4.9.2/../../../../i686-w64-mingw32/lib/../lib/libkernel32.a(dkxt.o)
 .data          0x00423130        0x0 C:/Program Files/ETAS/ISOLAR-EVE3.0/plugins/com.etas.evetools.toolsfolder_1.4.5/Tools/MinGW/bin/../lib/gcc/i686-w64-mingw32/4.9.2/../../../../i686-w64-mingw32/lib/../lib/libmingw32.a(lib32_libmingw32_a-tlsmthread.o)
 .data          0x00423130        0x0 C:/Program Files/ETAS/ISOLAR-EVE3.0/plugins/com.etas.evetools.toolsfolder_1.4.5/Tools/MinGW/bin/../lib/gcc/i686-w64-mingw32/4.9.2/crtend.o
 *(.data2)
 *(SORT(.data$*))
 .data$_ZL14emergency_used
                0x00423130        0x4 C:/Program Files/ETAS/ISOLAR-EVE3.0/plugins/com.etas.evetools.toolsfolder_1.4.5/Tools/MinGW/bin/../lib/gcc/i686-w64-mingw32/4.9.2\libstdc++.a(eh_alloc.o)
 .data$_ZL15dependents_used
                0x00423134        0x4 C:/Program Files/ETAS/ISOLAR-EVE3.0/plugins/com.etas.evetools.toolsfolder_1.4.5/Tools/MinGW/bin/../lib/gcc/i686-w64-mingw32/4.9.2\libstdc++.a(eh_alloc.o)
 *fill*         0x00423138        0x8 
 .data$_ZL16emergency_buffer
                0x00423140     0x4000 C:/Program Files/ETAS/ISOLAR-EVE3.0/plugins/com.etas.evetools.toolsfolder_1.4.5/Tools/MinGW/bin/../lib/gcc/i686-w64-mingw32/4.9.2\libstdc++.a(eh_alloc.o)
 .data$_ZL17dependents_buffer
                0x00427140      0xa00 C:/Program Files/ETAS/ISOLAR-EVE3.0/plugins/com.etas.evetools.toolsfolder_1.4.5/Tools/MinGW/bin/../lib/gcc/i686-w64-mingw32/4.9.2\libstdc++.a(eh_alloc.o)
 .data$_ZN10__cxxabiv119__terminate_handlerE
                0x00427b40        0x4 C:/Program Files/ETAS/ISOLAR-EVE3.0/plugins/com.etas.evetools.toolsfolder_1.4.5/Tools/MinGW/bin/../lib/gcc/i686-w64-mingw32/4.9.2\libstdc++.a(eh_term_handler.o)
                0x00427b40                __cxxabiv1::__terminate_handler
 .data$_ZN10__cxxabiv120__unexpected_handlerE
                0x00427b44        0x4 C:/Program Files/ETAS/ISOLAR-EVE3.0/plugins/com.etas.evetools.toolsfolder_1.4.5/Tools/MinGW/bin/../lib/gcc/i686-w64-mingw32/4.9.2\libstdc++.a(eh_unex_handler.o)
                0x00427b44                __cxxabiv1::__unexpected_handler
 .data$_ZN12_GLOBAL__N_113__new_handlerE
                0x00427b48        0x4 C:/Program Files/ETAS/ISOLAR-EVE3.0/plugins/com.etas.evetools.toolsfolder_1.4.5/Tools/MinGW/bin/../lib/gcc/i686-w64-mingw32/4.9.2\libstdc++.a(new_handler.o)
 .data$_ZN12_GLOBAL__N_115emergency_mutexE
                0x00427b4c        0x8 C:/Program Files/ETAS/ISOLAR-EVE3.0/plugins/com.etas.evetools.toolsfolder_1.4.5/Tools/MinGW/bin/../lib/gcc/i686-w64-mingw32/4.9.2\libstdc++.a(eh_alloc.o)
 .data$_ZZN9__gnu_cxx27__verbose_terminate_handlerEvE11terminating
                0x00427b54        0x4 C:/Program Files/ETAS/ISOLAR-EVE3.0/plugins/com.etas.evetools.toolsfolder_1.4.5/Tools/MinGW/bin/../lib/gcc/i686-w64-mingw32/4.9.2\libstdc++.a(vterminate.o)
 .data$__emutls_v._ZZN12_GLOBAL__N_110get_globalEvE6global
                0x00427b58       0x10 C:/Program Files/ETAS/ISOLAR-EVE3.0/plugins/com.etas.evetools.toolsfolder_1.4.5/Tools/MinGW/bin/../lib/gcc/i686-w64-mingw32/4.9.2\libstdc++.a(eh_globals.o)
 .data$__security_cookie
                0x00427b68        0x4 C:/Program Files/ETAS/ISOLAR-EVE3.0/plugins/com.etas.evetools.toolsfolder_1.4.5/Tools/MinGW/bin/../lib/gcc/i686-w64-mingw32/4.9.2/../../../../i686-w64-mingw32/lib/../lib/libmingw32.a(lib32_libmingw32_a-gs_support.o)
                0x00427b68                __security_cookie
 .data$__security_cookie_complement
                0x00427b6c        0x4 C:/Program Files/ETAS/ISOLAR-EVE3.0/plugins/com.etas.evetools.toolsfolder_1.4.5/Tools/MinGW/bin/../lib/gcc/i686-w64-mingw32/4.9.2/../../../../i686-w64-mingw32/lib/../lib/libmingw32.a(lib32_libmingw32_a-gs_support.o)
                0x00427b6c                __security_cookie_complement
 *(.jcr)
 .jcr           0x00427b70        0x0 C:/Program Files/ETAS/ISOLAR-EVE3.0/plugins/com.etas.evetools.toolsfolder_1.4.5/Tools/MinGW/bin/../lib/gcc/i686-w64-mingw32/4.9.2/crtbegin.o
 .jcr           0x00427b70        0x4 C:/Program Files/ETAS/ISOLAR-EVE3.0/plugins/com.etas.evetools.toolsfolder_1.4.5/Tools/MinGW/bin/../lib/gcc/i686-w64-mingw32/4.9.2/crtend.o
                0x00427b74                __data_end__ = .
 *(.data_cygwin_nocopy)

.rdata          0x00428000     0x9200
 *(.rdata)
 .rdata         0x00428000       0x64 C:/Program Files/ETAS/ISOLAR-EVE3.0/plugins/com.etas.evetools.toolsfolder_1.4.5/Tools/MinGW/bin/../lib/gcc/i686-w64-mingw32/4.9.2/crtbegin.o
 .rdata         0x00428064      0x1c8 EVE_SystemClock.o
 .rdata         0x0042822c       0x68 Os_ErrorHook.o
 *fill*         0x00428294       0x2c 
 .rdata         0x004282c0      0x400 Rte.o
                0x004282c0                Rte_Queue_CPT_ACT_HIGHBEAM_P_HIGBEAMMODE_TO_ECU_ABS_AFS_OPER_ACT_TO_ECU
                0x004282dc                Rte_Queue_CPT_ACT_LEFTRIGHT_MOTOR_P_LEFTRIGHTANGLE_TO_ECU_ABS_AFS_OPER_ACT_TO_ECU
                0x004282f8                Rte_Queue_CPT_ACT_LOWBEAM_P_LOWBEAMMODE_TO_ECU_ABS_AFS_OPER_ACT_TO_ECU
                0x00428314                Rte_Queue_CPT_ACT_UPDOWN_MOTOR_P_UPDOWNANGLE_TO_ECU_ABS_AFS_OPER_ACT_TO_ECU
                0x00428330                Rte_Queue_CPT_ECU_ABS_AFS_P_DISTANCE_TO_SENSOR_DISTANCE_OPER_ECU_TO_SENSOR
                0x0042834c                Rte_Queue_CPT_ECU_ABS_AFS_P_LIGHTMODE_TO_SENSOR_LIGHTMODE_OPER_ECU_TO_SENSOR
                0x00428368                Rte_Queue_CPT_ECU_ABS_AFS_P_LIGHT_TO_SENSOR_LIGHT_OPER_ECU_TO_SENSOR
                0x00428384                Rte_Queue_CPT_ECU_ABS_AFS_P_SPEED_TO_SENSOR_SPEED_OPER_ECU_TO_SENSOR
                0x004283a0                Rte_Queue_CPT_ECU_ABS_AFS_P_STEERINGALGLE_TO_SENSOR_STERRINGANGLE_OPER_ECU_TO_SENSOR
                0x004283bc                Rte_Queue_CPT_ECU_ABS_AFS_R_HIGHBEAMMODE_FROM_ACT_HIGHBEAM_OPER_ACT_TO_ECU_wowp
                0x004283c8                Rte_Queue_CPT_ECU_ABS_AFS_R_HIGHBEAMMODE_FROM_ACT_HIGHBEAM_OPER_ACT_TO_ECU
                0x004283e4                Rte_Queue_CPT_ECU_ABS_AFS_R_LEFTRIGHTANGLE_FROM_ACT_LEFTRIGHT_MOTOR_OPER_ACT_TO_ECU_wowp
                0x004283f0                Rte_Queue_CPT_ECU_ABS_AFS_R_LEFTRIGHTANGLE_FROM_ACT_LEFTRIGHT_MOTOR_OPER_ACT_TO_ECU
                0x0042840c                Rte_Queue_CPT_ECU_ABS_AFS_R_LOWBEAMMODE_FROM_ACT_LOWBEAM_OPER_ACT_TO_ECU_wowp
                0x00428418                Rte_Queue_CPT_ECU_ABS_AFS_R_LOWBEAMMODE_FROM_ACT_LOWBEAM_OPER_ACT_TO_ECU
                0x00428434                Rte_Queue_CPT_ECU_ABS_AFS_R_UPDOWNANGLE_FROM_ACT_UPDOWN_MOTOR_OPER_ACT_TO_ECU_wowp
                0x00428440                Rte_Queue_CPT_ECU_ABS_AFS_R_UPDOWNANGLE_FROM_ACT_UPDOWN_MOTOR_OPER_ACT_TO_ECU
                0x0042845c                Rte_Queue_CPT_SENSOR_DISTANCE_R_DISTANCE_FROM_ECU_ABS_AFS_OPER_ECU_TO_SENSOR
                0x00428474                Rte_Queue_CPT_SENSOR_LIGHTMODE_R_LIGHTMODE_FROM_ECU_ABS_AFS_OPER_ECU_TO_SENSOR
                0x0042848c                Rte_Queue_CPT_SENSOR_LIGHT_R_LIGHT_FROM_ECU_ABS_AFS_OPER_ECU_TO_SENSOR
                0x004284a4                Rte_Queue_CPT_SENSOR_SPEED_R_SPEED_FROM_ECU_ABS_AFS_OPER_ECU_TO_SENSOR
                0x004284bc                Rte_Queue_CPT_SENSOR_STEERINGANGLE_R_STEERINGANGLE_FROM_ECU_ABS_AFS_OPER_ECU_TO_SENSOR
                0x00428500                Rte_Tasks
                0x00428608                Rte_TimeoutAlarms
                0x00428620                Rte_Inst_ACT_HIGHBEAM
                0x00428624                Rte_Self_CPT_ACT_HIGHBEAM
                0x00428628                Rte_Inst_ACT_LEFTRIGHT_MOTOR
                0x0042862c                Rte_Self_CPT_ACT_LEFTRIGHT_MOTOR
                0x00428630                Rte_Inst_ACT_LOWBEAM
                0x00428634                Rte_Self_CPT_ACT_LOWBEAM
                0x00428638                Rte_Inst_ACT_UPDOWN_MOTOR
                0x0042863c                Rte_Self_CPT_ACT_UPDOWN_MOTOR
                0x00428640                Rte_Inst_APP_HIGHBEAM
                0x00428644                Rte_Self_CPT_APP_HIGHBEAM
                0x00428648                Rte_Inst_APP_LOWBEAM
                0x0042864c                Rte_Self_CPT_APP_LOWBEAM
                0x00428650                Rte_Inst_APP_MOTOR
                0x00428654                Rte_Self_CPT_APP_MOTOR
                0x00428658                Rte_Inst_ECU_ABS_AFS
                0x0042865c                Rte_Self_CPT_ECU_ABS_AFS
                0x00428660                Rte_Inst_SENSOR_DISTANCE
                0x00428664                Rte_Self_CPT_SENSOR_DISTANCE
                0x00428668                Rte_Inst_SENSOR_LIGHT
                0x0042866c                Rte_Self_CPT_SENSOR_LIGHT
                0x00428670                Rte_Inst_SENSOR_LIGHTMODE
                0x00428674                Rte_Self_CPT_SENSOR_LIGHTMODE
                0x00428678                Rte_Inst_SENSOR_SPEED
                0x0042867c                Rte_Self_CPT_SENSOR_SPEED
                0x00428680                Rte_Inst_SENSOR_STEERINGANGLE
                0x00428684                Rte_Self_CPT_SENSOR_STEERINGANGLE
 .rdata         0x004286c0        0x8 Rte_APP_MOTOR.o
 .rdata         0x004286c8      0x118 Rte_ECU_ABS_AFS.o
 .rdata         0x004287e0       0xa0 VirtualDevices.o
 .rdata         0x00428880      0x380 RTAOS.lib(Os_Cfg.o)
                0x00428880                Os_const_ecc_tasks
                0x004288a0                Os_const_fifocontrol
                0x004288d0                TotalNumberOfCores
                0x004288d4                Os_const_resources
                0x00428900                Os_const_tasks
                0x00428bc0                Os_const_isrs
 .rdata         0x00428c00       0x80 RTAOS.lib(Os_Cfg_Counters.o)
                0x00428c00                Os_const_expiry_actions
                0x00428c0e                Os_const_expiry_intervals
                0x00428c10                Os_const_counter_callbacks
                0x00428c14                Os_const_scheduletables
                0x00428c20                Os_const_alarms
                0x00428c40                Os_const_counters
 .rdata         0x00428c80       0x80 RTAOS.lib(vrtaAppMain.o)
                0x00428c80                Os_CoreIdForInterruptVector
 .rdata         0x00428d00      0x2c8 RTAOS.lib(vrtaCore.o)
 .rdata         0x00428fc8      0x268 RTAOS.lib(vrtaLoggerDevice.o)
 .rdata         0x00429230      0xe70 RTAOS.lib(vrtaOSMonitorDevice.o)
 .rdata         0x0042a0a0     0x1108 RTAOS.lib(vrtaSampleDevices.o)
 .rdata         0x0042b1a8      0x7f4 RTAOS.lib(vrtaSystemClockDevice.o)
 *fill*         0x0042b99c       0x24 
 .rdata         0x0042b9c0      0x1c0 RTAOS.lib(Os_vectors.o)
                0x0042b9c0                Os_InterruptVectorTable
 .rdata         0x0042bb80       0x24 RTAOS.lib(virtualDevice.o)
 .rdata         0x0042bba4       0x34 C:/Program Files/ETAS/ISOLAR-EVE3.0/plugins/com.etas.evetools.toolsfolder_1.4.5/Tools/MinGW/bin/../lib/gcc/i686-w64-mingw32/4.9.2\libstdc++.a(eh_personality.o)
 .rdata         0x0042bbd8       0x3c C:/Program Files/ETAS/ISOLAR-EVE3.0/plugins/com.etas.evetools.toolsfolder_1.4.5/Tools/MinGW/bin/../lib/gcc/i686-w64-mingw32/4.9.2\libstdc++.a(pure.o)
 .rdata         0x0042bc14       0x90 C:/Program Files/ETAS/ISOLAR-EVE3.0/plugins/com.etas.evetools.toolsfolder_1.4.5/Tools/MinGW/bin/../lib/gcc/i686-w64-mingw32/4.9.2\libstdc++.a(vterminate.o)
 .rdata         0x0042bca4       0x10 C:/Program Files/ETAS/ISOLAR-EVE3.0/plugins/com.etas.evetools.toolsfolder_1.4.5/Tools/MinGW/bin/../lib/gcc/i686-w64-mingw32/4.9.2\libstdc++.a(bad_alloc.o)
 *fill*         0x0042bcb4        0xc 
 .rdata         0x0042bcc0     0x1900 C:/Program Files/ETAS/ISOLAR-EVE3.0/plugins/com.etas.evetools.toolsfolder_1.4.5/Tools/MinGW/bin/../lib/gcc/i686-w64-mingw32/4.9.2\libstdc++.a(cp-demangle.o)
 .rdata         0x0042d5c0       0x4c C:/Program Files/ETAS/ISOLAR-EVE3.0/plugins/com.etas.evetools.toolsfolder_1.4.5/Tools/MinGW/bin/../lib/gcc/i686-w64-mingw32/4.9.2\libstdc++.a(eh_alloc.o)
 .rdata         0x0042d60c       0x24 C:/Program Files/ETAS/ISOLAR-EVE3.0/plugins/com.etas.evetools.toolsfolder_1.4.5/Tools/MinGW/bin/../lib/gcc/i686-w64-mingw32/4.9.2\libstdc++.a(eh_exception.o)
 .rdata         0x0042d630        0x8 C:/Program Files/ETAS/ISOLAR-EVE3.0/plugins/com.etas.evetools.toolsfolder_1.4.5/Tools/MinGW/bin/../lib/gcc/i686-w64-mingw32/4.9.2/../../../../i686-w64-mingw32/lib/../lib/libmingw32.a(lib32_libmingw32_a-gs_support.o)
 .rdata         0x0042d638        0x4 C:/Program Files/ETAS/ISOLAR-EVE3.0/plugins/com.etas.evetools.toolsfolder_1.4.5/Tools/MinGW/bin/../lib/gcc/i686-w64-mingw32/4.9.2/../../../../i686-w64-mingw32/lib/../lib/libmingw32.a(lib32_libmingw32_a-tlssup.o)
                0x0042d638                __dyn_tls_init_callback
 .rdata         0x0042d63c      0x134 C:/Program Files/ETAS/ISOLAR-EVE3.0/plugins/com.etas.evetools.toolsfolder_1.4.5/Tools/MinGW/bin/../lib/gcc/i686-w64-mingw32/4.9.2/../../../../i686-w64-mingw32/lib/../lib/libmingw32.a(lib32_libmingw32_a-merr.o)
 .rdata         0x0042d770       0xf8 C:/Program Files/ETAS/ISOLAR-EVE3.0/plugins/com.etas.evetools.toolsfolder_1.4.5/Tools/MinGW/bin/../lib/gcc/i686-w64-mingw32/4.9.2/../../../../i686-w64-mingw32/lib/../lib/libmingw32.a(lib32_libmingw32_a-pseudo-reloc.o)
 .rdata         0x0042d868      0x5b8 C:/Program Files/ETAS/ISOLAR-EVE3.0/plugins/com.etas.evetools.toolsfolder_1.4.5/Tools/MinGW/bin/../lib/gcc/i686-w64-mingw32/4.9.2/libgcc_eh.a(unwind-dw2.o)
 .rdata         0x0042de20       0x34 C:/Program Files/ETAS/ISOLAR-EVE3.0/plugins/com.etas.evetools.toolsfolder_1.4.5/Tools/MinGW/bin/../lib/gcc/i686-w64-mingw32/4.9.2/libgcc_eh.a(unwind-dw2-fde.o)
 *(SORT(.rdata$*))
 .rdata$_ZSt7nothrow
                0x0042de54        0x4 C:/Program Files/ETAS/ISOLAR-EVE3.0/plugins/com.etas.evetools.toolsfolder_1.4.5/Tools/MinGW/bin/../lib/gcc/i686-w64-mingw32/4.9.2\libstdc++.a(new_handler.o)
                0x0042de54                std::nothrow
 .rdata$_ZTI10vrtaDevice
                0x0042de58        0x8 RTAOS.lib(vrtaCore.o)
                0x0042de58                typeinfo for vrtaDevice
 .rdata$_ZTI10vrtaSensor
                0x0042de60        0xc RTAOS.lib(vrtaSampleDevices.o)
                0x0042de60                typeinfo for vrtaSensor
 .rdata$_ZTI11vrtaCompare
                0x0042de6c        0xc RTAOS.lib(vrtaSampleDevices.o)
                0x0042de6c                typeinfo for vrtaCompare
 .rdata$_ZTI11vrtaCounter
                0x0042de78        0xc RTAOS.lib(vrtaSampleDevices.o)
                0x0042de78                typeinfo for vrtaCounter
 .rdata$_ZTI12vrtaActuator
                0x0042de84        0xc RTAOS.lib(vrtaSampleDevices.o)
                0x0042de84                typeinfo for vrtaActuator
 .rdata$_ZTI13OSIdleHandler
                0x0042de90        0xc RTAOS.lib(vrtaOSMonitorDevice.o)
                0x0042de90                typeinfo for OSIdleHandler
 .rdata$_ZTI13VirtualDevice
                0x0042de9c        0x8 RTAOS.lib(vrtaOSMonitorDevice.o)
                0x0042de9c                typeinfo for VirtualDevice
 *fill*         0x0042dea4       0x1c 
 .rdata$_ZTI13vrtaBaseClock
                0x0042dec0       0x20 RTAOS.lib(vrtaSampleDevices.o)
                0x0042dec0                typeinfo for vrtaBaseClock
 .rdata$_ZTI13vrtaUpCounter
                0x0042dee0        0xc RTAOS.lib(vrtaSampleDevices.o)
                0x0042dee0                typeinfo for vrtaUpCounter
 .rdata$_ZTI14vrtaComparable
                0x0042deec        0xc RTAOS.lib(vrtaSampleDevices.o)
                0x0042deec                typeinfo for vrtaComparable
 .rdata$_ZTI15vrtaDownCounter
                0x0042def8        0xc RTAOS.lib(vrtaSampleDevices.o)
                0x0042def8                typeinfo for vrtaDownCounter
 .rdata$_ZTI17SystemClockDevice
                0x0042df04        0xc RTAOS.lib(vrtaSystemClockDevice.o)
                0x0042df04                typeinfo for SystemClockDevice
 .rdata$_ZTI17vrtaActuatorLight
                0x0042df10        0xc RTAOS.lib(vrtaSampleDevices.o)
                0x0042df10                typeinfo for vrtaActuatorLight
 .rdata$_ZTI17vrtaAdaptiveClock
                0x0042df1c        0xc RTAOS.lib(vrtaSampleDevices.o)
                0x0042df1c                typeinfo for vrtaAdaptiveClock
 .rdata$_ZTI18vrtaIdleSubscriber
                0x0042df28        0x8 RTAOS.lib(vrtaIdleHandling.o)
                0x0042df28                typeinfo for vrtaIdleSubscriber
 .rdata$_ZTI22SystemClockIdleHandler
                0x0042df30        0xc RTAOS.lib(vrtaSystemClockDevice.o)
                0x0042df30                typeinfo for SystemClockIdleHandler
 .rdata$_ZTI22vrtaSensorToggleSwitch
                0x0042df3c        0xc RTAOS.lib(vrtaSampleDevices.o)
                0x0042df3c                typeinfo for vrtaSensorToggleSwitch
 .rdata$_ZTI24vrtaSensorMultiwaySwitch
                0x0042df48        0xc RTAOS.lib(vrtaSampleDevices.o)
                0x0042df48                typeinfo for vrtaSensorMultiwaySwitch
 .rdata$_ZTI25vrtaActuatorDimmableLight
                0x0042df54        0xc RTAOS.lib(vrtaSampleDevices.o)
                0x0042df54                typeinfo for vrtaActuatorDimmableLight
 .rdata$_ZTI25vrtaSystemClockSubscriber
                0x0042df60        0x8 RTAOS.lib(vrtaSampleDevices.o)
                0x0042df60                typeinfo for vrtaSystemClockSubscriber
 .rdata$_ZTI26vrtaSystemClockIdleHandler
                0x0042df68        0xc RTAOS.lib(vrtaSystemClock.o)
                0x0042df68                typeinfo for vrtaSystemClockIdleHandler
 .rdata$_ZTI27vrtaActuatorMultiColorLight
                0x0042df74        0xc RTAOS.lib(vrtaSampleDevices.o)
                0x0042df74                typeinfo for vrtaActuatorMultiColorLight
 .rdata$_ZTI34vrtaCustomTickSourceImplementation
                0x0042df80        0xc RTAOS.lib(vrtaSystemClock.o)
                0x0042df80                typeinfo for vrtaCustomTickSourceImplementation
 .rdata$_ZTI6Logger
                0x0042df8c        0xc RTAOS.lib(vrtaLoggerDevice.o)
                0x0042df8c                typeinfo for Logger
 .rdata$_ZTI6OsCore
                0x0042df98        0xc RTAOS.lib(vrtaOSMonitorDevice.o)
                0x0042df98                typeinfo for OsCore
 .rdata$_ZTI6vrtaIO
                0x0042dfa4        0xc RTAOS.lib(vrtaSampleDevices.o)
                0x0042dfa4                typeinfo for vrtaIO
 .rdata$_ZTI9OsMonitor
                0x0042dfb0        0xc RTAOS.lib(vrtaOSMonitorDevice.o)
                0x0042dfb0                typeinfo for OsMonitor
 .rdata$_ZTI9vrtaClock
                0x0042dfbc        0xc RTAOS.lib(vrtaSampleDevices.o)
                0x0042dfbc                typeinfo for vrtaClock
 .rdata$_ZTIN10__cxxabiv115__forced_unwindE
                0x0042dfc8        0x8 C:/Program Files/ETAS/ISOLAR-EVE3.0/plugins/com.etas.evetools.toolsfolder_1.4.5/Tools/MinGW/bin/../lib/gcc/i686-w64-mingw32/4.9.2\libstdc++.a(eh_personality.o)
                0x0042dfc8                typeinfo for __cxxabiv1::__forced_unwind
 .rdata$_ZTIN10__cxxabiv117__class_type_infoE
                0x0042dfd0        0xc C:/Program Files/ETAS/ISOLAR-EVE3.0/plugins/com.etas.evetools.toolsfolder_1.4.5/Tools/MinGW/bin/../lib/gcc/i686-w64-mingw32/4.9.2\libstdc++.a(class_type_info.o)
                0x0042dfd0                typeinfo for __cxxabiv1::__class_type_info
 .rdata$_ZTIN10__cxxabiv119__foreign_exceptionE
                0x0042dfdc        0x8 C:/Program Files/ETAS/ISOLAR-EVE3.0/plugins/com.etas.evetools.toolsfolder_1.4.5/Tools/MinGW/bin/../lib/gcc/i686-w64-mingw32/4.9.2\libstdc++.a(eh_personality.o)
                0x0042dfdc                typeinfo for __cxxabiv1::__foreign_exception
 .rdata$_ZTIN10__cxxabiv120__si_class_type_infoE
                0x0042dfe4        0xc C:/Program Files/ETAS/ISOLAR-EVE3.0/plugins/com.etas.evetools.toolsfolder_1.4.5/Tools/MinGW/bin/../lib/gcc/i686-w64-mingw32/4.9.2\libstdc++.a(si_class_type_info.o)
                0x0042dfe4                typeinfo for __cxxabiv1::__si_class_type_info
 .rdata$_ZTIN10__cxxabiv121__vmi_class_type_infoE
                0x0042dff0        0xc C:/Program Files/ETAS/ISOLAR-EVE3.0/plugins/com.etas.evetools.toolsfolder_1.4.5/Tools/MinGW/bin/../lib/gcc/i686-w64-mingw32/4.9.2\libstdc++.a(vmi_class_type_info.o)
                0x0042dff0                typeinfo for __cxxabiv1::__vmi_class_type_info
 .rdata$_ZTIN13VirtualDevice10ActionListE
                0x0042dffc        0xc RTAOS.lib(virtualDevice.o)
                0x0042dffc                typeinfo for VirtualDevice::ActionList
 .rdata$_ZTIN13VirtualDevice13StringBuilderE
                0x0042e008        0x8 RTAOS.lib(virtualDevice.o)
                0x0042e008                typeinfo for VirtualDevice::StringBuilder
 .rdata$_ZTIN13VirtualDevice7OptListE
                0x0042e010        0xc RTAOS.lib(virtualDevice.o)
                0x0042e010                typeinfo for VirtualDevice::OptList
 .rdata$_ZTIN13VirtualDevice9EventListE
                0x0042e01c        0xc RTAOS.lib(virtualDevice.o)
                0x0042e01c                typeinfo for VirtualDevice::EventList
 .rdata$_ZTIN9__gnu_cxx24__concurrence_lock_errorE
                0x0042e028        0xc C:/Program Files/ETAS/ISOLAR-EVE3.0/plugins/com.etas.evetools.toolsfolder_1.4.5/Tools/MinGW/bin/../lib/gcc/i686-w64-mingw32/4.9.2\libstdc++.a(eh_alloc.o)
                0x0042e028                typeinfo for __gnu_cxx::__concurrence_lock_error
 .rdata$_ZTIN9__gnu_cxx26__concurrence_unlock_errorE
                0x0042e034        0xc C:/Program Files/ETAS/ISOLAR-EVE3.0/plugins/com.etas.evetools.toolsfolder_1.4.5/Tools/MinGW/bin/../lib/gcc/i686-w64-mingw32/4.9.2\libstdc++.a(eh_alloc.o)
                0x0042e034                typeinfo for __gnu_cxx::__concurrence_unlock_error
 .rdata$_ZTISt13bad_exception
                0x0042e040        0xc C:/Program Files/ETAS/ISOLAR-EVE3.0/plugins/com.etas.evetools.toolsfolder_1.4.5/Tools/MinGW/bin/../lib/gcc/i686-w64-mingw32/4.9.2\libstdc++.a(eh_personality.o)
                0x0042e040                typeinfo for std::bad_exception
 .rdata$_ZTISt9bad_alloc
                0x0042e04c        0xc C:/Program Files/ETAS/ISOLAR-EVE3.0/plugins/com.etas.evetools.toolsfolder_1.4.5/Tools/MinGW/bin/../lib/gcc/i686-w64-mingw32/4.9.2\libstdc++.a(new_op.o)
                0x0042e04c                typeinfo for std::bad_alloc
 .rdata$_ZTISt9exception
                0x0042e058        0x8 C:/Program Files/ETAS/ISOLAR-EVE3.0/plugins/com.etas.evetools.toolsfolder_1.4.5/Tools/MinGW/bin/../lib/gcc/i686-w64-mingw32/4.9.2\libstdc++.a(eh_personality.o)
                0x0042e058                typeinfo for std::exception
 .rdata$_ZTISt9type_info
                0x0042e060        0x8 C:/Program Files/ETAS/ISOLAR-EVE3.0/plugins/com.etas.evetools.toolsfolder_1.4.5/Tools/MinGW/bin/../lib/gcc/i686-w64-mingw32/4.9.2\libstdc++.a(class_type_info.o)
                0x0042e060                typeinfo for std::type_info
 .rdata$_ZTS10vrtaDevice
                0x0042e068       0x10 RTAOS.lib(vrtaCore.o)
                0x0042e068                typeinfo name for vrtaDevice
 .rdata$_ZTS10vrtaSensor
                0x0042e078       0x10 RTAOS.lib(vrtaSampleDevices.o)
                0x0042e078                typeinfo name for vrtaSensor
 .rdata$_ZTS11vrtaCompare
                0x0042e088       0x10 RTAOS.lib(vrtaSampleDevices.o)
                0x0042e088                typeinfo name for vrtaCompare
 .rdata$_ZTS11vrtaCounter
                0x0042e098       0x10 RTAOS.lib(vrtaSampleDevices.o)
                0x0042e098                typeinfo name for vrtaCounter
 .rdata$_ZTS12vrtaActuator
                0x0042e0a8       0x10 RTAOS.lib(vrtaSampleDevices.o)
                0x0042e0a8                typeinfo name for vrtaActuator
 .rdata$_ZTS13OSIdleHandler
                0x0042e0b8       0x10 RTAOS.lib(vrtaOSMonitorDevice.o)
                0x0042e0b8                typeinfo name for OSIdleHandler
 .rdata$_ZTS13VirtualDevice
                0x0042e0c8       0x10 RTAOS.lib(vrtaOSMonitorDevice.o)
                0x0042e0c8                typeinfo name for VirtualDevice
 .rdata$_ZTS13vrtaBaseClock
                0x0042e0d8       0x10 RTAOS.lib(vrtaSampleDevices.o)
                0x0042e0d8                typeinfo name for vrtaBaseClock
 .rdata$_ZTS13vrtaUpCounter
                0x0042e0e8       0x10 RTAOS.lib(vrtaSampleDevices.o)
                0x0042e0e8                typeinfo name for vrtaUpCounter
 .rdata$_ZTS14vrtaComparable
                0x0042e0f8       0x14 RTAOS.lib(vrtaSampleDevices.o)
                0x0042e0f8                typeinfo name for vrtaComparable
 .rdata$_ZTS15vrtaDownCounter
                0x0042e10c       0x14 RTAOS.lib(vrtaSampleDevices.o)
                0x0042e10c                typeinfo name for vrtaDownCounter
 .rdata$_ZTS17SystemClockDevice
                0x0042e120       0x14 RTAOS.lib(vrtaSystemClockDevice.o)
                0x0042e120                typeinfo name for SystemClockDevice
 .rdata$_ZTS17vrtaActuatorLight
                0x0042e134       0x14 RTAOS.lib(vrtaSampleDevices.o)
                0x0042e134                typeinfo name for vrtaActuatorLight
 .rdata$_ZTS17vrtaAdaptiveClock
                0x0042e148       0x14 RTAOS.lib(vrtaSampleDevices.o)
                0x0042e148                typeinfo name for vrtaAdaptiveClock
 .rdata$_ZTS18vrtaIdleSubscriber
                0x0042e15c       0x18 RTAOS.lib(vrtaIdleHandling.o)
                0x0042e15c                typeinfo name for vrtaIdleSubscriber
 .rdata$_ZTS22SystemClockIdleHandler
                0x0042e174       0x1c RTAOS.lib(vrtaSystemClockDevice.o)
                0x0042e174                typeinfo name for SystemClockIdleHandler
 .rdata$_ZTS22vrtaSensorToggleSwitch
                0x0042e190       0x1c RTAOS.lib(vrtaSampleDevices.o)
                0x0042e190                typeinfo name for vrtaSensorToggleSwitch
 .rdata$_ZTS24vrtaSensorMultiwaySwitch
                0x0042e1ac       0x1c RTAOS.lib(vrtaSampleDevices.o)
                0x0042e1ac                typeinfo name for vrtaSensorMultiwaySwitch
 .rdata$_ZTS25vrtaActuatorDimmableLight
                0x0042e1c8       0x1c RTAOS.lib(vrtaSampleDevices.o)
                0x0042e1c8                typeinfo name for vrtaActuatorDimmableLight
 .rdata$_ZTS25vrtaSystemClockSubscriber
                0x0042e1e4       0x1c RTAOS.lib(vrtaSampleDevices.o)
                0x0042e1e4                typeinfo name for vrtaSystemClockSubscriber
 .rdata$_ZTS26vrtaSystemClockIdleHandler
                0x0042e200       0x20 RTAOS.lib(vrtaSystemClock.o)
                0x0042e200                typeinfo name for vrtaSystemClockIdleHandler
 .rdata$_ZTS27vrtaActuatorMultiColorLight
                0x0042e220       0x20 RTAOS.lib(vrtaSampleDevices.o)
                0x0042e220                typeinfo name for vrtaActuatorMultiColorLight
 .rdata$_ZTS34vrtaCustomTickSourceImplementation
                0x0042e240       0x40 RTAOS.lib(vrtaSystemClock.o)
                0x0042e240                typeinfo name for vrtaCustomTickSourceImplementation
 .rdata$_ZTS6Logger
                0x0042e280        0x8 RTAOS.lib(vrtaLoggerDevice.o)
                0x0042e280                typeinfo name for Logger
 .rdata$_ZTS6OsCore
                0x0042e288        0x8 RTAOS.lib(vrtaOSMonitorDevice.o)
                0x0042e288                typeinfo name for OsCore
 .rdata$_ZTS6vrtaIO
                0x0042e290        0x8 RTAOS.lib(vrtaSampleDevices.o)
                0x0042e290                typeinfo name for vrtaIO
 .rdata$_ZTS9OsMonitor
                0x0042e298        0xc RTAOS.lib(vrtaOSMonitorDevice.o)
                0x0042e298                typeinfo name for OsMonitor
 .rdata$_ZTS9vrtaClock
                0x0042e2a4        0xc RTAOS.lib(vrtaSampleDevices.o)
                0x0042e2a4                typeinfo name for vrtaClock
 *fill*         0x0042e2b0       0x10 
 .rdata$_ZTSN10__cxxabiv115__forced_unwindE
                0x0042e2c0       0x20 C:/Program Files/ETAS/ISOLAR-EVE3.0/plugins/com.etas.evetools.toolsfolder_1.4.5/Tools/MinGW/bin/../lib/gcc/i686-w64-mingw32/4.9.2\libstdc++.a(eh_personality.o)
                0x0042e2c0                typeinfo name for __cxxabiv1::__forced_unwind
 .rdata$_ZTSN10__cxxabiv117__class_type_infoE
                0x0042e2e0       0x40 C:/Program Files/ETAS/ISOLAR-EVE3.0/plugins/com.etas.evetools.toolsfolder_1.4.5/Tools/MinGW/bin/../lib/gcc/i686-w64-mingw32/4.9.2\libstdc++.a(class_type_info.o)
                0x0042e2e0                typeinfo name for __cxxabiv1::__class_type_info
 .rdata$_ZTSN10__cxxabiv119__foreign_exceptionE
                0x0042e320       0x40 C:/Program Files/ETAS/ISOLAR-EVE3.0/plugins/com.etas.evetools.toolsfolder_1.4.5/Tools/MinGW/bin/../lib/gcc/i686-w64-mingw32/4.9.2\libstdc++.a(eh_personality.o)
                0x0042e320                typeinfo name for __cxxabiv1::__foreign_exception
 .rdata$_ZTSN10__cxxabiv120__si_class_type_infoE
                0x0042e360       0x40 C:/Program Files/ETAS/ISOLAR-EVE3.0/plugins/com.etas.evetools.toolsfolder_1.4.5/Tools/MinGW/bin/../lib/gcc/i686-w64-mingw32/4.9.2\libstdc++.a(si_class_type_info.o)
                0x0042e360                typeinfo name for __cxxabiv1::__si_class_type_info
 .rdata$_ZTSN10__cxxabiv121__vmi_class_type_infoE
                0x0042e3a0       0x40 C:/Program Files/ETAS/ISOLAR-EVE3.0/plugins/com.etas.evetools.toolsfolder_1.4.5/Tools/MinGW/bin/../lib/gcc/i686-w64-mingw32/4.9.2\libstdc++.a(vmi_class_type_info.o)
                0x0042e3a0                typeinfo name for __cxxabiv1::__vmi_class_type_info
 .rdata$_ZTSN13VirtualDevice10ActionListE
                0x0042e3e0       0x20 RTAOS.lib(virtualDevice.o)
                0x0042e3e0                typeinfo name for VirtualDevice::ActionList
 .rdata$_ZTSN13VirtualDevice13StringBuilderE
                0x0042e400       0x40 RTAOS.lib(virtualDevice.o)
                0x0042e400                typeinfo name for VirtualDevice::StringBuilder
 .rdata$_ZTSN13VirtualDevice7OptListE
                0x0042e440       0x1c RTAOS.lib(virtualDevice.o)
                0x0042e440                typeinfo name for VirtualDevice::OptList
 .rdata$_ZTSN13VirtualDevice9EventListE
                0x0042e45c       0x1c RTAOS.lib(virtualDevice.o)
                0x0042e45c                typeinfo name for VirtualDevice::EventList
 *fill*         0x0042e478        0x8 
 .rdata$_ZTSN9__gnu_cxx24__concurrence_lock_errorE
                0x0042e480       0x40 C:/Program Files/ETAS/ISOLAR-EVE3.0/plugins/com.etas.evetools.toolsfolder_1.4.5/Tools/MinGW/bin/../lib/gcc/i686-w64-mingw32/4.9.2\libstdc++.a(eh_alloc.o)
                0x0042e480                typeinfo name for __gnu_cxx::__concurrence_lock_error
 .rdata$_ZTSN9__gnu_cxx26__concurrence_unlock_errorE
                0x0042e4c0       0x40 C:/Program Files/ETAS/ISOLAR-EVE3.0/plugins/com.etas.evetools.toolsfolder_1.4.5/Tools/MinGW/bin/../lib/gcc/i686-w64-mingw32/4.9.2\libstdc++.a(eh_alloc.o)
                0x0042e4c0                typeinfo name for __gnu_cxx::__concurrence_unlock_error
 .rdata$_ZTSSt13bad_exception
                0x0042e500       0x14 C:/Program Files/ETAS/ISOLAR-EVE3.0/plugins/com.etas.evetools.toolsfolder_1.4.5/Tools/MinGW/bin/../lib/gcc/i686-w64-mingw32/4.9.2\libstdc++.a(eh_personality.o)
                0x0042e500                typeinfo name for std::bad_exception
 .rdata$_ZTSSt9bad_alloc
                0x0042e514       0x10 C:/Program Files/ETAS/ISOLAR-EVE3.0/plugins/com.etas.evetools.toolsfolder_1.4.5/Tools/MinGW/bin/../lib/gcc/i686-w64-mingw32/4.9.2\libstdc++.a(new_op.o)
                0x0042e514                typeinfo name for std::bad_alloc
 .rdata$_ZTSSt9exception
                0x0042e524       0x10 C:/Program Files/ETAS/ISOLAR-EVE3.0/plugins/com.etas.evetools.toolsfolder_1.4.5/Tools/MinGW/bin/../lib/gcc/i686-w64-mingw32/4.9.2\libstdc++.a(eh_personality.o)
                0x0042e524                typeinfo name for std::exception
 .rdata$_ZTSSt9type_info
                0x0042e534       0x10 C:/Program Files/ETAS/ISOLAR-EVE3.0/plugins/com.etas.evetools.toolsfolder_1.4.5/Tools/MinGW/bin/../lib/gcc/i686-w64-mingw32/4.9.2\libstdc++.a(class_type_info.o)
                0x0042e534                typeinfo name for std::type_info
 *fill*         0x0042e544       0x1c 
 .rdata$_ZTV10vrtaDevice
                0x0042e560       0x40 RTAOS.lib(vrtaCore.o)
                0x0042e560                vtable for vrtaDevice
 .rdata$_ZTV10vrtaSensor
                0x0042e5a0       0x40 RTAOS.lib(vrtaSampleDevices.o)
                0x0042e5a0                vtable for vrtaSensor
 .rdata$_ZTV11vrtaCompare
                0x0042e5e0       0x40 RTAOS.lib(vrtaSampleDevices.o)
                0x0042e5e0                vtable for vrtaCompare
 .rdata$_ZTV11vrtaCounter
                0x0042e620       0x40 RTAOS.lib(vrtaSampleDevices.o)
                0x0042e620                vtable for vrtaCounter
 .rdata$_ZTV12vrtaActuator
                0x0042e660       0x40 RTAOS.lib(vrtaSampleDevices.o)
                0x0042e660                vtable for vrtaActuator
 .rdata$_ZTV13OSIdleHandler
                0x0042e6a0       0x10 RTAOS.lib(vrtaOSMonitorDevice.o)
                0x0042e6a0                vtable for OSIdleHandler
 *fill*         0x0042e6b0       0x10 
 .rdata$_ZTV13VirtualDevice
                0x0042e6c0       0x40 RTAOS.lib(virtualDevice.o)
                0x0042e6c0                vtable for VirtualDevice
 .rdata$_ZTV13vrtaBaseClock
                0x0042e700       0x80 RTAOS.lib(vrtaSampleDevices.o)
                0x0042e700                vtable for vrtaBaseClock
 .rdata$_ZTV13vrtaUpCounter
                0x0042e780       0x40 RTAOS.lib(vrtaSampleDevices.o)
                0x0042e780                vtable for vrtaUpCounter
 .rdata$_ZTV14vrtaComparable
                0x0042e7c0       0x40 RTAOS.lib(vrtaSampleDevices.o)
                0x0042e7c0                vtable for vrtaComparable
 .rdata$_ZTV15vrtaDownCounter
                0x0042e800       0x40 RTAOS.lib(vrtaSampleDevices.o)
                0x0042e800                vtable for vrtaDownCounter
 .rdata$_ZTV17SystemClockDevice
                0x0042e840       0x40 RTAOS.lib(vrtaSystemClockDevice.o)
                0x0042e840                vtable for SystemClockDevice
 .rdata$_ZTV17vrtaActuatorLight
                0x0042e880       0x40 RTAOS.lib(vrtaSampleDevices.o)
                0x0042e880                vtable for vrtaActuatorLight
 .rdata$_ZTV17vrtaAdaptiveClock
                0x0042e8c0       0x80 RTAOS.lib(vrtaSampleDevices.o)
                0x0042e8c0                vtable for vrtaAdaptiveClock
 .rdata$_ZTV18vrtaIdleSubscriber
                0x0042e940       0x10 RTAOS.lib(vrtaIdleHandling.o)
                0x0042e940                vtable for vrtaIdleSubscriber
 .rdata$_ZTV22SystemClockIdleHandler
                0x0042e950       0x10 RTAOS.lib(vrtaSystemClockDevice.o)
                0x0042e950                vtable for SystemClockIdleHandler
 .rdata$_ZTV22vrtaSensorToggleSwitch
                0x0042e960       0x40 RTAOS.lib(vrtaSampleDevices.o)
                0x0042e960                vtable for vrtaSensorToggleSwitch
 .rdata$_ZTV24vrtaSensorMultiwaySwitch
                0x0042e9a0       0x40 RTAOS.lib(vrtaSampleDevices.o)
                0x0042e9a0                vtable for vrtaSensorMultiwaySwitch
 .rdata$_ZTV25vrtaActuatorDimmableLight
                0x0042e9e0       0x40 RTAOS.lib(vrtaSampleDevices.o)
                0x0042e9e0                vtable for vrtaActuatorDimmableLight
 .rdata$_ZTV25vrtaSystemClockSubscriber
                0x0042ea20       0x18 RTAOS.lib(vrtaSystemClock.o)
                0x0042ea20                vtable for vrtaSystemClockSubscriber
 .rdata$_ZTV26vrtaSystemClockIdleHandler
                0x0042ea38       0x10 RTAOS.lib(vrtaSystemClock.o)
                0x0042ea38                vtable for vrtaSystemClockIdleHandler
 *fill*         0x0042ea48       0x18 
 .rdata$_ZTV27vrtaActuatorMultiColorLight
                0x0042ea60       0x40 RTAOS.lib(vrtaSampleDevices.o)
                0x0042ea60                vtable for vrtaActuatorMultiColorLight
 .rdata$_ZTV34vrtaCustomTickSourceImplementation
                0x0042eaa0       0x18 RTAOS.lib(vrtaSystemClock.o)
                0x0042eaa0                vtable for vrtaCustomTickSourceImplementation
 *fill*         0x0042eab8        0x8 
 .rdata$_ZTV6Logger
                0x0042eac0       0x40 RTAOS.lib(vrtaLoggerDevice.o)
                0x0042eac0                vtable for Logger
 .rdata$_ZTV6OsCore
                0x0042eb00       0x40 RTAOS.lib(vrtaOSMonitorDevice.o)
                0x0042eb00                vtable for OsCore
 .rdata$_ZTV6vrtaIO
                0x0042eb40       0x40 RTAOS.lib(vrtaSampleDevices.o)
                0x0042eb40                vtable for vrtaIO
 .rdata$_ZTV9OsMonitor
                0x0042eb80       0x40 RTAOS.lib(vrtaOSMonitorDevice.o)
                0x0042eb80                vtable for OsMonitor
 .rdata$_ZTV9vrtaClock
                0x0042ebc0       0x80 RTAOS.lib(vrtaSampleDevices.o)
                0x0042ebc0                vtable for vrtaClock
 .rdata$_ZTVN10__cxxabiv115__forced_unwindE
                0x0042ec40       0x18 C:/Program Files/ETAS/ISOLAR-EVE3.0/plugins/com.etas.evetools.toolsfolder_1.4.5/Tools/MinGW/bin/../lib/gcc/i686-w64-mingw32/4.9.2\libstdc++.a(eh_exception.o)
                0x0042ec40                vtable for __cxxabiv1::__forced_unwind
 *fill*         0x0042ec58        0x8 
 .rdata$_ZTVN10__cxxabiv117__class_type_infoE
                0x0042ec60       0x40 C:/Program Files/ETAS/ISOLAR-EVE3.0/plugins/com.etas.evetools.toolsfolder_1.4.5/Tools/MinGW/bin/../lib/gcc/i686-w64-mingw32/4.9.2\libstdc++.a(class_type_info.o)
                0x0042ec60                vtable for __cxxabiv1::__class_type_info
 .rdata$_ZTVN10__cxxabiv119__foreign_exceptionE
                0x0042eca0       0x18 C:/Program Files/ETAS/ISOLAR-EVE3.0/plugins/com.etas.evetools.toolsfolder_1.4.5/Tools/MinGW/bin/../lib/gcc/i686-w64-mingw32/4.9.2\libstdc++.a(eh_exception.o)
                0x0042eca0                vtable for __cxxabiv1::__foreign_exception
 *fill*         0x0042ecb8        0x8 
 .rdata$_ZTVN10__cxxabiv120__si_class_type_infoE
                0x0042ecc0       0x40 C:/Program Files/ETAS/ISOLAR-EVE3.0/plugins/com.etas.evetools.toolsfolder_1.4.5/Tools/MinGW/bin/../lib/gcc/i686-w64-mingw32/4.9.2\libstdc++.a(si_class_type_info.o)
                0x0042ecc0                vtable for __cxxabiv1::__si_class_type_info
 .rdata$_ZTVN10__cxxabiv121__vmi_class_type_infoE
                0x0042ed00       0x40 C:/Program Files/ETAS/ISOLAR-EVE3.0/plugins/com.etas.evetools.toolsfolder_1.4.5/Tools/MinGW/bin/../lib/gcc/i686-w64-mingw32/4.9.2\libstdc++.a(vmi_class_type_info.o)
                0x0042ed00                vtable for __cxxabiv1::__vmi_class_type_info
 .rdata$_ZTVN13VirtualDevice10ActionListE
                0x0042ed40       0x18 RTAOS.lib(virtualDevice.o)
                0x0042ed40                vtable for VirtualDevice::ActionList
 .rdata$_ZTVN13VirtualDevice13StringBuilderE
                0x0042ed58       0x18 RTAOS.lib(virtualDevice.o)
                0x0042ed58                vtable for VirtualDevice::StringBuilder
 .rdata$_ZTVN13VirtualDevice7OptListE
                0x0042ed70       0x18 RTAOS.lib(virtualDevice.o)
                0x0042ed70                vtable for VirtualDevice::OptList
 .rdata$_ZTVN13VirtualDevice9EventListE
                0x0042ed88       0x18 RTAOS.lib(virtualDevice.o)
                0x0042ed88                vtable for VirtualDevice::EventList
 .rdata$_ZTVN9__gnu_cxx24__concurrence_lock_errorE
                0x0042eda0       0x18 C:/Program Files/ETAS/ISOLAR-EVE3.0/plugins/com.etas.evetools.toolsfolder_1.4.5/Tools/MinGW/bin/../lib/gcc/i686-w64-mingw32/4.9.2\libstdc++.a(eh_alloc.o)
                0x0042eda0                vtable for __gnu_cxx::__concurrence_lock_error
 .rdata$_ZTVN9__gnu_cxx26__concurrence_unlock_errorE
                0x0042edb8       0x18 C:/Program Files/ETAS/ISOLAR-EVE3.0/plugins/com.etas.evetools.toolsfolder_1.4.5/Tools/MinGW/bin/../lib/gcc/i686-w64-mingw32/4.9.2\libstdc++.a(eh_alloc.o)
                0x0042edb8                vtable for __gnu_cxx::__concurrence_unlock_error
 .rdata$_ZTVSt13bad_exception
                0x0042edd0       0x18 C:/Program Files/ETAS/ISOLAR-EVE3.0/plugins/com.etas.evetools.toolsfolder_1.4.5/Tools/MinGW/bin/../lib/gcc/i686-w64-mingw32/4.9.2\libstdc++.a(eh_exception.o)
                0x0042edd0                vtable for std::bad_exception
 .rdata$_ZTVSt9bad_alloc
                0x0042ede8       0x18 C:/Program Files/ETAS/ISOLAR-EVE3.0/plugins/com.etas.evetools.toolsfolder_1.4.5/Tools/MinGW/bin/../lib/gcc/i686-w64-mingw32/4.9.2\libstdc++.a(bad_alloc.o)
                0x0042ede8                vtable for std::bad_alloc
 .rdata$_ZTVSt9exception
                0x0042ee00       0x18 C:/Program Files/ETAS/ISOLAR-EVE3.0/plugins/com.etas.evetools.toolsfolder_1.4.5/Tools/MinGW/bin/../lib/gcc/i686-w64-mingw32/4.9.2\libstdc++.a(eh_exception.o)
                0x0042ee00                vtable for std::exception
 *fill*         0x0042ee18        0x8 
 .rdata$_ZTVSt9type_info
                0x0042ee20       0x20 C:/Program Files/ETAS/ISOLAR-EVE3.0/plugins/com.etas.evetools.toolsfolder_1.4.5/Tools/MinGW/bin/../lib/gcc/i686-w64-mingw32/4.9.2\libstdc++.a(tinfo.o)
                0x0042ee20                vtable for std::type_info
 .rdata$zzz     0x0042ee40       0x40 C:/Program Files/ETAS/ISOLAR-EVE3.0/plugins/com.etas.evetools.toolsfolder_1.4.5/Tools/MinGW/bin/../lib/gcc/i686-w64-mingw32/4.9.2/../../../../i686-w64-mingw32/lib/../lib/crt2.o
 .rdata$zzz     0x0042ee80       0x40 C:/Program Files/ETAS/ISOLAR-EVE3.0/plugins/com.etas.evetools.toolsfolder_1.4.5/Tools/MinGW/bin/../lib/gcc/i686-w64-mingw32/4.9.2/crtbegin.o
 .rdata$zzz     0x0042eec0       0x40 BswTasks.o
 .rdata$zzz     0x0042ef00       0x40 EVE_SystemClock.o
 .rdata$zzz     0x0042ef40       0x40 main.o
 .rdata$zzz     0x0042ef80       0x40 Os_ErrorHook.o
 .rdata$zzz     0x0042efc0       0x40 Os_Hooks.o
 .rdata$zzz     0x0042f000       0x40 Rte.o
 .rdata$zzz     0x0042f040       0x40 Rte_ACT_HIGHBEAM.o
 .rdata$zzz     0x0042f080       0x40 Rte_ACT_LEFTRIGHT_MOTOR.o
 .rdata$zzz     0x0042f0c0       0x40 Rte_ACT_LOWBEAM.o
 .rdata$zzz     0x0042f100       0x40 Rte_ACT_UPDOWN_MOTOR.o
 .rdata$zzz     0x0042f140       0x40 Rte_APP_HIGHBEAM.o
 .rdata$zzz     0x0042f180       0x40 Rte_APP_LOWBEAM.o
 .rdata$zzz     0x0042f1c0       0x40 Rte_APP_MOTOR.o
 .rdata$zzz     0x0042f200       0x40 Rte_ECU_ABS_AFS.o
 .rdata$zzz     0x0042f240       0x40 Rte_Lib.o
 .rdata$zzz     0x0042f280       0x40 Rte_SENSOR_DISTANCE.o
 .rdata$zzz     0x0042f2c0       0x40 Rte_SENSOR_LIGHT.o
 .rdata$zzz     0x0042f300       0x40 Rte_SENSOR_LIGHTMODE.o
 .rdata$zzz     0x0042f340       0x40 Rte_SENSOR_SPEED.o
 .rdata$zzz     0x0042f380       0x40 Rte_SENSOR_STEERINGANGLE.o
 .rdata$zzz     0x0042f3c0       0x40 TAKS_ECU_SPEED.o
 .rdata$zzz     0x0042f400       0x40 target.o
 .rdata$zzz     0x0042f440       0x40 TASK_ACT_HIGHBEAM_RECEIVE.o
 .rdata$zzz     0x0042f480       0x40 TASK_ACT_HIGHBEAM_SEND.o
 .rdata$zzz     0x0042f4c0       0x40 TASK_ACT_LEFTRIGHTANGLE_RECEIVE.o
 .rdata$zzz     0x0042f500       0x40 TASK_ACT_LEFTRIGHTANGLE_SEND.o
 .rdata$zzz     0x0042f540       0x40 TASK_ACT_LOWBEAM_RECEIVE.o
 .rdata$zzz     0x0042f580       0x40 TASK_ACT_LOWBEAM_SEND.o
 .rdata$zzz     0x0042f5c0       0x40 TASK_ACT_UPDOWNANGLE_RECEIVE.o
 .rdata$zzz     0x0042f600       0x40 TASK_ACT_UPDOWNANGLE_SEND.o
 .rdata$zzz     0x0042f640       0x40 TASK_APP_HIGHBEAM.o
 .rdata$zzz     0x0042f680       0x40 TASK_APP_LOWBEAM.o
 .rdata$zzz     0x0042f6c0       0x40 TASK_APP_MOTOR.o
 .rdata$zzz     0x0042f700       0x40 TASK_ECU_ACTUATOR.o
 .rdata$zzz     0x0042f740       0x40 TASK_ECU_DISTANCE.o
 .rdata$zzz     0x0042f780       0x40 TASK_ECU_LIGHT.o
 .rdata$zzz     0x0042f7c0       0x40 TASK_ECU_LIGHTMODE.o
 .rdata$zzz     0x0042f800       0x40 TASK_EUC_STEERINGANGLE.o
 .rdata$zzz     0x0042f840       0x40 TASK_SENSOR_DISTANCE.o
 .rdata$zzz     0x0042f880       0x40 TASK_SENSOR_LIGHT.o
 .rdata$zzz     0x0042f8c0       0x40 TASK_SENSOR_LIGHTMODE.o
 .rdata$zzz     0x0042f900       0x40 TASK_SENSOR_SPEED.o
 .rdata$zzz     0x0042f940       0x40 TASK_SENSOR_STEERINGANGLE.o
 .rdata$zzz     0x0042f980       0x40 VECU_SystemClock_ISR.o
 .rdata$zzz     0x0042f9c0       0x40 VirtualDevices.o
 .rdata$zzz     0x0042fa00       0x40 Vrta_Cfg.o
 .rdata$zzz     0x0042fa40       0x40 RTAOS.lib(ActivateTask.o)
 .rdata$zzz     0x0042fa80       0x40 RTAOS.lib(CancelAlarm.o)
 .rdata$zzz     0x0042fac0       0x40 RTAOS.lib(ClearEvent.o)
 .rdata$zzz     0x0042fb00       0x40 RTAOS.lib(DispatchTask.o)
 .rdata$zzz     0x0042fb40       0x40 RTAOS.lib(GetEvent.o)
 .rdata$zzz     0x0042fb80       0x40 RTAOS.lib(GetISRID.o)
 .rdata$zzz     0x0042fbc0       0x40 RTAOS.lib(GetResource.o)
 .rdata$zzz     0x0042fc00       0x40 RTAOS.lib(GetTaskID.o)
 .rdata$zzz     0x0042fc40       0x40 RTAOS.lib(Os_Cfg.o)
 .rdata$zzz     0x0042fc80       0x40 RTAOS.lib(Os_Cfg_Counters.o)
 .rdata$zzz     0x0042fcc0       0x40 RTAOS.lib(Os_fsb.o)
 .rdata$zzz     0x0042fd00       0x40 RTAOS.lib(Os_SetJmp.o)
 .rdata$zzz     0x0042fd40       0x40 RTAOS.lib(Os_Stack.o)
 .rdata$zzz     0x0042fd80       0x40 RTAOS.lib(ReleaseResource.o)
 .rdata$zzz     0x0042fdc0       0x40 RTAOS.lib(ResumeOSInterrupts.o)
 .rdata$zzz     0x0042fe00       0x40 RTAOS.lib(SetEvent.o)
 .rdata$zzz     0x0042fe40       0x40 RTAOS.lib(SetRelAlarm.o)
 .rdata$zzz     0x0042fe80       0x40 RTAOS.lib(StartOS.o)
 .rdata$zzz     0x0042fec0       0x40 RTAOS.lib(StartScheduleTableRel.o)
 .rdata$zzz     0x0042ff00       0x40 RTAOS.lib(StopScheduleTable.o)
 .rdata$zzz     0x0042ff40       0x40 RTAOS.lib(SuspendOSInterrupts.o)
 .rdata$zzz     0x0042ff80       0x40 RTAOS.lib(TerminateTask.o)
 .rdata$zzz     0x0042ffc0       0x40 RTAOS.lib(vrtaAppMain.o)
 .rdata$zzz     0x00430000       0x40 RTAOS.lib(vrtaCore.o)
 .rdata$zzz     0x00430040       0x40 RTAOS.lib(vrtaIdleHandling.o)
 .rdata$zzz     0x00430080       0x40 RTAOS.lib(vrtaLoggerDevice.o)
 .rdata$zzz     0x004300c0       0x40 RTAOS.lib(vrtaOSMonitorDevice.o)
 .rdata$zzz     0x00430100       0x40 RTAOS.lib(vrtaSampleDevices.o)
 .rdata$zzz     0x00430140       0x40 RTAOS.lib(vrtaSystemClock.o)
 .rdata$zzz     0x00430180       0x40 RTAOS.lib(vrtaSystemClockDevice.o)
 .rdata$zzz     0x004301c0       0x40 RTAOS.lib(WaitEvent.o)
 .rdata$zzz     0x00430200       0x40 RTAOS.lib(DispatchECC.o)
 .rdata$zzz     0x00430240       0x40 RTAOS.lib(GetStackValue.o)
 .rdata$zzz     0x00430280       0x40 RTAOS.lib(Os_vectors.o)
 .rdata$zzz     0x004302c0       0x40 RTAOS.lib(Os_wrapper.o)
 .rdata$zzz     0x00430300       0x40 RTAOS.lib(StackOverrunHook.o)
 .rdata$zzz     0x00430340       0x40 RTAOS.lib(virtualDevice.o)
 .rdata$zzz     0x00430380       0x40 RTAOS.lib(ShutdownOS.o)
 .rdata$zzz     0x004303c0       0x40 RTAOS.lib(InShutdown.o)
 .rdata$zzz     0x00430400       0x40 C:/Program Files/ETAS/ISOLAR-EVE3.0/plugins/com.etas.evetools.toolsfolder_1.4.5/Tools/MinGW/bin/../lib/gcc/i686-w64-mingw32/4.9.2\libstdc++.a(class_type_info.o)
 .rdata$zzz     0x00430440       0x40 C:/Program Files/ETAS/ISOLAR-EVE3.0/plugins/com.etas.evetools.toolsfolder_1.4.5/Tools/MinGW/bin/../lib/gcc/i686-w64-mingw32/4.9.2\libstdc++.a(del_op.o)
 .rdata$zzz     0x00430480       0x40 C:/Program Files/ETAS/ISOLAR-EVE3.0/plugins/com.etas.evetools.toolsfolder_1.4.5/Tools/MinGW/bin/../lib/gcc/i686-w64-mingw32/4.9.2\libstdc++.a(del_opv.o)
 .rdata$zzz     0x004304c0       0x40 C:/Program Files/ETAS/ISOLAR-EVE3.0/plugins/com.etas.evetools.toolsfolder_1.4.5/Tools/MinGW/bin/../lib/gcc/i686-w64-mingw32/4.9.2\libstdc++.a(eh_catch.o)
 .rdata$zzz     0x00430500       0x40 C:/Program Files/ETAS/ISOLAR-EVE3.0/plugins/com.etas.evetools.toolsfolder_1.4.5/Tools/MinGW/bin/../lib/gcc/i686-w64-mingw32/4.9.2\libstdc++.a(eh_globals.o)
 .rdata$zzz     0x00430540       0x40 C:/Program Files/ETAS/ISOLAR-EVE3.0/plugins/com.etas.evetools.toolsfolder_1.4.5/Tools/MinGW/bin/../lib/gcc/i686-w64-mingw32/4.9.2\libstdc++.a(eh_personality.o)
 .rdata$zzz     0x00430580       0x40 C:/Program Files/ETAS/ISOLAR-EVE3.0/plugins/com.etas.evetools.toolsfolder_1.4.5/Tools/MinGW/bin/../lib/gcc/i686-w64-mingw32/4.9.2\libstdc++.a(eh_terminate.o)
 .rdata$zzz     0x004305c0       0x40 C:/Program Files/ETAS/ISOLAR-EVE3.0/plugins/com.etas.evetools.toolsfolder_1.4.5/Tools/MinGW/bin/../lib/gcc/i686-w64-mingw32/4.9.2\libstdc++.a(eh_term_handler.o)
 .rdata$zzz     0x00430600       0x40 C:/Program Files/ETAS/ISOLAR-EVE3.0/plugins/com.etas.evetools.toolsfolder_1.4.5/Tools/MinGW/bin/../lib/gcc/i686-w64-mingw32/4.9.2\libstdc++.a(eh_throw.o)
 .rdata$zzz     0x00430640       0x40 C:/Program Files/ETAS/ISOLAR-EVE3.0/plugins/com.etas.evetools.toolsfolder_1.4.5/Tools/MinGW/bin/../lib/gcc/i686-w64-mingw32/4.9.2\libstdc++.a(eh_unex_handler.o)
 .rdata$zzz     0x00430680       0x40 C:/Program Files/ETAS/ISOLAR-EVE3.0/plugins/com.etas.evetools.toolsfolder_1.4.5/Tools/MinGW/bin/../lib/gcc/i686-w64-mingw32/4.9.2\libstdc++.a(new_op.o)
 .rdata$zzz     0x004306c0       0x40 C:/Program Files/ETAS/ISOLAR-EVE3.0/plugins/com.etas.evetools.toolsfolder_1.4.5/Tools/MinGW/bin/../lib/gcc/i686-w64-mingw32/4.9.2\libstdc++.a(new_opv.o)
 .rdata$zzz     0x00430700       0x40 C:/Program Files/ETAS/ISOLAR-EVE3.0/plugins/com.etas.evetools.toolsfolder_1.4.5/Tools/MinGW/bin/../lib/gcc/i686-w64-mingw32/4.9.2\libstdc++.a(pure.o)
 .rdata$zzz     0x00430740       0x40 C:/Program Files/ETAS/ISOLAR-EVE3.0/plugins/com.etas.evetools.toolsfolder_1.4.5/Tools/MinGW/bin/../lib/gcc/i686-w64-mingw32/4.9.2\libstdc++.a(si_class_type_info.o)
 .rdata$zzz     0x00430780       0x40 C:/Program Files/ETAS/ISOLAR-EVE3.0/plugins/com.etas.evetools.toolsfolder_1.4.5/Tools/MinGW/bin/../lib/gcc/i686-w64-mingw32/4.9.2\libstdc++.a(tinfo.o)
 .rdata$zzz     0x004307c0       0x40 C:/Program Files/ETAS/ISOLAR-EVE3.0/plugins/com.etas.evetools.toolsfolder_1.4.5/Tools/MinGW/bin/../lib/gcc/i686-w64-mingw32/4.9.2\libstdc++.a(vmi_class_type_info.o)
 .rdata$zzz     0x00430800       0x40 C:/Program Files/ETAS/ISOLAR-EVE3.0/plugins/com.etas.evetools.toolsfolder_1.4.5/Tools/MinGW/bin/../lib/gcc/i686-w64-mingw32/4.9.2\libstdc++.a(vterminate.o)
 .rdata$zzz     0x00430840       0x40 C:/Program Files/ETAS/ISOLAR-EVE3.0/plugins/com.etas.evetools.toolsfolder_1.4.5/Tools/MinGW/bin/../lib/gcc/i686-w64-mingw32/4.9.2\libstdc++.a(bad_alloc.o)
 .rdata$zzz     0x00430880       0x40 C:/Program Files/ETAS/ISOLAR-EVE3.0/plugins/com.etas.evetools.toolsfolder_1.4.5/Tools/MinGW/bin/../lib/gcc/i686-w64-mingw32/4.9.2\libstdc++.a(cp-demangle.o)
 .rdata$zzz     0x004308c0       0x40 C:/Program Files/ETAS/ISOLAR-EVE3.0/plugins/com.etas.evetools.toolsfolder_1.4.5/Tools/MinGW/bin/../lib/gcc/i686-w64-mingw32/4.9.2\libstdc++.a(eh_alloc.o)
 .rdata$zzz     0x00430900       0x40 C:/Program Files/ETAS/ISOLAR-EVE3.0/plugins/com.etas.evetools.toolsfolder_1.4.5/Tools/MinGW/bin/../lib/gcc/i686-w64-mingw32/4.9.2\libstdc++.a(eh_call.o)
 .rdata$zzz     0x00430940       0x40 C:/Program Files/ETAS/ISOLAR-EVE3.0/plugins/com.etas.evetools.toolsfolder_1.4.5/Tools/MinGW/bin/../lib/gcc/i686-w64-mingw32/4.9.2\libstdc++.a(eh_exception.o)
 .rdata$zzz     0x00430980       0x40 C:/Program Files/ETAS/ISOLAR-EVE3.0/plugins/com.etas.evetools.toolsfolder_1.4.5/Tools/MinGW/bin/../lib/gcc/i686-w64-mingw32/4.9.2\libstdc++.a(eh_type.o)
 .rdata$zzz     0x004309c0       0x40 C:/Program Files/ETAS/ISOLAR-EVE3.0/plugins/com.etas.evetools.toolsfolder_1.4.5/Tools/MinGW/bin/../lib/gcc/i686-w64-mingw32/4.9.2\libstdc++.a(new_handler.o)
 .rdata$zzz     0x00430a00       0x40 C:/Program Files/ETAS/ISOLAR-EVE3.0/plugins/com.etas.evetools.toolsfolder_1.4.5/Tools/MinGW/bin/../lib/gcc/i686-w64-mingw32/4.9.2/../../../../i686-w64-mingw32/lib/../lib/libmingw32.a(lib32_libmingw32_a-atonexit.o)
 .rdata$zzz     0x00430a40       0x40 C:/Program Files/ETAS/ISOLAR-EVE3.0/plugins/com.etas.evetools.toolsfolder_1.4.5/Tools/MinGW/bin/../lib/gcc/i686-w64-mingw32/4.9.2/../../../../i686-w64-mingw32/lib/../lib/libmingw32.a(lib32_libmingw32_a-gccmain.o)
 .rdata$zzz     0x00430a80       0x40 C:/Program Files/ETAS/ISOLAR-EVE3.0/plugins/com.etas.evetools.toolsfolder_1.4.5/Tools/MinGW/bin/../lib/gcc/i686-w64-mingw32/4.9.2/../../../../i686-w64-mingw32/lib/../lib/libmingw32.a(lib32_libmingw32_a-natstart.o)
 .rdata$zzz     0x00430ac0       0x40 C:/Program Files/ETAS/ISOLAR-EVE3.0/plugins/com.etas.evetools.toolsfolder_1.4.5/Tools/MinGW/bin/../lib/gcc/i686-w64-mingw32/4.9.2/../../../../i686-w64-mingw32/lib/../lib/libmingw32.a(lib32_libmingw32_a-wildcard.o)
 .rdata$zzz     0x00430b00       0x40 C:/Program Files/ETAS/ISOLAR-EVE3.0/plugins/com.etas.evetools.toolsfolder_1.4.5/Tools/MinGW/bin/../lib/gcc/i686-w64-mingw32/4.9.2/../../../../i686-w64-mingw32/lib/../lib/libmingw32.a(lib32_libmingw32_a-charmax.o)
 .rdata$zzz     0x00430b40       0x40 C:/Program Files/ETAS/ISOLAR-EVE3.0/plugins/com.etas.evetools.toolsfolder_1.4.5/Tools/MinGW/bin/../lib/gcc/i686-w64-mingw32/4.9.2/../../../../i686-w64-mingw32/lib/../lib/libmingw32.a(lib32_libmingw32_a-dllargv.o)
 .rdata$zzz     0x00430b80       0x40 C:/Program Files/ETAS/ISOLAR-EVE3.0/plugins/com.etas.evetools.toolsfolder_1.4.5/Tools/MinGW/bin/../lib/gcc/i686-w64-mingw32/4.9.2/../../../../i686-w64-mingw32/lib/../lib/libmingw32.a(lib32_libmingw32_a-gs_support.o)
 .rdata$zzz     0x00430bc0       0x40 C:/Program Files/ETAS/ISOLAR-EVE3.0/plugins/com.etas.evetools.toolsfolder_1.4.5/Tools/MinGW/bin/../lib/gcc/i686-w64-mingw32/4.9.2/../../../../i686-w64-mingw32/lib/../lib/libmingw32.a(lib32_libmingw32_a-_newmode.o)
 .rdata$zzz     0x00430c00       0x40 C:/Program Files/ETAS/ISOLAR-EVE3.0/plugins/com.etas.evetools.toolsfolder_1.4.5/Tools/MinGW/bin/../lib/gcc/i686-w64-mingw32/4.9.2/../../../../i686-w64-mingw32/lib/../lib/libmingw32.a(lib32_libmingw32_a-tlssup.o)
 .rdata$zzz     0x00430c40       0x40 C:/Program Files/ETAS/ISOLAR-EVE3.0/plugins/com.etas.evetools.toolsfolder_1.4.5/Tools/MinGW/bin/../lib/gcc/i686-w64-mingw32/4.9.2/../../../../i686-w64-mingw32/lib/../lib/libmingw32.a(lib32_libmingw32_a-cinitexe.o)
 .rdata$zzz     0x00430c80       0x40 C:/Program Files/ETAS/ISOLAR-EVE3.0/plugins/com.etas.evetools.toolsfolder_1.4.5/Tools/MinGW/bin/../lib/gcc/i686-w64-mingw32/4.9.2/../../../../i686-w64-mingw32/lib/../lib/libmingw32.a(lib32_libmingw32_a-merr.o)
 .rdata$zzz     0x00430cc0       0x40 C:/Program Files/ETAS/ISOLAR-EVE3.0/plugins/com.etas.evetools.toolsfolder_1.4.5/Tools/MinGW/bin/../lib/gcc/i686-w64-mingw32/4.9.2/../../../../i686-w64-mingw32/lib/../lib/libmingw32.a(lib32_libmingw32_a-CRT_fp10.o)
 .rdata$zzz     0x00430d00       0x40 C:/Program Files/ETAS/ISOLAR-EVE3.0/plugins/com.etas.evetools.toolsfolder_1.4.5/Tools/MinGW/bin/../lib/gcc/i686-w64-mingw32/4.9.2/../../../../i686-w64-mingw32/lib/../lib/libmingw32.a(lib32_libmingw32_a-mingw_helpers.o)
 .rdata$zzz     0x00430d40       0x40 C:/Program Files/ETAS/ISOLAR-EVE3.0/plugins/com.etas.evetools.toolsfolder_1.4.5/Tools/MinGW/bin/../lib/gcc/i686-w64-mingw32/4.9.2/../../../../i686-w64-mingw32/lib/../lib/libmingw32.a(lib32_libmingw32_a-pseudo-reloc.o)
 .rdata$zzz     0x00430d80       0x40 C:/Program Files/ETAS/ISOLAR-EVE3.0/plugins/com.etas.evetools.toolsfolder_1.4.5/Tools/MinGW/bin/../lib/gcc/i686-w64-mingw32/4.9.2/../../../../i686-w64-mingw32/lib/../lib/libmingw32.a(lib32_libmingw32_a-xtxtmode.o)
 .rdata$zzz     0x00430dc0       0x40 C:/Program Files/ETAS/ISOLAR-EVE3.0/plugins/com.etas.evetools.toolsfolder_1.4.5/Tools/MinGW/bin/../lib/gcc/i686-w64-mingw32/4.9.2/../../../../i686-w64-mingw32/lib/../lib/libmingw32.a(lib32_libmingw32_a-crt_handler.o)
 .rdata$zzz     0x00430e00       0x40 C:/Program Files/ETAS/ISOLAR-EVE3.0/plugins/com.etas.evetools.toolsfolder_1.4.5/Tools/MinGW/bin/../lib/gcc/i686-w64-mingw32/4.9.2/../../../../i686-w64-mingw32/lib/../lib/libmingw32.a(lib32_libmingw32_a-tlsthrd.o)
 .rdata$zzz     0x00430e40       0x40 C:/Program Files/ETAS/ISOLAR-EVE3.0/plugins/com.etas.evetools.toolsfolder_1.4.5/Tools/MinGW/bin/../lib/gcc/i686-w64-mingw32/4.9.2/../../../../i686-w64-mingw32/lib/../lib/libmingw32.a(lib32_libmingw32_a-tlsmcrt.o)
 .rdata$zzz     0x00430e80       0x40 C:/Program Files/ETAS/ISOLAR-EVE3.0/plugins/com.etas.evetools.toolsfolder_1.4.5/Tools/MinGW/bin/../lib/gcc/i686-w64-mingw32/4.9.2/../../../../i686-w64-mingw32/lib/../lib/libmingw32.a(lib32_libmingw32_a-pseudo-reloc-list.o)
 .rdata$zzz     0x00430ec0       0x40 C:/Program Files/ETAS/ISOLAR-EVE3.0/plugins/com.etas.evetools.toolsfolder_1.4.5/Tools/MinGW/bin/../lib/gcc/i686-w64-mingw32/4.9.2/../../../../i686-w64-mingw32/lib/../lib/libmingw32.a(lib32_libmingw32_a-pesect.o)
 .rdata$zzz     0x00430f00       0x40 C:/Program Files/ETAS/ISOLAR-EVE3.0/plugins/com.etas.evetools.toolsfolder_1.4.5/Tools/MinGW/bin/../lib/gcc/i686-w64-mingw32/4.9.2/libgcc.a(_ctors.o)
 .rdata$zzz     0x00430f40       0x40 C:/Program Files/ETAS/ISOLAR-EVE3.0/plugins/com.etas.evetools.toolsfolder_1.4.5/Tools/MinGW/bin/../lib/gcc/i686-w64-mingw32/4.9.2/libgcc.a(_divdi3.o)
 .rdata$zzz     0x00430f80       0x40 C:/Program Files/ETAS/ISOLAR-EVE3.0/plugins/com.etas.evetools.toolsfolder_1.4.5/Tools/MinGW/bin/../lib/gcc/i686-w64-mingw32/4.9.2/libgcc.a(gthr-win32.o)
 .rdata$zzz     0x00430fc0       0x40 C:/Program Files/ETAS/ISOLAR-EVE3.0/plugins/com.etas.evetools.toolsfolder_1.4.5/Tools/MinGW/bin/../lib/gcc/i686-w64-mingw32/4.9.2/libgcc_eh.a(unwind-dw2.o)
 .rdata$zzz     0x00431000       0x40 C:/Program Files/ETAS/ISOLAR-EVE3.0/plugins/com.etas.evetools.toolsfolder_1.4.5/Tools/MinGW/bin/../lib/gcc/i686-w64-mingw32/4.9.2/libgcc_eh.a(unwind-dw2-fde.o)
 .rdata$zzz     0x00431040       0x40 C:/Program Files/ETAS/ISOLAR-EVE3.0/plugins/com.etas.evetools.toolsfolder_1.4.5/Tools/MinGW/bin/../lib/gcc/i686-w64-mingw32/4.9.2/libgcc_eh.a(emutls.o)
 .rdata$zzz     0x00431080       0x40 C:/Program Files/ETAS/ISOLAR-EVE3.0/plugins/com.etas.evetools.toolsfolder_1.4.5/Tools/MinGW/bin/../lib/gcc/i686-w64-mingw32/4.9.2/../../../../i686-w64-mingw32/lib/../lib/libmingwex.a(lib32_libmingwex_a-mingw_matherr.o)
 .rdata$zzz     0x004310c0       0x40 C:/Program Files/ETAS/ISOLAR-EVE3.0/plugins/com.etas.evetools.toolsfolder_1.4.5/Tools/MinGW/bin/../lib/gcc/i686-w64-mingw32/4.9.2/../../../../i686-w64-mingw32/lib/../lib/libmsvcrt.a(lib32_libmsvcrt_a-invalid_parameter_handler.o)
 .rdata$zzz     0x00431100       0x40 C:/Program Files/ETAS/ISOLAR-EVE3.0/plugins/com.etas.evetools.toolsfolder_1.4.5/Tools/MinGW/bin/../lib/gcc/i686-w64-mingw32/4.9.2/../../../../i686-w64-mingw32/lib/../lib/libmingw32.a(lib32_libmingw32_a-tlsmthread.o)
 .rdata$zzz     0x00431140       0x40 C:/Program Files/ETAS/ISOLAR-EVE3.0/plugins/com.etas.evetools.toolsfolder_1.4.5/Tools/MinGW/bin/../lib/gcc/i686-w64-mingw32/4.9.2/crtend.o
                0x00431180                __rt_psrelocs_start = .
 *(.rdata_runtime_pseudo_reloc)
                0x00431180                __rt_psrelocs_end = .
                0x00000000                __rt_psrelocs_size = (__rt_psrelocs_end - __rt_psrelocs_start)
                0x00431180                ___RUNTIME_PSEUDO_RELOC_LIST_END__ = .
                0x00431180                __RUNTIME_PSEUDO_RELOC_LIST_END__ = .
                0x00431180                ___RUNTIME_PSEUDO_RELOC_LIST__ = (. - __rt_psrelocs_size)
                0x00431180                __RUNTIME_PSEUDO_RELOC_LIST__ = (. - __rt_psrelocs_size)

.eh_frame       0x00432000     0x9e00
 *(.eh_frame*)
 .eh_frame      0x00432000       0xc8 C:/Program Files/ETAS/ISOLAR-EVE3.0/plugins/com.etas.evetools.toolsfolder_1.4.5/Tools/MinGW/bin/../lib/gcc/i686-w64-mingw32/4.9.2/../../../../i686-w64-mingw32/lib/../lib/crt2.o
 .eh_frame      0x004320c8       0x60 C:/Program Files/ETAS/ISOLAR-EVE3.0/plugins/com.etas.evetools.toolsfolder_1.4.5/Tools/MinGW/bin/../lib/gcc/i686-w64-mingw32/4.9.2/crtbegin.o
 .eh_frame$_ZN14vrtaComparable5ValueEv
                0x00432128       0x38 EVE_SystemClock.o
 .eh_frame$_ZN13vrtaUpCounterC1EPcR13vrtaBaseClock
                0x00432160       0x38 EVE_SystemClock.o
 .eh_frame      0x00432198       0xd8 EVE_SystemClock.o
 .eh_frame$_ZN9vrtaClockD1Ev
                0x00432270       0x38 EVE_SystemClock.o
 .eh_frame$_ZThn36_N9vrtaClockD1Ev
                0x004322a8       0x2c EVE_SystemClock.o
 .eh_frame      0x004322d4       0x58 main.o
 .eh_frame      0x0043232c       0x38 Os_ErrorHook.o
 .eh_frame      0x00432364       0xb8 Os_Hooks.o
 .eh_frame      0x0043241c      0x618 Rte.o
 .eh_frame      0x00432a34       0x58 Rte_ACT_HIGHBEAM.o
 .eh_frame      0x00432a8c       0x58 Rte_ACT_LEFTRIGHT_MOTOR.o
 .eh_frame      0x00432ae4       0x58 Rte_ACT_LOWBEAM.o
 .eh_frame      0x00432b3c       0x58 Rte_ACT_UPDOWN_MOTOR.o
 .eh_frame      0x00432b94       0x38 Rte_APP_HIGHBEAM.o
 .eh_frame      0x00432bcc       0x98 Rte_APP_LOWBEAM.o
 .eh_frame      0x00432c64       0x38 Rte_APP_MOTOR.o
 .eh_frame      0x00432c9c       0xd8 Rte_ECU_ABS_AFS.o
 .eh_frame      0x00432d74      0x198 Rte_Lib.o
 .eh_frame      0x00432f0c       0x38 Rte_SENSOR_DISTANCE.o
 .eh_frame      0x00432f44       0x38 Rte_SENSOR_LIGHT.o
 .eh_frame      0x00432f7c       0x38 Rte_SENSOR_LIGHTMODE.o
 .eh_frame      0x00432fb4       0x38 Rte_SENSOR_SPEED.o
 .eh_frame      0x00432fec       0x38 Rte_SENSOR_STEERINGANGLE.o
 .eh_frame      0x00433024       0x38 TAKS_ECU_SPEED.o
 .eh_frame      0x0043305c       0x98 target.o
 .eh_frame      0x004330f4       0x38 TASK_ACT_HIGHBEAM_RECEIVE.o
 .eh_frame      0x0043312c       0x38 TASK_ACT_HIGHBEAM_SEND.o
 .eh_frame      0x00433164       0x38 TASK_ACT_LEFTRIGHTANGLE_RECEIVE.o
 .eh_frame      0x0043319c       0x38 TASK_ACT_LEFTRIGHTANGLE_SEND.o
 .eh_frame      0x004331d4       0x38 TASK_ACT_LOWBEAM_RECEIVE.o
 .eh_frame      0x0043320c       0x38 TASK_ACT_LOWBEAM_SEND.o
 .eh_frame      0x00433244       0x38 TASK_ACT_UPDOWNANGLE_RECEIVE.o
 .eh_frame      0x0043327c       0x38 TASK_ACT_UPDOWNANGLE_SEND.o
 .eh_frame      0x004332b4       0x38 TASK_APP_HIGHBEAM.o
 .eh_frame      0x004332ec       0x38 TASK_APP_LOWBEAM.o
 .eh_frame      0x00433324       0x38 TASK_APP_MOTOR.o
 .eh_frame      0x0043335c       0x34 TASK_ECU_ACTUATOR.o
 .eh_frame      0x00433390       0x38 TASK_ECU_DISTANCE.o
 .eh_frame      0x004333c8       0x38 TASK_ECU_LIGHT.o
 .eh_frame      0x00433400       0x38 TASK_ECU_LIGHTMODE.o
 .eh_frame      0x00433438       0x38 TASK_EUC_STEERINGANGLE.o
 .eh_frame      0x00433470       0x38 TASK_SENSOR_DISTANCE.o
 .eh_frame      0x004334a8       0x38 TASK_SENSOR_LIGHT.o
 .eh_frame      0x004334e0       0x38 TASK_SENSOR_LIGHTMODE.o
 .eh_frame      0x00433518       0x38 TASK_SENSOR_SPEED.o
 .eh_frame      0x00433550       0x38 TASK_SENSOR_STEERINGANGLE.o
 .eh_frame      0x00433588       0x38 VECU_SystemClock_ISR.o
 .eh_frame$_ZN14vrtaComparable8SetValueEj
                0x004335c0       0x3c VirtualDevices.o
 .eh_frame      0x004335fc      0x1d8 VirtualDevices.o
 .eh_frame      0x004337d4      0x118 Vrta_Cfg.o
 .eh_frame      0x004338ec       0x50 RTAOS.lib(ActivateTask.o)
 .eh_frame      0x0043393c       0x3c RTAOS.lib(CancelAlarm.o)
 .eh_frame      0x00433978       0x38 RTAOS.lib(ClearEvent.o)
 .eh_frame      0x004339b0       0x4c RTAOS.lib(DispatchTask.o)
 .eh_frame      0x004339fc       0x30 RTAOS.lib(GetEvent.o)
 .eh_frame      0x00433a2c       0x2c RTAOS.lib(GetISRID.o)
 .eh_frame      0x00433a58       0x3c RTAOS.lib(GetResource.o)
 .eh_frame      0x00433a94       0x2c RTAOS.lib(GetTaskID.o)
 .eh_frame      0x00433ac0       0x5c RTAOS.lib(Os_Cfg.o)
 .eh_frame      0x00433b1c      0x134 RTAOS.lib(Os_Cfg_Counters.o)
 .eh_frame      0x00433c50       0x2c RTAOS.lib(Os_fsb.o)
 .eh_frame      0x00433c7c       0x40 RTAOS.lib(Os_Stack.o)
 .eh_frame      0x00433cbc       0x34 RTAOS.lib(ReleaseResource.o)
 .eh_frame      0x00433cf0       0x30 RTAOS.lib(ResumeOSInterrupts.o)
 .eh_frame      0x00433d20       0x78 RTAOS.lib(SetEvent.o)
 .eh_frame      0x00433d98       0x58 RTAOS.lib(SetRelAlarm.o)
 .eh_frame      0x00433df0       0x48 RTAOS.lib(StartOS.o)
 .eh_frame      0x00433e38       0x44 RTAOS.lib(StartScheduleTableRel.o)
 .eh_frame      0x00433e7c       0x3c RTAOS.lib(StopScheduleTable.o)
 .eh_frame      0x00433eb8       0x3c RTAOS.lib(SuspendOSInterrupts.o)
 .eh_frame      0x00433ef4       0x30 RTAOS.lib(TerminateTask.o)
 .eh_frame      0x00433f24       0x78 RTAOS.lib(vrtaAppMain.o)
 .eh_frame$_ZN10vrtaDevice21GetPersistentDataSizeEv
                0x00433f9c       0x2c RTAOS.lib(vrtaCore.o)
 .eh_frame$_ZN10vrtaDevice17GetPersistentDataEv
                0x00433fc8       0x2c RTAOS.lib(vrtaCore.o)
 .eh_frame$_ZN10vrtaDevice17SetPersistentDataEPht
                0x00433ff4       0x2c RTAOS.lib(vrtaCore.o)
 .eh_frame      0x00434020      0x82c RTAOS.lib(vrtaCore.o)
 .eh_frame      0x0043484c       0x80 RTAOS.lib(vrtaIdleHandling.o)
 .eh_frame      0x004348cc      0x42c RTAOS.lib(vrtaLoggerDevice.o)
 .eh_frame$_ZN13VirtualDevice8StartingEv
                0x00434cf8       0x2c RTAOS.lib(vrtaOSMonitorDevice.o)
 .eh_frame$_ZN13VirtualDevice8StoppingEv
                0x00434d24       0x2c RTAOS.lib(vrtaOSMonitorDevice.o)
 .eh_frame$_ZN6OsCore7IdleSetERK10vrtaAction
                0x00434d50       0x2c RTAOS.lib(vrtaOSMonitorDevice.o)
 .eh_frame$_ZN6OsCore6ParentER9vrtaEvent
                0x00434d7c       0x2c RTAOS.lib(vrtaOSMonitorDevice.o)
 .eh_frame$_ZN6OsCore5IdlesER9vrtaEvent
                0x00434da8       0x2c RTAOS.lib(vrtaOSMonitorDevice.o)
 .eh_frame$_ZN6OsCore5AppIDER9vrtaEvent
                0x00434dd4       0x2c RTAOS.lib(vrtaOSMonitorDevice.o)
 .eh_frame$_ZN6OsCore9LastErrorER9vrtaEvent
                0x00434e00       0x2c RTAOS.lib(vrtaOSMonitorDevice.o)
 .eh_frame$_ZN6OsCore11RunningTaskER9vrtaEvent
                0x00434e2c       0x34 RTAOS.lib(vrtaOSMonitorDevice.o)
 .eh_frame$_ZN6OsCore10RunningISRER9vrtaEvent
                0x00434e60       0x2c RTAOS.lib(vrtaOSMonitorDevice.o)
 .eh_frame$_ZN9OsMonitor16GetDeviceActionsERN13VirtualDevice10ActionListE
                0x00434e8c       0x2c RTAOS.lib(vrtaOSMonitorDevice.o)
 .eh_frame$_ZN9OsMonitor12AppModeEventER9vrtaEvent
                0x00434eb8       0x2c RTAOS.lib(vrtaOSMonitorDevice.o)
 .eh_frame$_ZN9OsMonitor23ISRVECU_SystemClock_ISRER9vrtaEvent
                0x00434ee4       0x2c RTAOS.lib(vrtaOSMonitorDevice.o)
 .eh_frame$_ZN9OsMonitor18TASKTAKS_ECU_SPEEDER9vrtaEvent
                0x00434f10       0x2c RTAOS.lib(vrtaOSMonitorDevice.o)
 .eh_frame$_ZN9OsMonitor21TASKTASK_ECU_ACTUATORER9vrtaEvent
                0x00434f3c       0x2c RTAOS.lib(vrtaOSMonitorDevice.o)
 .eh_frame$_ZN9OsMonitor21TASKTASK_ECU_DISTANCEER9vrtaEvent
                0x00434f68       0x2c RTAOS.lib(vrtaOSMonitorDevice.o)
 .eh_frame$_ZN9OsMonitor18TASKTASK_ECU_LIGHTER9vrtaEvent
                0x00434f94       0x2c RTAOS.lib(vrtaOSMonitorDevice.o)
 .eh_frame$_ZN9OsMonitor22TASKTASK_ECU_LIGHTMODEER9vrtaEvent
                0x00434fc0       0x2c RTAOS.lib(vrtaOSMonitorDevice.o)
 .eh_frame$_ZN9OsMonitor26TASKTASK_EUC_STEERINGANGLEER9vrtaEvent
                0x00434fec       0x2c RTAOS.lib(vrtaOSMonitorDevice.o)
 .eh_frame$_ZN9OsMonitor29TASKTASK_ACT_HIGHBEAM_RECEIVEER9vrtaEvent
                0x00435018       0x2c RTAOS.lib(vrtaOSMonitorDevice.o)
 .eh_frame$_ZN9OsMonitor26TASKTASK_ACT_HIGHBEAM_SENDER9vrtaEvent
                0x00435044       0x2c RTAOS.lib(vrtaOSMonitorDevice.o)
 .eh_frame$_ZN9OsMonitor35TASKTASK_ACT_LEFTRIGHTANGLE_RECEIVEER9vrtaEvent
                0x00435070       0x2c RTAOS.lib(vrtaOSMonitorDevice.o)
 .eh_frame$_ZN9OsMonitor32TASKTASK_ACT_LEFTRIGHTANGLE_SENDER9vrtaEvent
                0x0043509c       0x2c RTAOS.lib(vrtaOSMonitorDevice.o)
 .eh_frame$_ZN9OsMonitor28TASKTASK_ACT_LOWBEAM_RECEIVEER9vrtaEvent
                0x004350c8       0x2c RTAOS.lib(vrtaOSMonitorDevice.o)
 .eh_frame$_ZN9OsMonitor25TASKTASK_ACT_LOWBEAM_SENDER9vrtaEvent
                0x004350f4       0x2c RTAOS.lib(vrtaOSMonitorDevice.o)
 .eh_frame$_ZN9OsMonitor32TASKTASK_ACT_UPDOWNANGLE_RECEIVEER9vrtaEvent
                0x00435120       0x2c RTAOS.lib(vrtaOSMonitorDevice.o)
 .eh_frame$_ZN9OsMonitor29TASKTASK_ACT_UPDOWNANGLE_SENDER9vrtaEvent
                0x0043514c       0x2c RTAOS.lib(vrtaOSMonitorDevice.o)
 .eh_frame$_ZN9OsMonitor24TASKTASK_SENSOR_DISTANCEER9vrtaEvent
                0x00435178       0x2c RTAOS.lib(vrtaOSMonitorDevice.o)
 .eh_frame$_ZN9OsMonitor21TASKTASK_SENSOR_LIGHTER9vrtaEvent
                0x004351a4       0x2c RTAOS.lib(vrtaOSMonitorDevice.o)
 .eh_frame$_ZN9OsMonitor25TASKTASK_SENSOR_LIGHTMODEER9vrtaEvent
                0x004351d0       0x2c RTAOS.lib(vrtaOSMonitorDevice.o)
 .eh_frame$_ZN9OsMonitor21TASKTASK_SENSOR_SPEEDER9vrtaEvent
                0x004351fc       0x2c RTAOS.lib(vrtaOSMonitorDevice.o)
 .eh_frame$_ZN9OsMonitor29TASKTASK_SENSOR_STEERINGANGLEER9vrtaEvent
                0x00435228       0x2c RTAOS.lib(vrtaOSMonitorDevice.o)
 .eh_frame$_ZN9OsMonitor21TASKTASK_APP_HIGHBEAMER9vrtaEvent
                0x00435254       0x2c RTAOS.lib(vrtaOSMonitorDevice.o)
 .eh_frame$_ZN9OsMonitor20TASKTASK_APP_LOWBEAMER9vrtaEvent
                0x00435280       0x2c RTAOS.lib(vrtaOSMonitorDevice.o)
 .eh_frame$_ZN9OsMonitor18TASKTASK_APP_MOTORER9vrtaEvent
                0x004352ac       0x2c RTAOS.lib(vrtaOSMonitorDevice.o)
 .eh_frame      0x004352d8       0x74 RTAOS.lib(vrtaOSMonitorDevice.o)
 .eh_frame$_ZN9OsMonitorD1Ev
                0x0043534c       0x2c RTAOS.lib(vrtaOSMonitorDevice.o)
 .eh_frame$_ZN6OsCoreD1Ev
                0x00435378       0x2c RTAOS.lib(vrtaOSMonitorDevice.o)
 .eh_frame$_ZN9OsMonitorD0Ev
                0x004353a4       0x38 RTAOS.lib(vrtaOSMonitorDevice.o)
 .eh_frame$_ZN6OsCoreD0Ev
                0x004353dc       0x38 RTAOS.lib(vrtaOSMonitorDevice.o)
 .eh_frame$_ZN9OsMonitor15GetDeviceEventsERN13VirtualDevice9EventListE
                0x00435414      0x3a8 RTAOS.lib(vrtaOSMonitorDevice.o)
 .eh_frame$_ZN6OsCore15GetDeviceEventsERN13VirtualDevice9EventListE
                0x004357bc       0xb0 RTAOS.lib(vrtaOSMonitorDevice.o)
 .eh_frame$_ZN9OsMonitor13GetDeviceInfoERN13VirtualDevice7OptListE
                0x0043586c       0x8c RTAOS.lib(vrtaOSMonitorDevice.o)
 .eh_frame$_ZN6OsCore13GetDeviceInfoERN13VirtualDevice7OptListE
                0x004358f8       0x5c RTAOS.lib(vrtaOSMonitorDevice.o)
 .eh_frame$_ZN6OsCore16GetDeviceActionsERN13VirtualDevice10ActionListE
                0x00435954       0x44 RTAOS.lib(vrtaOSMonitorDevice.o)
 .eh_frame$_ZN9OsMonitor22CounterRte_TickCounterER9vrtaEvent
                0x00435998       0x40 RTAOS.lib(vrtaOSMonitorDevice.o)
 .eh_frame$_ZN9OsMonitor22AlarmRte_TimeoutAlarm5ER9vrtaEvent
                0x004359d8       0x38 RTAOS.lib(vrtaOSMonitorDevice.o)
 .eh_frame$_ZN9OsMonitor22TableRte_ScheduleTableER9vrtaEvent
                0x00435a10       0x40 RTAOS.lib(vrtaOSMonitorDevice.o)
 .eh_frame$_ZN9OsMonitor22AlarmRte_TimeoutAlarm1ER9vrtaEvent
                0x00435a50       0x38 RTAOS.lib(vrtaOSMonitorDevice.o)
 .eh_frame$_ZN9OsMonitor22AlarmRte_TimeoutAlarm6ER9vrtaEvent
                0x00435a88       0x38 RTAOS.lib(vrtaOSMonitorDevice.o)
 .eh_frame$_ZN9OsMonitor22AlarmRte_TimeoutAlarm2ER9vrtaEvent
                0x00435ac0       0x38 RTAOS.lib(vrtaOSMonitorDevice.o)
 .eh_frame$_ZN9OsMonitor22AlarmRte_TimeoutAlarm3ER9vrtaEvent
                0x00435af8       0x38 RTAOS.lib(vrtaOSMonitorDevice.o)
 .eh_frame$_ZN9OsMonitor22AlarmRte_TimeoutAlarm4ER9vrtaEvent
                0x00435b30       0x38 RTAOS.lib(vrtaOSMonitorDevice.o)
 .eh_frame$_ZN9OsMonitor22CounterRte_TOutCounterER9vrtaEvent
                0x00435b68       0x54 RTAOS.lib(vrtaOSMonitorDevice.o)
 .eh_frame$_ZN9OsMonitorC1EPKc
                0x00435bbc       0x54 RTAOS.lib(vrtaOSMonitorDevice.o)
 .eh_frame$_ZN13vrtaBaseClock8StoppingEv
                0x00435c10       0x2c RTAOS.lib(vrtaSampleDevices.o)
 .eh_frame$_ZN13vrtaBaseClock21GetPersistentDataSizeEv
                0x00435c3c       0x2c RTAOS.lib(vrtaSampleDevices.o)
 .eh_frame$_ZN13vrtaBaseClock17GetPersistentDataEv
                0x00435c68       0x2c RTAOS.lib(vrtaSampleDevices.o)
 .eh_frame$_ZN13vrtaBaseClock4StopEv
                0x00435c94       0x2c RTAOS.lib(vrtaSampleDevices.o)
 .eh_frame$_ZN14vrtaComparable21GetPersistentDataSizeEv
                0x00435cc0       0x2c RTAOS.lib(vrtaSampleDevices.o)
 .eh_frame$_ZN14vrtaComparable17GetPersistentDataEv
                0x00435cec       0x2c RTAOS.lib(vrtaSampleDevices.o)
 .eh_frame$_ZN14vrtaComparable6SetValEj
                0x00435d18       0x2c RTAOS.lib(vrtaSampleDevices.o)
 .eh_frame$_ZN11vrtaCounter21GetPersistentDataSizeEv
                0x00435d44       0x2c RTAOS.lib(vrtaSampleDevices.o)
 .eh_frame$_ZN11vrtaCompare8StartingEv
                0x00435d70       0x2c RTAOS.lib(vrtaSampleDevices.o)
 .eh_frame$_ZN11vrtaCompare8StoppingEv
                0x00435d9c       0x2c RTAOS.lib(vrtaSampleDevices.o)
 .eh_frame$_ZN11vrtaCompare21GetPersistentDataSizeEv
                0x00435dc8       0x2c RTAOS.lib(vrtaSampleDevices.o)
 .eh_frame$_ZN11vrtaCompare17GetPersistentDataEv
                0x00435df4       0x2c RTAOS.lib(vrtaSampleDevices.o)
 .eh_frame$_ZN10vrtaSensor8StartingEv
                0x00435e20       0x2c RTAOS.lib(vrtaSampleDevices.o)
 .eh_frame$_ZN10vrtaSensor8StoppingEv
                0x00435e4c       0x2c RTAOS.lib(vrtaSampleDevices.o)
 .eh_frame$_ZN10vrtaSensor21GetPersistentDataSizeEv
                0x00435e78       0x2c RTAOS.lib(vrtaSampleDevices.o)
 .eh_frame$_ZN12vrtaActuator8StartingEv
                0x00435ea4       0x2c RTAOS.lib(vrtaSampleDevices.o)
 .eh_frame$_ZN12vrtaActuator8StoppingEv
                0x00435ed0       0x2c RTAOS.lib(vrtaSampleDevices.o)
 .eh_frame$_ZN12vrtaActuator21GetPersistentDataSizeEv
                0x00435efc       0x2c RTAOS.lib(vrtaSampleDevices.o)
 .eh_frame      0x00435f28      0xcf8 RTAOS.lib(vrtaSampleDevices.o)
 .eh_frame$_ZN12vrtaActuator17GetPersistentDataEv
                0x00436c20       0x3c RTAOS.lib(vrtaSampleDevices.o)
 .eh_frame$_ZN11vrtaCounter17GetPersistentDataEv
                0x00436c5c       0x3c RTAOS.lib(vrtaSampleDevices.o)
 .eh_frame$_ZN10vrtaSensor17GetPersistentDataEv
                0x00436c98       0x3c RTAOS.lib(vrtaSampleDevices.o)
 .eh_frame$_ZN9vrtaClockD0Ev
                0x00436cd4       0x38 RTAOS.lib(vrtaSampleDevices.o)
 .eh_frame$_ZThn36_N9vrtaClockD0Ev
                0x00436d0c       0x2c RTAOS.lib(vrtaSampleDevices.o)
 .eh_frame$_ZN17vrtaAdaptiveClockD1Ev
                0x00436d38       0x2c RTAOS.lib(vrtaSampleDevices.o)
 .eh_frame$_ZThn36_N17vrtaAdaptiveClockD1Ev
                0x00436d64       0x2c RTAOS.lib(vrtaSampleDevices.o)
 .eh_frame$_ZN17vrtaAdaptiveClockD0Ev
                0x00436d90       0x38 RTAOS.lib(vrtaSampleDevices.o)
 .eh_frame$_ZThn36_N17vrtaAdaptiveClockD0Ev
                0x00436dc8       0x2c RTAOS.lib(vrtaSampleDevices.o)
 .eh_frame$_ZN34vrtaCustomTickSourceImplementation4TickEv
                0x00436df4       0x38 RTAOS.lib(vrtaSystemClock.o)
 .eh_frame      0x00436e2c      0x5c8 RTAOS.lib(vrtaSystemClock.o)
 .eh_frame$_ZN26vrtaSystemClockIdleHandler4IdleEj
                0x004373f4       0x48 RTAOS.lib(vrtaSystemClock.o)
 .eh_frame$_ZN34vrtaCustomTickSourceImplementationD1Ev
                0x0043743c       0x38 RTAOS.lib(vrtaSystemClock.o)
 .eh_frame$_ZN34vrtaCustomTickSourceImplementationD0Ev
                0x00437474       0x40 RTAOS.lib(vrtaSystemClock.o)
 .eh_frame$_ZN17SystemClockDevice10TicksEventER9vrtaEvent
                0x004374b4       0x2c RTAOS.lib(vrtaSystemClockDevice.o)
 .eh_frame$_ZN17SystemClockDevice19TicksRemainingEventER9vrtaEvent
                0x004374e0       0x38 RTAOS.lib(vrtaSystemClockDevice.o)
 .eh_frame$_ZN17SystemClockDevice11TickEndDataER9vrtaEvent
                0x00437518       0x58 RTAOS.lib(vrtaSystemClockDevice.o)
 .eh_frame$_ZN17SystemClockDevice12DirectActionERK10vrtaAction
                0x00437570       0x44 RTAOS.lib(vrtaSystemClockDevice.o)
 .eh_frame      0x004375b4      0x15c RTAOS.lib(vrtaSystemClockDevice.o)
 .eh_frame$_ZN17SystemClockDevice9ModeEventER9vrtaEvent
                0x00437710       0x3c RTAOS.lib(vrtaSystemClockDevice.o)
 .eh_frame$_ZN17SystemClockDeviceD1Ev
                0x0043774c       0x2c RTAOS.lib(vrtaSystemClockDevice.o)
 .eh_frame$_ZN17SystemClockDeviceD0Ev
                0x00437778       0x38 RTAOS.lib(vrtaSystemClockDevice.o)
 .eh_frame$_ZN17SystemClockDevice15GetDeviceEventsERN13VirtualDevice9EventListE
                0x004377b0       0xfc RTAOS.lib(vrtaSystemClockDevice.o)
 .eh_frame$_ZN17SystemClockDevice10CSLIFEventER9vrtaEvent
                0x004378ac       0x44 RTAOS.lib(vrtaSystemClockDevice.o)
 .eh_frame$_ZN17SystemClockDevice13StrategyEventER9vrtaEvent
                0x004378f0       0x38 RTAOS.lib(vrtaSystemClockDevice.o)
 .eh_frame$_ZN17SystemClockDevice20DirectTickYieldEventER9vrtaEvent
                0x00437928       0x38 RTAOS.lib(vrtaSystemClockDevice.o)
 .eh_frame$_ZN17SystemClockDevice7MSEventER9vrtaEvent
                0x00437960       0x38 RTAOS.lib(vrtaSystemClockDevice.o)
 .eh_frame$_ZN17SystemClockDevice10ScaleEventER9vrtaEvent
                0x00437998       0x38 RTAOS.lib(vrtaSystemClockDevice.o)
 .eh_frame$_ZN17SystemClockDevice16GetDeviceActionsERN13VirtualDevice10ActionListE
                0x004379d0      0x104 RTAOS.lib(vrtaSystemClockDevice.o)
 .eh_frame$_ZN17SystemClockDevice5CSLIFERK10vrtaAction
                0x00437ad4       0x90 RTAOS.lib(vrtaSystemClockDevice.o)
 .eh_frame$_ZN17SystemClockDevice13MonitorEventsERK10vrtaAction
                0x00437b64       0x44 RTAOS.lib(vrtaSystemClockDevice.o)
 .eh_frame$_ZN17SystemClockDevice14IdleTickActionERK10vrtaAction
                0x00437ba8       0x40 RTAOS.lib(vrtaSystemClockDevice.o)
 .eh_frame$_ZN17SystemClockDevice15DirectTickYieldERK10vrtaAction
                0x00437be8       0x38 RTAOS.lib(vrtaSystemClockDevice.o)
 .eh_frame$_ZN17SystemClockDevice12DirectFreezeERK10vrtaAction
                0x00437c20       0x38 RTAOS.lib(vrtaSystemClockDevice.o)
 .eh_frame$_ZN17SystemClockDevice10AutoActionERK10vrtaAction
                0x00437c58       0x40 RTAOS.lib(vrtaSystemClockDevice.o)
 .eh_frame$_ZN17SystemClockDevice14StrategyActionERK10vrtaAction
                0x00437c98       0x44 RTAOS.lib(vrtaSystemClockDevice.o)
 .eh_frame$_ZN17SystemClockDevice12ResumeActionERK10vrtaAction
                0x00437cdc       0x40 RTAOS.lib(vrtaSystemClockDevice.o)
 .eh_frame$_ZN17SystemClockDevice11PauseActionERK10vrtaAction
                0x00437d1c       0x40 RTAOS.lib(vrtaSystemClockDevice.o)
 .eh_frame$_ZN17SystemClockDevice11ScaleActionERK10vrtaAction
                0x00437d5c       0x44 RTAOS.lib(vrtaSystemClockDevice.o)
 .eh_frame$_ZN17SystemClockDevice13GetDeviceInfoERN13VirtualDevice7OptListE
                0x00437da0       0x4c RTAOS.lib(vrtaSystemClockDevice.o)
 .eh_frame$_ZN17SystemClockDevice11DirectEventER9vrtaEvent
                0x00437dec       0x58 RTAOS.lib(vrtaSystemClockDevice.o)
 .eh_frame$_ZN17SystemClockDevice13UpdateAndTickERK10vrtaAction
                0x00437e44       0x68 RTAOS.lib(vrtaSystemClockDevice.o)
 .eh_frame      0x00437eac       0x34 RTAOS.lib(WaitEvent.o)
 .eh_frame      0x00437ee0       0x58 RTAOS.lib(DispatchECC.o)
 .eh_frame      0x00437f38       0x30 RTAOS.lib(GetStackValue.o)
 .eh_frame      0x00437f68       0x50 RTAOS.lib(Os_wrapper.o)
 .eh_frame      0x00437fb8       0x2c RTAOS.lib(StackOverrunHook.o)
 .eh_frame      0x00437fe4      0xa30 RTAOS.lib(virtualDevice.o)
 .eh_frame$_ZN13VirtualDevice7OptListD1Ev
                0x00438a14       0x30 RTAOS.lib(virtualDevice.o)
 .eh_frame$_ZN13VirtualDevice9EventListD1Ev
                0x00438a44       0x30 RTAOS.lib(virtualDevice.o)
 .eh_frame$_ZN13VirtualDevice10ActionListD1Ev
                0x00438a74       0x30 RTAOS.lib(virtualDevice.o)
 .eh_frame$_ZN13VirtualDevice7OptListD0Ev
                0x00438aa4       0x38 RTAOS.lib(virtualDevice.o)
 .eh_frame$_ZN13VirtualDevice9EventListD0Ev
                0x00438adc       0x38 RTAOS.lib(virtualDevice.o)
 .eh_frame$_ZN13VirtualDevice10ActionListD0Ev
                0x00438b14       0x38 RTAOS.lib(virtualDevice.o)
 .eh_frame      0x00438b4c       0x34 RTAOS.lib(ShutdownOS.o)
 .eh_frame      0x00438b80       0x2c RTAOS.lib(InShutdown.o)
 .eh_frame      0x00438bac      0x12c C:/Program Files/ETAS/ISOLAR-EVE3.0/plugins/com.etas.evetools.toolsfolder_1.4.5/Tools/MinGW/bin/../lib/gcc/i686-w64-mingw32/4.9.2\libstdc++.a(class_type_info.o)
 .eh_frame      0x00438cd8       0x2c C:/Program Files/ETAS/ISOLAR-EVE3.0/plugins/com.etas.evetools.toolsfolder_1.4.5/Tools/MinGW/bin/../lib/gcc/i686-w64-mingw32/4.9.2\libstdc++.a(del_op.o)
 .eh_frame      0x00438d04       0x2c C:/Program Files/ETAS/ISOLAR-EVE3.0/plugins/com.etas.evetools.toolsfolder_1.4.5/Tools/MinGW/bin/../lib/gcc/i686-w64-mingw32/4.9.2\libstdc++.a(del_opv.o)
 .eh_frame      0x00438d30       0xb4 C:/Program Files/ETAS/ISOLAR-EVE3.0/plugins/com.etas.evetools.toolsfolder_1.4.5/Tools/MinGW/bin/../lib/gcc/i686-w64-mingw32/4.9.2\libstdc++.a(eh_catch.o)
 .eh_frame      0x00438de4       0x48 C:/Program Files/ETAS/ISOLAR-EVE3.0/plugins/com.etas.evetools.toolsfolder_1.4.5/Tools/MinGW/bin/../lib/gcc/i686-w64-mingw32/4.9.2\libstdc++.a(eh_globals.o)
 .eh_frame      0x00438e2c      0x25c C:/Program Files/ETAS/ISOLAR-EVE3.0/plugins/com.etas.evetools.toolsfolder_1.4.5/Tools/MinGW/bin/../lib/gcc/i686-w64-mingw32/4.9.2\libstdc++.a(eh_personality.o)
 .eh_frame      0x00439088       0xe8 C:/Program Files/ETAS/ISOLAR-EVE3.0/plugins/com.etas.evetools.toolsfolder_1.4.5/Tools/MinGW/bin/../lib/gcc/i686-w64-mingw32/4.9.2\libstdc++.a(eh_terminate.o)
 .eh_frame      0x00439170       0x80 C:/Program Files/ETAS/ISOLAR-EVE3.0/plugins/com.etas.evetools.toolsfolder_1.4.5/Tools/MinGW/bin/../lib/gcc/i686-w64-mingw32/4.9.2\libstdc++.a(eh_throw.o)
 .eh_frame      0x004391f0       0x3c C:/Program Files/ETAS/ISOLAR-EVE3.0/plugins/com.etas.evetools.toolsfolder_1.4.5/Tools/MinGW/bin/../lib/gcc/i686-w64-mingw32/4.9.2\libstdc++.a(new_op.o)
 .eh_frame      0x0043922c       0x40 C:/Program Files/ETAS/ISOLAR-EVE3.0/plugins/com.etas.evetools.toolsfolder_1.4.5/Tools/MinGW/bin/../lib/gcc/i686-w64-mingw32/4.9.2\libstdc++.a(new_opv.o)
 .eh_frame      0x0043926c       0x40 C:/Program Files/ETAS/ISOLAR-EVE3.0/plugins/com.etas.evetools.toolsfolder_1.4.5/Tools/MinGW/bin/../lib/gcc/i686-w64-mingw32/4.9.2\libstdc++.a(pure.o)
 .eh_frame      0x004392ac      0x104 C:/Program Files/ETAS/ISOLAR-EVE3.0/plugins/com.etas.evetools.toolsfolder_1.4.5/Tools/MinGW/bin/../lib/gcc/i686-w64-mingw32/4.9.2\libstdc++.a(si_class_type_info.o)
 .eh_frame      0x004393b0       0xc0 C:/Program Files/ETAS/ISOLAR-EVE3.0/plugins/com.etas.evetools.toolsfolder_1.4.5/Tools/MinGW/bin/../lib/gcc/i686-w64-mingw32/4.9.2\libstdc++.a(tinfo.o)
 .eh_frame      0x00439470      0x198 C:/Program Files/ETAS/ISOLAR-EVE3.0/plugins/com.etas.evetools.toolsfolder_1.4.5/Tools/MinGW/bin/../lib/gcc/i686-w64-mingw32/4.9.2\libstdc++.a(vmi_class_type_info.o)
 .eh_frame      0x00439608       0x44 C:/Program Files/ETAS/ISOLAR-EVE3.0/plugins/com.etas.evetools.toolsfolder_1.4.5/Tools/MinGW/bin/../lib/gcc/i686-w64-mingw32/4.9.2\libstdc++.a(vterminate.o)
 .eh_frame      0x0043964c       0x60 C:/Program Files/ETAS/ISOLAR-EVE3.0/plugins/com.etas.evetools.toolsfolder_1.4.5/Tools/MinGW/bin/../lib/gcc/i686-w64-mingw32/4.9.2\libstdc++.a(bad_alloc.o)
 .eh_frame      0x004396ac      0xb8c C:/Program Files/ETAS/ISOLAR-EVE3.0/plugins/com.etas.evetools.toolsfolder_1.4.5/Tools/MinGW/bin/../lib/gcc/i686-w64-mingw32/4.9.2\libstdc++.a(cp-demangle.o)
 .eh_frame$_ZNK9__gnu_cxx24__concurrence_lock_error4whatEv
                0x0043a238       0x2c C:/Program Files/ETAS/ISOLAR-EVE3.0/plugins/com.etas.evetools.toolsfolder_1.4.5/Tools/MinGW/bin/../lib/gcc/i686-w64-mingw32/4.9.2\libstdc++.a(eh_alloc.o)
 .eh_frame$_ZNK9__gnu_cxx26__concurrence_unlock_error4whatEv
                0x0043a264       0x2c C:/Program Files/ETAS/ISOLAR-EVE3.0/plugins/com.etas.evetools.toolsfolder_1.4.5/Tools/MinGW/bin/../lib/gcc/i686-w64-mingw32/4.9.2\libstdc++.a(eh_alloc.o)
 .eh_frame$_ZN9__gnu_cxx24__concurrence_lock_errorD1Ev
                0x0043a290       0x2c C:/Program Files/ETAS/ISOLAR-EVE3.0/plugins/com.etas.evetools.toolsfolder_1.4.5/Tools/MinGW/bin/../lib/gcc/i686-w64-mingw32/4.9.2\libstdc++.a(eh_alloc.o)
 .eh_frame$_ZN9__gnu_cxx26__concurrence_unlock_errorD1Ev
                0x0043a2bc       0x2c C:/Program Files/ETAS/ISOLAR-EVE3.0/plugins/com.etas.evetools.toolsfolder_1.4.5/Tools/MinGW/bin/../lib/gcc/i686-w64-mingw32/4.9.2\libstdc++.a(eh_alloc.o)
 .eh_frame$_ZN9__gnu_cxx24__concurrence_lock_errorD0Ev
                0x0043a2e8       0x38 C:/Program Files/ETAS/ISOLAR-EVE3.0/plugins/com.etas.evetools.toolsfolder_1.4.5/Tools/MinGW/bin/../lib/gcc/i686-w64-mingw32/4.9.2\libstdc++.a(eh_alloc.o)
 .eh_frame$_ZN9__gnu_cxx26__concurrence_unlock_errorD0Ev
                0x0043a320       0x38 C:/Program Files/ETAS/ISOLAR-EVE3.0/plugins/com.etas.evetools.toolsfolder_1.4.5/Tools/MinGW/bin/../lib/gcc/i686-w64-mingw32/4.9.2\libstdc++.a(eh_alloc.o)
 .eh_frame      0x0043a358      0x140 C:/Program Files/ETAS/ISOLAR-EVE3.0/plugins/com.etas.evetools.toolsfolder_1.4.5/Tools/MinGW/bin/../lib/gcc/i686-w64-mingw32/4.9.2\libstdc++.a(eh_alloc.o)
 .eh_frame$_ZN9__gnu_cxx30__throw_concurrence_lock_errorEv
                0x0043a498       0x2c C:/Program Files/ETAS/ISOLAR-EVE3.0/plugins/com.etas.evetools.toolsfolder_1.4.5/Tools/MinGW/bin/../lib/gcc/i686-w64-mingw32/4.9.2\libstdc++.a(eh_alloc.o)
 .eh_frame$_ZN9__gnu_cxx32__throw_concurrence_unlock_errorEv
                0x0043a4c4       0x2c C:/Program Files/ETAS/ISOLAR-EVE3.0/plugins/com.etas.evetools.toolsfolder_1.4.5/Tools/MinGW/bin/../lib/gcc/i686-w64-mingw32/4.9.2\libstdc++.a(eh_alloc.o)
 .eh_frame      0x0043a4f0       0x34 C:/Program Files/ETAS/ISOLAR-EVE3.0/plugins/com.etas.evetools.toolsfolder_1.4.5/Tools/MinGW/bin/../lib/gcc/i686-w64-mingw32/4.9.2\libstdc++.a(eh_call.o)
 .eh_frame      0x0043a524       0xf0 C:/Program Files/ETAS/ISOLAR-EVE3.0/plugins/com.etas.evetools.toolsfolder_1.4.5/Tools/MinGW/bin/../lib/gcc/i686-w64-mingw32/4.9.2\libstdc++.a(eh_exception.o)
 .eh_frame      0x0043a614       0x34 C:/Program Files/ETAS/ISOLAR-EVE3.0/plugins/com.etas.evetools.toolsfolder_1.4.5/Tools/MinGW/bin/../lib/gcc/i686-w64-mingw32/4.9.2\libstdc++.a(eh_type.o)
 .eh_frame      0x0043a648       0x40 C:/Program Files/ETAS/ISOLAR-EVE3.0/plugins/com.etas.evetools.toolsfolder_1.4.5/Tools/MinGW/bin/../lib/gcc/i686-w64-mingw32/4.9.2\libstdc++.a(new_handler.o)
 .eh_frame      0x0043a688       0x5c C:/Program Files/ETAS/ISOLAR-EVE3.0/plugins/com.etas.evetools.toolsfolder_1.4.5/Tools/MinGW/bin/../lib/gcc/i686-w64-mingw32/4.9.2/../../../../i686-w64-mingw32/lib/../lib/libmingw32.a(lib32_libmingw32_a-atonexit.o)
 .eh_frame      0x0043a6e4       0x68 C:/Program Files/ETAS/ISOLAR-EVE3.0/plugins/com.etas.evetools.toolsfolder_1.4.5/Tools/MinGW/bin/../lib/gcc/i686-w64-mingw32/4.9.2/../../../../i686-w64-mingw32/lib/../lib/libmingw32.a(lib32_libmingw32_a-gccmain.o)
 .eh_frame      0x0043a74c       0x2c C:/Program Files/ETAS/ISOLAR-EVE3.0/plugins/com.etas.evetools.toolsfolder_1.4.5/Tools/MinGW/bin/../lib/gcc/i686-w64-mingw32/4.9.2/../../../../i686-w64-mingw32/lib/../lib/libmingw32.a(lib32_libmingw32_a-charmax.o)
 .eh_frame      0x0043a778       0x2c C:/Program Files/ETAS/ISOLAR-EVE3.0/plugins/com.etas.evetools.toolsfolder_1.4.5/Tools/MinGW/bin/../lib/gcc/i686-w64-mingw32/4.9.2/../../../../i686-w64-mingw32/lib/../lib/libmingw32.a(lib32_libmingw32_a-dllargv.o)
 .eh_frame      0x0043a7a4       0x74 C:/Program Files/ETAS/ISOLAR-EVE3.0/plugins/com.etas.evetools.toolsfolder_1.4.5/Tools/MinGW/bin/../lib/gcc/i686-w64-mingw32/4.9.2/../../../../i686-w64-mingw32/lib/../lib/libmingw32.a(lib32_libmingw32_a-gs_support.o)
 .eh_frame      0x0043a818       0x7c C:/Program Files/ETAS/ISOLAR-EVE3.0/plugins/com.etas.evetools.toolsfolder_1.4.5/Tools/MinGW/bin/../lib/gcc/i686-w64-mingw32/4.9.2/../../../../i686-w64-mingw32/lib/../lib/libmingw32.a(lib32_libmingw32_a-tlssup.o)
 .eh_frame      0x0043a894       0x5c C:/Program Files/ETAS/ISOLAR-EVE3.0/plugins/com.etas.evetools.toolsfolder_1.4.5/Tools/MinGW/bin/../lib/gcc/i686-w64-mingw32/4.9.2/../../../../i686-w64-mingw32/lib/../lib/libmingw32.a(lib32_libmingw32_a-merr.o)
 .eh_frame      0x0043a8f0       0x2c C:/Program Files/ETAS/ISOLAR-EVE3.0/plugins/com.etas.evetools.toolsfolder_1.4.5/Tools/MinGW/bin/../lib/gcc/i686-w64-mingw32/4.9.2/../../../../i686-w64-mingw32/lib/../lib/libmingw32.a(lib32_libmingw32_a-CRT_fp10.o)
 .eh_frame      0x0043a91c       0x40 C:/Program Files/ETAS/ISOLAR-EVE3.0/plugins/com.etas.evetools.toolsfolder_1.4.5/Tools/MinGW/bin/../lib/gcc/i686-w64-mingw32/4.9.2/../../../../i686-w64-mingw32/lib/../lib/libmingw32.a(lib32_libmingw32_a-mingw_helpers.o)
 .eh_frame      0x0043a95c       0x94 C:/Program Files/ETAS/ISOLAR-EVE3.0/plugins/com.etas.evetools.toolsfolder_1.4.5/Tools/MinGW/bin/../lib/gcc/i686-w64-mingw32/4.9.2/../../../../i686-w64-mingw32/lib/../lib/libmingw32.a(lib32_libmingw32_a-pseudo-reloc.o)
 .eh_frame      0x0043a9f0       0x54 C:/Program Files/ETAS/ISOLAR-EVE3.0/plugins/com.etas.evetools.toolsfolder_1.4.5/Tools/MinGW/bin/../lib/gcc/i686-w64-mingw32/4.9.2/../../../../i686-w64-mingw32/lib/../lib/libmingw32.a(lib32_libmingw32_a-crt_handler.o)
 .eh_frame      0x0043aa44       0xdc C:/Program Files/ETAS/ISOLAR-EVE3.0/plugins/com.etas.evetools.toolsfolder_1.4.5/Tools/MinGW/bin/../lib/gcc/i686-w64-mingw32/4.9.2/../../../../i686-w64-mingw32/lib/../lib/libmingw32.a(lib32_libmingw32_a-tlsthrd.o)
 .eh_frame      0x0043ab20      0x1f0 C:/Program Files/ETAS/ISOLAR-EVE3.0/plugins/com.etas.evetools.toolsfolder_1.4.5/Tools/MinGW/bin/../lib/gcc/i686-w64-mingw32/4.9.2/../../../../i686-w64-mingw32/lib/../lib/libmingw32.a(lib32_libmingw32_a-pesect.o)
 .eh_frame      0x0043ad10       0x58 C:/Program Files/ETAS/ISOLAR-EVE3.0/plugins/com.etas.evetools.toolsfolder_1.4.5/Tools/MinGW/bin/../lib/gcc/i686-w64-mingw32/4.9.2/libgcc.a(_divdi3.o)
 .eh_frame      0x0043ad68      0x2bc C:/Program Files/ETAS/ISOLAR-EVE3.0/plugins/com.etas.evetools.toolsfolder_1.4.5/Tools/MinGW/bin/../lib/gcc/i686-w64-mingw32/4.9.2/libgcc.a(gthr-win32.o)
 .eh_frame      0x0043b024      0x5cc C:/Program Files/ETAS/ISOLAR-EVE3.0/plugins/com.etas.evetools.toolsfolder_1.4.5/Tools/MinGW/bin/../lib/gcc/i686-w64-mingw32/4.9.2/libgcc_eh.a(unwind-dw2.o)
 .eh_frame      0x0043b5f0      0x5a8 C:/Program Files/ETAS/ISOLAR-EVE3.0/plugins/com.etas.evetools.toolsfolder_1.4.5/Tools/MinGW/bin/../lib/gcc/i686-w64-mingw32/4.9.2/libgcc_eh.a(unwind-dw2-fde.o)
 .eh_frame      0x0043bb98      0x140 C:/Program Files/ETAS/ISOLAR-EVE3.0/plugins/com.etas.evetools.toolsfolder_1.4.5/Tools/MinGW/bin/../lib/gcc/i686-w64-mingw32/4.9.2/libgcc_eh.a(emutls.o)
 .eh_frame      0x0043bcd8       0x40 C:/Program Files/ETAS/ISOLAR-EVE3.0/plugins/com.etas.evetools.toolsfolder_1.4.5/Tools/MinGW/bin/../lib/gcc/i686-w64-mingw32/4.9.2/../../../../i686-w64-mingw32/lib/../lib/libmsvcrt.a(lib32_libmsvcrt_a-invalid_parameter_handler.o)
 .eh_frame      0x0043bd18       0x40 C:/Program Files/ETAS/ISOLAR-EVE3.0/plugins/com.etas.evetools.toolsfolder_1.4.5/Tools/MinGW/bin/../lib/gcc/i686-w64-mingw32/4.9.2/../../../../i686-w64-mingw32/lib/../lib/libmingw32.a(lib32_libmingw32_a-tlsmthread.o)
 .eh_frame      0x0043bd58       0x3c C:/Program Files/ETAS/ISOLAR-EVE3.0/plugins/com.etas.evetools.toolsfolder_1.4.5/Tools/MinGW/bin/../lib/gcc/i686-w64-mingw32/4.9.2/crtend.o

.pdata
 *(.pdata)

.bss            0x0043c000     0x67ac
                0x0043c000                __bss_start__ = .
 *(.bss)
 .bss           0x0043c000       0x20 C:/Program Files/ETAS/ISOLAR-EVE3.0/plugins/com.etas.evetools.toolsfolder_1.4.5/Tools/MinGW/bin/../lib/gcc/i686-w64-mingw32/4.9.2/../../../../i686-w64-mingw32/lib/../lib/crt2.o
 .bss           0x0043c020       0x18 C:/Program Files/ETAS/ISOLAR-EVE3.0/plugins/com.etas.evetools.toolsfolder_1.4.5/Tools/MinGW/bin/../lib/gcc/i686-w64-mingw32/4.9.2/crtbegin.o
 .bss           0x0043c038        0x0 BswTasks.o
 *fill*         0x0043c038        0x8 
 .bss           0x0043c040      0x1c0 EVE_SystemClock.o
 .bss           0x0043c200        0x0 main.o
 .bss           0x0043c200        0x0 Os_ErrorHook.o
 .bss           0x0043c200        0x0 Os_Hooks.o
 .bss           0x0043c200       0x20 Rte.o
                0x0043c200                Rte_ActCount_CPT_ACT_HIGHBEAM_DRE_HIGHBEAM_RECEIVE
                0x0043c201                Rte_ActCount_CPT_ACT_LEFTRIGHT_MOTOR_DRE_LEFTRIGHTANGLE_RECEIVE
                0x0043c202                Rte_ActCount_CPT_ACT_LOWBEAM_DRE_LOWBEAM_RECEIVE
                0x0043c203                Rte_ActCount_CPT_ACT_UPDOWN_MOTOR_DRE_UPDOWNANGLE_RECEIVE
                0x0043c204                Rte_ActCount_CPT_APP_HIGHBEAM_DRE_DISTANCE
                0x0043c205                Rte_ActCount_CPT_APP_HIGHBEAM_DRE_LIGHTMODE
                0x0043c206                Rte_ActCount_CPT_APP_LOWBEAM_DRE_DISTANCE
                0x0043c207                Rte_ActCount_CPT_APP_LOWBEAM_DRE_LIGHT
                0x0043c208                Rte_ActCount_CPT_APP_LOWBEAM_DRE_LIGHTMODE
                0x0043c209                Rte_ActCount_CPT_APP_LOWBEAM_DRE_SPEED
                0x0043c20a                Rte_ActCount_CPT_APP_MOTOR_DRE_SPEED
                0x0043c20b                Rte_ActCount_CPT_APP_MOTOR_DRE_STEERING
                0x0043c20c                Rte_Event_CPT_ECU_ABS_AFS_R_HIGHBEAMMODE_FROM_ACT_HIGHBEAM_OPER_ACT_TO_ECU_wd
                0x0043c20f                Rte_Event_CPT_ECU_ABS_AFS_R_LEFTRIGHTANGLE_FROM_ACT_LEFTRIGHT_MOTOR_OPER_ACT_TO_ECU_wd
                0x0043c212                Rte_Event_CPT_ECU_ABS_AFS_R_LOWBEAMMODE_FROM_ACT_LOWBEAM_OPER_ACT_TO_ECU_wd
                0x0043c215                Rte_Event_CPT_ECU_ABS_AFS_R_UPDOWNANGLE_FROM_ACT_UPDOWN_MOTOR_OPER_ACT_TO_ECU_wd
                0x0043c218                Rte_Var_CPT_SENSOR_DISTANCE_R_DISTANCE_FROM_ECU_ABS_AFS_OPER_ECU_TO_SENSOR_outstanding
                0x0043c219                Rte_Var_CPT_SENSOR_LIGHTMODE_R_LIGHTMODE_FROM_ECU_ABS_AFS_OPER_ECU_TO_SENSOR_outstanding
                0x0043c21a                Rte_Var_CPT_SENSOR_LIGHT_R_LIGHT_FROM_ECU_ABS_AFS_OPER_ECU_TO_SENSOR_outstanding
                0x0043c21b                Rte_Var_CPT_SENSOR_SPEED_R_SPEED_FROM_ECU_ABS_AFS_OPER_ECU_TO_SENSOR_outstanding
                0x0043c21c                Rte_Var_CPT_SENSOR_STEERINGANGLE_R_STEERINGANGLE_FROM_ECU_ABS_AFS_OPER_ECU_TO_SENSOR_outstanding
 .bss           0x0043c220        0x0 Rte_ACT_HIGHBEAM.o
 .bss           0x0043c220        0x0 Rte_ACT_LEFTRIGHT_MOTOR.o
 .bss           0x0043c220        0x0 Rte_ACT_LOWBEAM.o
 .bss           0x0043c220        0x0 Rte_ACT_UPDOWN_MOTOR.o
 .bss           0x0043c220        0x0 Rte_APP_HIGHBEAM.o
 .bss           0x0043c220        0x0 Rte_APP_LOWBEAM.o
 .bss           0x0043c220        0x0 Rte_APP_MOTOR.o
 .bss           0x0043c220        0x0 Rte_ECU_ABS_AFS.o
 .bss           0x0043c220        0x4 Rte_Lib.o
                0x0043c220                Rte_ResourceCount
                0x0043c222                Rte_Initialized
                0x0043c223                SchM_Initialized
 .bss           0x0043c224        0x0 Rte_SENSOR_DISTANCE.o
 .bss           0x0043c224        0x0 Rte_SENSOR_LIGHT.o
 .bss           0x0043c224        0x0 Rte_SENSOR_LIGHTMODE.o
 .bss           0x0043c224        0x0 Rte_SENSOR_SPEED.o
 .bss           0x0043c224        0x0 Rte_SENSOR_STEERINGANGLE.o
 .bss           0x0043c224        0x0 TAKS_ECU_SPEED.o
 .bss           0x0043c224        0x0 target.o
 .bss           0x0043c224        0x0 TASK_ACT_HIGHBEAM_RECEIVE.o
 .bss           0x0043c224        0x0 TASK_ACT_HIGHBEAM_SEND.o
 .bss           0x0043c224        0x0 TASK_ACT_LEFTRIGHTANGLE_RECEIVE.o
 .bss           0x0043c224        0x0 TASK_ACT_LEFTRIGHTANGLE_SEND.o
 .bss           0x0043c224        0x0 TASK_ACT_LOWBEAM_RECEIVE.o
 .bss           0x0043c224        0x0 TASK_ACT_LOWBEAM_SEND.o
 .bss           0x0043c224        0x0 TASK_ACT_UPDOWNANGLE_RECEIVE.o
 .bss           0x0043c224        0x0 TASK_ACT_UPDOWNANGLE_SEND.o
 .bss           0x0043c224        0x0 TASK_APP_HIGHBEAM.o
 .bss           0x0043c224        0x0 TASK_APP_LOWBEAM.o
 .bss           0x0043c224        0x0 TASK_APP_MOTOR.o
 .bss           0x0043c224        0x0 TASK_ECU_ACTUATOR.o
 .bss           0x0043c224        0x0 TASK_ECU_DISTANCE.o
 .bss           0x0043c224        0x0 TASK_ECU_LIGHT.o
 .bss           0x0043c224        0x0 TASK_ECU_LIGHTMODE.o
 .bss           0x0043c224        0x0 TASK_EUC_STEERINGANGLE.o
 .bss           0x0043c224        0x0 TASK_SENSOR_DISTANCE.o
 .bss           0x0043c224        0x0 TASK_SENSOR_LIGHT.o
 .bss           0x0043c224        0x0 TASK_SENSOR_LIGHTMODE.o
 .bss           0x0043c224        0x0 TASK_SENSOR_SPEED.o
 .bss           0x0043c224        0x0 TASK_SENSOR_STEERINGANGLE.o
 .bss           0x0043c224        0x8 VECU_SystemClock_ISR.o
 *fill*         0x0043c22c       0x14 
 .bss           0x0043c240     0x52c0 VirtualDevices.o
                0x0043c240                DistanceSensor
                0x0043c280                SteeringAngleSensor
                0x0043c2c0                SpeedSensor
                0x0043c300                LightSensor
                0x0043c340                LightModeSensor
                0x0043c380                UPDOWNMotorActuator
                0x0043c3c0                LEFTRIGHTMotorActuator
                0x0043c400                LowBeamActuator
                0x0043c440                HighBeamActuator
                0x0043c480                Status
 .bss           0x00441500       0x1c Vrta_Cfg.o
 .bss           0x0044151c        0x0 RTAOS.lib(ActivateTask.o)
 .bss           0x0044151c        0x0 RTAOS.lib(CancelAlarm.o)
 .bss           0x0044151c        0x0 RTAOS.lib(ClearEvent.o)
 .bss           0x0044151c        0x0 RTAOS.lib(DispatchTask.o)
 .bss           0x0044151c        0x0 RTAOS.lib(GetEvent.o)
 .bss           0x0044151c        0x0 RTAOS.lib(GetISRID.o)
 .bss           0x0044151c        0x0 RTAOS.lib(GetResource.o)
 .bss           0x0044151c        0x0 RTAOS.lib(GetTaskID.o)
 .bss           0x0044151c        0x0 RTAOS.lib(Os_Cfg.o)
 .bss           0x0044151c        0x0 RTAOS.lib(Os_Cfg_Counters.o)
 .bss           0x0044151c        0x0 RTAOS.lib(Os_fsb.o)
 .bss           0x0044151c        0x0 RTAOS.lib(Os_SetJmp.o)
 .bss           0x0044151c        0x4 RTAOS.lib(Os_Stack.o)
 .bss           0x00441520        0x0 RTAOS.lib(ReleaseResource.o)
 .bss           0x00441520        0x0 RTAOS.lib(ResumeOSInterrupts.o)
 .bss           0x00441520        0x0 RTAOS.lib(SetEvent.o)
 .bss           0x00441520        0x0 RTAOS.lib(SetRelAlarm.o)
 .bss           0x00441520        0x0 RTAOS.lib(StartOS.o)
 .bss           0x00441520        0x0 RTAOS.lib(StartScheduleTableRel.o)
 .bss           0x00441520        0x0 RTAOS.lib(StopScheduleTable.o)
 .bss           0x00441520        0x0 RTAOS.lib(SuspendOSInterrupts.o)
 .bss           0x00441520        0x0 RTAOS.lib(TerminateTask.o)
 .bss           0x00441520        0x0 RTAOS.lib(vrtaAppMain.o)
 .bss           0x00441520       0xb0 RTAOS.lib(vrtaCore.o)
                0x00441520                vrtaNeedsForcedTerminate
 .bss           0x004415d0        0x4 RTAOS.lib(vrtaIdleHandling.o)
 .bss           0x004415d4        0x0 RTAOS.lib(vrtaLoggerDevice.o)
 *fill*         0x004415d4        0xc 
 .bss           0x004415e0       0x40 RTAOS.lib(vrtaOSMonitorDevice.o)
 .bss           0x00441620        0x0 RTAOS.lib(vrtaSampleDevices.o)
 .bss           0x00441620       0x3c RTAOS.lib(vrtaSystemClock.o)
                0x00441620                vrtaSystemClock
 *fill*         0x0044165c       0x24 
 .bss           0x00441680      0x180 RTAOS.lib(vrtaSystemClockDevice.o)
                0x00441680                SystemClock
 .bss           0x00441800        0x0 RTAOS.lib(WaitEvent.o)
 .bss           0x00441800        0x0 RTAOS.lib(DispatchECC.o)
 .bss           0x00441800        0x0 RTAOS.lib(GetStackValue.o)
 .bss           0x00441800        0x0 RTAOS.lib(Os_vectors.o)
 .bss           0x00441800        0x0 RTAOS.lib(Os_wrapper.o)
 .bss           0x00441800        0x0 RTAOS.lib(StackOverrunHook.o)
 .bss           0x00441800        0x0 RTAOS.lib(virtualDevice.o)
 .bss           0x00441800        0x0 RTAOS.lib(ShutdownOS.o)
 .bss           0x00441800        0x0 RTAOS.lib(InShutdown.o)
 .bss           0x00441800        0x0 C:/Program Files/ETAS/ISOLAR-EVE3.0/plugins/com.etas.evetools.toolsfolder_1.4.5/Tools/MinGW/bin/../lib/gcc/i686-w64-mingw32/4.9.2/../../../../i686-w64-mingw32/lib/../lib/libwinmm.a(dasfs00150.o)
 .bss           0x00441800        0x0 C:/Program Files/ETAS/ISOLAR-EVE3.0/plugins/com.etas.evetools.toolsfolder_1.4.5/Tools/MinGW/bin/../lib/gcc/i686-w64-mingw32/4.9.2/../../../../i686-w64-mingw32/lib/../lib/libwinmm.a(dasfs00149.o)
 .bss           0x00441800        0x0 C:/Program Files/ETAS/ISOLAR-EVE3.0/plugins/com.etas.evetools.toolsfolder_1.4.5/Tools/MinGW/bin/../lib/gcc/i686-w64-mingw32/4.9.2/../../../../i686-w64-mingw32/lib/../lib/libwinmm.a(dasfs00144.o)
 .bss           0x00441800        0x0 C:/Program Files/ETAS/ISOLAR-EVE3.0/plugins/com.etas.evetools.toolsfolder_1.4.5/Tools/MinGW/bin/../lib/gcc/i686-w64-mingw32/4.9.2/../../../../i686-w64-mingw32/lib/../lib/libwinmm.a(dasfh.o)
 .bss           0x00441800        0x0 C:/Program Files/ETAS/ISOLAR-EVE3.0/plugins/com.etas.evetools.toolsfolder_1.4.5/Tools/MinGW/bin/../lib/gcc/i686-w64-mingw32/4.9.2/../../../../i686-w64-mingw32/lib/../lib/libwinmm.a(dasft.o)
 .bss           0x00441800        0x0 C:/Program Files/ETAS/ISOLAR-EVE3.0/plugins/com.etas.evetools.toolsfolder_1.4.5/Tools/MinGW/bin/../lib/gcc/i686-w64-mingw32/4.9.2\libstdc++.a(class_type_info.o)
 .bss           0x00441800        0x0 C:/Program Files/ETAS/ISOLAR-EVE3.0/plugins/com.etas.evetools.toolsfolder_1.4.5/Tools/MinGW/bin/../lib/gcc/i686-w64-mingw32/4.9.2\libstdc++.a(del_op.o)
 .bss           0x00441800        0x0 C:/Program Files/ETAS/ISOLAR-EVE3.0/plugins/com.etas.evetools.toolsfolder_1.4.5/Tools/MinGW/bin/../lib/gcc/i686-w64-mingw32/4.9.2\libstdc++.a(del_opv.o)
 .bss           0x00441800        0x0 C:/Program Files/ETAS/ISOLAR-EVE3.0/plugins/com.etas.evetools.toolsfolder_1.4.5/Tools/MinGW/bin/../lib/gcc/i686-w64-mingw32/4.9.2\libstdc++.a(eh_catch.o)
 .bss           0x00441800        0x0 C:/Program Files/ETAS/ISOLAR-EVE3.0/plugins/com.etas.evetools.toolsfolder_1.4.5/Tools/MinGW/bin/../lib/gcc/i686-w64-mingw32/4.9.2\libstdc++.a(eh_globals.o)
 .bss           0x00441800        0x0 C:/Program Files/ETAS/ISOLAR-EVE3.0/plugins/com.etas.evetools.toolsfolder_1.4.5/Tools/MinGW/bin/../lib/gcc/i686-w64-mingw32/4.9.2\libstdc++.a(eh_personality.o)
 .bss           0x00441800        0x0 C:/Program Files/ETAS/ISOLAR-EVE3.0/plugins/com.etas.evetools.toolsfolder_1.4.5/Tools/MinGW/bin/../lib/gcc/i686-w64-mingw32/4.9.2\libstdc++.a(eh_terminate.o)
 .bss           0x00441800        0x0 C:/Program Files/ETAS/ISOLAR-EVE3.0/plugins/com.etas.evetools.toolsfolder_1.4.5/Tools/MinGW/bin/../lib/gcc/i686-w64-mingw32/4.9.2\libstdc++.a(eh_term_handler.o)
 .bss           0x00441800        0x0 C:/Program Files/ETAS/ISOLAR-EVE3.0/plugins/com.etas.evetools.toolsfolder_1.4.5/Tools/MinGW/bin/../lib/gcc/i686-w64-mingw32/4.9.2\libstdc++.a(eh_throw.o)
 .bss           0x00441800        0x0 C:/Program Files/ETAS/ISOLAR-EVE3.0/plugins/com.etas.evetools.toolsfolder_1.4.5/Tools/MinGW/bin/../lib/gcc/i686-w64-mingw32/4.9.2\libstdc++.a(eh_unex_handler.o)
 .bss           0x00441800        0x0 C:/Program Files/ETAS/ISOLAR-EVE3.0/plugins/com.etas.evetools.toolsfolder_1.4.5/Tools/MinGW/bin/../lib/gcc/i686-w64-mingw32/4.9.2\libstdc++.a(new_op.o)
 .bss           0x00441800        0x0 C:/Program Files/ETAS/ISOLAR-EVE3.0/plugins/com.etas.evetools.toolsfolder_1.4.5/Tools/MinGW/bin/../lib/gcc/i686-w64-mingw32/4.9.2\libstdc++.a(new_opv.o)
 .bss           0x00441800        0x0 C:/Program Files/ETAS/ISOLAR-EVE3.0/plugins/com.etas.evetools.toolsfolder_1.4.5/Tools/MinGW/bin/../lib/gcc/i686-w64-mingw32/4.9.2\libstdc++.a(pure.o)
 .bss           0x00441800        0x0 C:/Program Files/ETAS/ISOLAR-EVE3.0/plugins/com.etas.evetools.toolsfolder_1.4.5/Tools/MinGW/bin/../lib/gcc/i686-w64-mingw32/4.9.2\libstdc++.a(si_class_type_info.o)
 .bss           0x00441800        0x0 C:/Program Files/ETAS/ISOLAR-EVE3.0/plugins/com.etas.evetools.toolsfolder_1.4.5/Tools/MinGW/bin/../lib/gcc/i686-w64-mingw32/4.9.2\libstdc++.a(tinfo.o)
 .bss           0x00441800        0x0 C:/Program Files/ETAS/ISOLAR-EVE3.0/plugins/com.etas.evetools.toolsfolder_1.4.5/Tools/MinGW/bin/../lib/gcc/i686-w64-mingw32/4.9.2\libstdc++.a(vmi_class_type_info.o)
 .bss           0x00441800        0x0 C:/Program Files/ETAS/ISOLAR-EVE3.0/plugins/com.etas.evetools.toolsfolder_1.4.5/Tools/MinGW/bin/../lib/gcc/i686-w64-mingw32/4.9.2\libstdc++.a(vterminate.o)
 .bss           0x00441800        0x0 C:/Program Files/ETAS/ISOLAR-EVE3.0/plugins/com.etas.evetools.toolsfolder_1.4.5/Tools/MinGW/bin/../lib/gcc/i686-w64-mingw32/4.9.2\libstdc++.a(bad_alloc.o)
 .bss           0x00441800        0x0 C:/Program Files/ETAS/ISOLAR-EVE3.0/plugins/com.etas.evetools.toolsfolder_1.4.5/Tools/MinGW/bin/../lib/gcc/i686-w64-mingw32/4.9.2\libstdc++.a(cp-demangle.o)
 .bss           0x00441800        0x0 C:/Program Files/ETAS/ISOLAR-EVE3.0/plugins/com.etas.evetools.toolsfolder_1.4.5/Tools/MinGW/bin/../lib/gcc/i686-w64-mingw32/4.9.2\libstdc++.a(eh_alloc.o)
 .bss           0x00441800        0x0 C:/Program Files/ETAS/ISOLAR-EVE3.0/plugins/com.etas.evetools.toolsfolder_1.4.5/Tools/MinGW/bin/../lib/gcc/i686-w64-mingw32/4.9.2\libstdc++.a(eh_call.o)
 .bss           0x00441800        0x0 C:/Program Files/ETAS/ISOLAR-EVE3.0/plugins/com.etas.evetools.toolsfolder_1.4.5/Tools/MinGW/bin/../lib/gcc/i686-w64-mingw32/4.9.2\libstdc++.a(eh_exception.o)
 .bss           0x00441800        0x0 C:/Program Files/ETAS/ISOLAR-EVE3.0/plugins/com.etas.evetools.toolsfolder_1.4.5/Tools/MinGW/bin/../lib/gcc/i686-w64-mingw32/4.9.2\libstdc++.a(eh_type.o)
 .bss           0x00441800        0x0 C:/Program Files/ETAS/ISOLAR-EVE3.0/plugins/com.etas.evetools.toolsfolder_1.4.5/Tools/MinGW/bin/../lib/gcc/i686-w64-mingw32/4.9.2\libstdc++.a(new_handler.o)
 .bss           0x00441800        0x0 C:/Program Files/ETAS/ISOLAR-EVE3.0/plugins/com.etas.evetools.toolsfolder_1.4.5/Tools/MinGW/bin/../lib/gcc/i686-w64-mingw32/4.9.2/../../../../i686-w64-mingw32/lib/../lib/libmingw32.a(lib32_libmingw32_a-atonexit.o)
 .bss           0x00441800        0x4 C:/Program Files/ETAS/ISOLAR-EVE3.0/plugins/com.etas.evetools.toolsfolder_1.4.5/Tools/MinGW/bin/../lib/gcc/i686-w64-mingw32/4.9.2/../../../../i686-w64-mingw32/lib/../lib/libmingw32.a(lib32_libmingw32_a-gccmain.o)
 .bss           0x00441804        0x0 C:/Program Files/ETAS/ISOLAR-EVE3.0/plugins/com.etas.evetools.toolsfolder_1.4.5/Tools/MinGW/bin/../lib/gcc/i686-w64-mingw32/4.9.2/../../../../i686-w64-mingw32/lib/../lib/libmingw32.a(lib32_libmingw32_a-natstart.o)
 .bss           0x00441804        0x0 C:/Program Files/ETAS/ISOLAR-EVE3.0/plugins/com.etas.evetools.toolsfolder_1.4.5/Tools/MinGW/bin/../lib/gcc/i686-w64-mingw32/4.9.2/../../../../i686-w64-mingw32/lib/../lib/libmingw32.a(lib32_libmingw32_a-wildcard.o)
 .bss           0x00441804        0x4 C:/Program Files/ETAS/ISOLAR-EVE3.0/plugins/com.etas.evetools.toolsfolder_1.4.5/Tools/MinGW/bin/../lib/gcc/i686-w64-mingw32/4.9.2/../../../../i686-w64-mingw32/lib/../lib/libmingw32.a(lib32_libmingw32_a-charmax.o)
                0x00441804                mingw_initcharmax
 .bss           0x00441808        0x0 C:/Program Files/ETAS/ISOLAR-EVE3.0/plugins/com.etas.evetools.toolsfolder_1.4.5/Tools/MinGW/bin/../lib/gcc/i686-w64-mingw32/4.9.2/../../../../i686-w64-mingw32/lib/../lib/libmingw32.a(lib32_libmingw32_a-dllargv.o)
 *fill*         0x00441808       0x18 
 .bss           0x00441820      0x340 C:/Program Files/ETAS/ISOLAR-EVE3.0/plugins/com.etas.evetools.toolsfolder_1.4.5/Tools/MinGW/bin/../lib/gcc/i686-w64-mingw32/4.9.2/../../../../i686-w64-mingw32/lib/../lib/libmingw32.a(lib32_libmingw32_a-gs_support.o)
 .bss           0x00441b60        0x4 C:/Program Files/ETAS/ISOLAR-EVE3.0/plugins/com.etas.evetools.toolsfolder_1.4.5/Tools/MinGW/bin/../lib/gcc/i686-w64-mingw32/4.9.2/../../../../i686-w64-mingw32/lib/../lib/libmingw32.a(lib32_libmingw32_a-_newmode.o)
                0x00441b60                _newmode
 .bss           0x00441b64       0x10 C:/Program Files/ETAS/ISOLAR-EVE3.0/plugins/com.etas.evetools.toolsfolder_1.4.5/Tools/MinGW/bin/../lib/gcc/i686-w64-mingw32/4.9.2/../../../../i686-w64-mingw32/lib/../lib/libmingw32.a(lib32_libmingw32_a-tlssup.o)
                0x00441b64                mingw_initltssuo_force
                0x00441b68                mingw_initltsdyn_force
                0x00441b6c                mingw_initltsdrot_force
                0x00441b70                _tls_index
 .bss           0x00441b74        0x0 C:/Program Files/ETAS/ISOLAR-EVE3.0/plugins/com.etas.evetools.toolsfolder_1.4.5/Tools/MinGW/bin/../lib/gcc/i686-w64-mingw32/4.9.2/../../../../i686-w64-mingw32/lib/../lib/libmingw32.a(lib32_libmingw32_a-cinitexe.o)
 .bss           0x00441b74        0x4 C:/Program Files/ETAS/ISOLAR-EVE3.0/plugins/com.etas.evetools.toolsfolder_1.4.5/Tools/MinGW/bin/../lib/gcc/i686-w64-mingw32/4.9.2/../../../../i686-w64-mingw32/lib/../lib/libmingw32.a(lib32_libmingw32_a-merr.o)
 .bss           0x00441b78        0x0 C:/Program Files/ETAS/ISOLAR-EVE3.0/plugins/com.etas.evetools.toolsfolder_1.4.5/Tools/MinGW/bin/../lib/gcc/i686-w64-mingw32/4.9.2/../../../../i686-w64-mingw32/lib/../lib/libmingw32.a(lib32_libmingw32_a-CRT_fp10.o)
 .bss           0x00441b78        0x4 C:/Program Files/ETAS/ISOLAR-EVE3.0/plugins/com.etas.evetools.toolsfolder_1.4.5/Tools/MinGW/bin/../lib/gcc/i686-w64-mingw32/4.9.2/../../../../i686-w64-mingw32/lib/../lib/libmingw32.a(lib32_libmingw32_a-mingw_helpers.o)
                0x00441b78                mingw_app_type
 .bss           0x00441b7c        0xc C:/Program Files/ETAS/ISOLAR-EVE3.0/plugins/com.etas.evetools.toolsfolder_1.4.5/Tools/MinGW/bin/../lib/gcc/i686-w64-mingw32/4.9.2/../../../../i686-w64-mingw32/lib/../lib/libmingw32.a(lib32_libmingw32_a-pseudo-reloc.o)
 .bss           0x00441b88        0x4 C:/Program Files/ETAS/ISOLAR-EVE3.0/plugins/com.etas.evetools.toolsfolder_1.4.5/Tools/MinGW/bin/../lib/gcc/i686-w64-mingw32/4.9.2/../../../../i686-w64-mingw32/lib/../lib/libmingw32.a(lib32_libmingw32_a-xtxtmode.o)
                0x00441b88                _fmode
 .bss           0x00441b8c        0x4 C:/Program Files/ETAS/ISOLAR-EVE3.0/plugins/com.etas.evetools.toolsfolder_1.4.5/Tools/MinGW/bin/../lib/gcc/i686-w64-mingw32/4.9.2/../../../../i686-w64-mingw32/lib/../lib/libmingw32.a(lib32_libmingw32_a-crt_handler.o)
                0x00441b8c                __mingw_oldexcpt_handler
 .bss           0x00441b90       0x20 C:/Program Files/ETAS/ISOLAR-EVE3.0/plugins/com.etas.evetools.toolsfolder_1.4.5/Tools/MinGW/bin/../lib/gcc/i686-w64-mingw32/4.9.2/../../../../i686-w64-mingw32/lib/../lib/libmingw32.a(lib32_libmingw32_a-tlsthrd.o)
 .bss           0x00441bb0        0x0 C:/Program Files/ETAS/ISOLAR-EVE3.0/plugins/com.etas.evetools.toolsfolder_1.4.5/Tools/MinGW/bin/../lib/gcc/i686-w64-mingw32/4.9.2/../../../../i686-w64-mingw32/lib/../lib/libmingw32.a(lib32_libmingw32_a-tlsmcrt.o)
 .bss           0x00441bb0        0x4 C:/Program Files/ETAS/ISOLAR-EVE3.0/plugins/com.etas.evetools.toolsfolder_1.4.5/Tools/MinGW/bin/../lib/gcc/i686-w64-mingw32/4.9.2/../../../../i686-w64-mingw32/lib/../lib/libmingw32.a(lib32_libmingw32_a-pseudo-reloc-list.o)
 .bss           0x00441bb4        0x0 C:/Program Files/ETAS/ISOLAR-EVE3.0/plugins/com.etas.evetools.toolsfolder_1.4.5/Tools/MinGW/bin/../lib/gcc/i686-w64-mingw32/4.9.2/../../../../i686-w64-mingw32/lib/../lib/libmingw32.a(lib32_libmingw32_a-pesect.o)
 .bss           0x00441bb4        0x0 C:/Program Files/ETAS/ISOLAR-EVE3.0/plugins/com.etas.evetools.toolsfolder_1.4.5/Tools/MinGW/bin/../lib/gcc/i686-w64-mingw32/4.9.2/libgcc.a(_chkstk_ms.o)
 .bss           0x00441bb4        0x0 C:/Program Files/ETAS/ISOLAR-EVE3.0/plugins/com.etas.evetools.toolsfolder_1.4.5/Tools/MinGW/bin/../lib/gcc/i686-w64-mingw32/4.9.2/libgcc.a(_ctors.o)
 .bss           0x00441bb4        0x0 C:/Program Files/ETAS/ISOLAR-EVE3.0/plugins/com.etas.evetools.toolsfolder_1.4.5/Tools/MinGW/bin/../lib/gcc/i686-w64-mingw32/4.9.2/libgcc.a(_divdi3.o)
 .bss           0x00441bb4        0x0 C:/Program Files/ETAS/ISOLAR-EVE3.0/plugins/com.etas.evetools.toolsfolder_1.4.5/Tools/MinGW/bin/../lib/gcc/i686-w64-mingw32/4.9.2/libgcc.a(gthr-win32.o)
 .bss           0x00441bb4       0x14 C:/Program Files/ETAS/ISOLAR-EVE3.0/plugins/com.etas.evetools.toolsfolder_1.4.5/Tools/MinGW/bin/../lib/gcc/i686-w64-mingw32/4.9.2/libgcc_eh.a(unwind-dw2.o)
 .bss           0x00441bc8       0x1c C:/Program Files/ETAS/ISOLAR-EVE3.0/plugins/com.etas.evetools.toolsfolder_1.4.5/Tools/MinGW/bin/../lib/gcc/i686-w64-mingw32/4.9.2/libgcc_eh.a(unwind-dw2-fde.o)
 .bss           0x00441be4       0x10 C:/Program Files/ETAS/ISOLAR-EVE3.0/plugins/com.etas.evetools.toolsfolder_1.4.5/Tools/MinGW/bin/../lib/gcc/i686-w64-mingw32/4.9.2/libgcc_eh.a(emutls.o)
 .bss           0x00441bf4        0x0 C:/Program Files/ETAS/ISOLAR-EVE3.0/plugins/com.etas.evetools.toolsfolder_1.4.5/Tools/MinGW/bin/../lib/gcc/i686-w64-mingw32/4.9.2/../../../../i686-w64-mingw32/lib/../lib/libmingwex.a(lib32_libmingwex_a-mingw_matherr.o)
 .bss           0x00441bf4        0x0 C:/Program Files/ETAS/ISOLAR-EVE3.0/plugins/com.etas.evetools.toolsfolder_1.4.5/Tools/MinGW/bin/../lib/gcc/i686-w64-mingw32/4.9.2/../../../../i686-w64-mingw32/lib/../lib/libmsvcrt.a(dcpds01256.o)
 .bss           0x00441bf4        0x0 C:/Program Files/ETAS/ISOLAR-EVE3.0/plugins/com.etas.evetools.toolsfolder_1.4.5/Tools/MinGW/bin/../lib/gcc/i686-w64-mingw32/4.9.2/../../../../i686-w64-mingw32/lib/../lib/libmsvcrt.a(dcpds01249.o)
 .bss           0x00441bf4        0x0 C:/Program Files/ETAS/ISOLAR-EVE3.0/plugins/com.etas.evetools.toolsfolder_1.4.5/Tools/MinGW/bin/../lib/gcc/i686-w64-mingw32/4.9.2/../../../../i686-w64-mingw32/lib/../lib/libmsvcrt.a(dcpds01217.o)
 .bss           0x00441bf4        0x0 C:/Program Files/ETAS/ISOLAR-EVE3.0/plugins/com.etas.evetools.toolsfolder_1.4.5/Tools/MinGW/bin/../lib/gcc/i686-w64-mingw32/4.9.2/../../../../i686-w64-mingw32/lib/../lib/libmsvcrt.a(dcpds01216.o)
 .bss           0x00441bf4        0x0 C:/Program Files/ETAS/ISOLAR-EVE3.0/plugins/com.etas.evetools.toolsfolder_1.4.5/Tools/MinGW/bin/../lib/gcc/i686-w64-mingw32/4.9.2/../../../../i686-w64-mingw32/lib/../lib/libmsvcrt.a(dcpds01213.o)
 .bss           0x00441bf4        0x0 C:/Program Files/ETAS/ISOLAR-EVE3.0/plugins/com.etas.evetools.toolsfolder_1.4.5/Tools/MinGW/bin/../lib/gcc/i686-w64-mingw32/4.9.2/../../../../i686-w64-mingw32/lib/../lib/libmsvcrt.a(dcpds01208.o)
 .bss           0x00441bf4        0x0 C:/Program Files/ETAS/ISOLAR-EVE3.0/plugins/com.etas.evetools.toolsfolder_1.4.5/Tools/MinGW/bin/../lib/gcc/i686-w64-mingw32/4.9.2/../../../../i686-w64-mingw32/lib/../lib/libmsvcrt.a(dcpds01206.o)
 .bss           0x00441bf4        0x0 C:/Program Files/ETAS/ISOLAR-EVE3.0/plugins/com.etas.evetools.toolsfolder_1.4.5/Tools/MinGW/bin/../lib/gcc/i686-w64-mingw32/4.9.2/../../../../i686-w64-mingw32/lib/../lib/libmsvcrt.a(dcpds01203.o)
 .bss           0x00441bf4        0x0 C:/Program Files/ETAS/ISOLAR-EVE3.0/plugins/com.etas.evetools.toolsfolder_1.4.5/Tools/MinGW/bin/../lib/gcc/i686-w64-mingw32/4.9.2/../../../../i686-w64-mingw32/lib/../lib/libmsvcrt.a(dcpds01198.o)
 .bss           0x00441bf4        0x0 C:/Program Files/ETAS/ISOLAR-EVE3.0/plugins/com.etas.evetools.toolsfolder_1.4.5/Tools/MinGW/bin/../lib/gcc/i686-w64-mingw32/4.9.2/../../../../i686-w64-mingw32/lib/../lib/libmsvcrt.a(dcpds01195.o)
 .bss           0x00441bf4        0x0 C:/Program Files/ETAS/ISOLAR-EVE3.0/plugins/com.etas.evetools.toolsfolder_1.4.5/Tools/MinGW/bin/../lib/gcc/i686-w64-mingw32/4.9.2/../../../../i686-w64-mingw32/lib/../lib/libmsvcrt.a(dcpds01186.o)
 .bss           0x00441bf4        0x0 C:/Program Files/ETAS/ISOLAR-EVE3.0/plugins/com.etas.evetools.toolsfolder_1.4.5/Tools/MinGW/bin/../lib/gcc/i686-w64-mingw32/4.9.2/../../../../i686-w64-mingw32/lib/../lib/libmsvcrt.a(dcpds01170.o)
 .bss           0x00441bf4        0x0 C:/Program Files/ETAS/ISOLAR-EVE3.0/plugins/com.etas.evetools.toolsfolder_1.4.5/Tools/MinGW/bin/../lib/gcc/i686-w64-mingw32/4.9.2/../../../../i686-w64-mingw32/lib/../lib/libmsvcrt.a(dcpds01167.o)
 .bss           0x00441bf4        0x0 C:/Program Files/ETAS/ISOLAR-EVE3.0/plugins/com.etas.evetools.toolsfolder_1.4.5/Tools/MinGW/bin/../lib/gcc/i686-w64-mingw32/4.9.2/../../../../i686-w64-mingw32/lib/../lib/libmsvcrt.a(dcpds01165.o)
 .bss           0x00441bf4        0x0 C:/Program Files/ETAS/ISOLAR-EVE3.0/plugins/com.etas.evetools.toolsfolder_1.4.5/Tools/MinGW/bin/../lib/gcc/i686-w64-mingw32/4.9.2/../../../../i686-w64-mingw32/lib/../lib/libmsvcrt.a(dcpds01159.o)
 .bss           0x00441bf4        0x0 C:/Program Files/ETAS/ISOLAR-EVE3.0/plugins/com.etas.evetools.toolsfolder_1.4.5/Tools/MinGW/bin/../lib/gcc/i686-w64-mingw32/4.9.2/../../../../i686-w64-mingw32/lib/../lib/libmsvcrt.a(dcpds01112.o)
 .bss           0x00441bf4        0x0 C:/Program Files/ETAS/ISOLAR-EVE3.0/plugins/com.etas.evetools.toolsfolder_1.4.5/Tools/MinGW/bin/../lib/gcc/i686-w64-mingw32/4.9.2/../../../../i686-w64-mingw32/lib/../lib/libmsvcrt.a(dcpds01101.o)
 .bss           0x00441bf4        0x0 C:/Program Files/ETAS/ISOLAR-EVE3.0/plugins/com.etas.evetools.toolsfolder_1.4.5/Tools/MinGW/bin/../lib/gcc/i686-w64-mingw32/4.9.2/../../../../i686-w64-mingw32/lib/../lib/libmsvcrt.a(dcpds01097.o)
 .bss           0x00441bf4        0x0 C:/Program Files/ETAS/ISOLAR-EVE3.0/plugins/com.etas.evetools.toolsfolder_1.4.5/Tools/MinGW/bin/../lib/gcc/i686-w64-mingw32/4.9.2/../../../../i686-w64-mingw32/lib/../lib/libmsvcrt.a(dcpds01096.o)
 .bss           0x00441bf4        0x0 C:/Program Files/ETAS/ISOLAR-EVE3.0/plugins/com.etas.evetools.toolsfolder_1.4.5/Tools/MinGW/bin/../lib/gcc/i686-w64-mingw32/4.9.2/../../../../i686-w64-mingw32/lib/../lib/libmsvcrt.a(dcpds01094.o)
 .bss           0x00441bf4        0x0 C:/Program Files/ETAS/ISOLAR-EVE3.0/plugins/com.etas.evetools.toolsfolder_1.4.5/Tools/MinGW/bin/../lib/gcc/i686-w64-mingw32/4.9.2/../../../../i686-w64-mingw32/lib/../lib/libmsvcrt.a(dcpds01092.o)
 .bss           0x00441bf4        0x0 C:/Program Files/ETAS/ISOLAR-EVE3.0/plugins/com.etas.evetools.toolsfolder_1.4.5/Tools/MinGW/bin/../lib/gcc/i686-w64-mingw32/4.9.2/../../../../i686-w64-mingw32/lib/../lib/libmsvcrt.a(dcpds01081.o)
 .bss           0x00441bf4        0x0 C:/Program Files/ETAS/ISOLAR-EVE3.0/plugins/com.etas.evetools.toolsfolder_1.4.5/Tools/MinGW/bin/../lib/gcc/i686-w64-mingw32/4.9.2/../../../../i686-w64-mingw32/lib/../lib/libmsvcrt.a(dcpds01078.o)
 .bss           0x00441bf4        0x0 C:/Program Files/ETAS/ISOLAR-EVE3.0/plugins/com.etas.evetools.toolsfolder_1.4.5/Tools/MinGW/bin/../lib/gcc/i686-w64-mingw32/4.9.2/../../../../i686-w64-mingw32/lib/../lib/libmsvcrt.a(dcpds01067.o)
 .bss           0x00441bf4        0x0 C:/Program Files/ETAS/ISOLAR-EVE3.0/plugins/com.etas.evetools.toolsfolder_1.4.5/Tools/MinGW/bin/../lib/gcc/i686-w64-mingw32/4.9.2/../../../../i686-w64-mingw32/lib/../lib/libmsvcrt.a(dcpds01063.o)
 .bss           0x00441bf4        0x0 C:/Program Files/ETAS/ISOLAR-EVE3.0/plugins/com.etas.evetools.toolsfolder_1.4.5/Tools/MinGW/bin/../lib/gcc/i686-w64-mingw32/4.9.2/../../../../i686-w64-mingw32/lib/../lib/libmsvcrt.a(dcpds01055.o)
 .bss           0x00441bf4        0x0 C:/Program Files/ETAS/ISOLAR-EVE3.0/plugins/com.etas.evetools.toolsfolder_1.4.5/Tools/MinGW/bin/../lib/gcc/i686-w64-mingw32/4.9.2/../../../../i686-w64-mingw32/lib/../lib/libmsvcrt.a(dcpds01013.o)
 .bss           0x00441bf4        0x0 C:/Program Files/ETAS/ISOLAR-EVE3.0/plugins/com.etas.evetools.toolsfolder_1.4.5/Tools/MinGW/bin/../lib/gcc/i686-w64-mingw32/4.9.2/../../../../i686-w64-mingw32/lib/../lib/libmsvcrt.a(dcpds00840.o)
 .bss           0x00441bf4        0x0 C:/Program Files/ETAS/ISOLAR-EVE3.0/plugins/com.etas.evetools.toolsfolder_1.4.5/Tools/MinGW/bin/../lib/gcc/i686-w64-mingw32/4.9.2/../../../../i686-w64-mingw32/lib/../lib/libmsvcrt.a(dcpds00627.o)
 .bss           0x00441bf4        0x0 C:/Program Files/ETAS/ISOLAR-EVE3.0/plugins/com.etas.evetools.toolsfolder_1.4.5/Tools/MinGW/bin/../lib/gcc/i686-w64-mingw32/4.9.2/../../../../i686-w64-mingw32/lib/../lib/libmsvcrt.a(dcpds00460.o)
 .bss           0x00441bf4        0x0 C:/Program Files/ETAS/ISOLAR-EVE3.0/plugins/com.etas.evetools.toolsfolder_1.4.5/Tools/MinGW/bin/../lib/gcc/i686-w64-mingw32/4.9.2/../../../../i686-w64-mingw32/lib/../lib/libmsvcrt.a(dcpds00354.o)
 .bss           0x00441bf4        0x0 C:/Program Files/ETAS/ISOLAR-EVE3.0/plugins/com.etas.evetools.toolsfolder_1.4.5/Tools/MinGW/bin/../lib/gcc/i686-w64-mingw32/4.9.2/../../../../i686-w64-mingw32/lib/../lib/libmsvcrt.a(dcpds00350.o)
 .bss           0x00441bf4        0x0 C:/Program Files/ETAS/ISOLAR-EVE3.0/plugins/com.etas.evetools.toolsfolder_1.4.5/Tools/MinGW/bin/../lib/gcc/i686-w64-mingw32/4.9.2/../../../../i686-w64-mingw32/lib/../lib/libmsvcrt.a(dcpds00275.o)
 .bss           0x00441bf4        0x0 C:/Program Files/ETAS/ISOLAR-EVE3.0/plugins/com.etas.evetools.toolsfolder_1.4.5/Tools/MinGW/bin/../lib/gcc/i686-w64-mingw32/4.9.2/../../../../i686-w64-mingw32/lib/../lib/libmsvcrt.a(dcpds00163.o)
 .bss           0x00441bf4        0x0 C:/Program Files/ETAS/ISOLAR-EVE3.0/plugins/com.etas.evetools.toolsfolder_1.4.5/Tools/MinGW/bin/../lib/gcc/i686-w64-mingw32/4.9.2/../../../../i686-w64-mingw32/lib/../lib/libmsvcrt.a(dcpds00145.o)
 .bss           0x00441bf4        0x0 C:/Program Files/ETAS/ISOLAR-EVE3.0/plugins/com.etas.evetools.toolsfolder_1.4.5/Tools/MinGW/bin/../lib/gcc/i686-w64-mingw32/4.9.2/../../../../i686-w64-mingw32/lib/../lib/libmsvcrt.a(dcpds00123.o)
 .bss           0x00441bf4        0x0 C:/Program Files/ETAS/ISOLAR-EVE3.0/plugins/com.etas.evetools.toolsfolder_1.4.5/Tools/MinGW/bin/../lib/gcc/i686-w64-mingw32/4.9.2/../../../../i686-w64-mingw32/lib/../lib/libmsvcrt.a(dcpds00108.o)
 .bss           0x00441bf4        0x0 C:/Program Files/ETAS/ISOLAR-EVE3.0/plugins/com.etas.evetools.toolsfolder_1.4.5/Tools/MinGW/bin/../lib/gcc/i686-w64-mingw32/4.9.2/../../../../i686-w64-mingw32/lib/../lib/libmsvcrt.a(dcpds00105.o)
 .bss           0x00441bf4        0x0 C:/Program Files/ETAS/ISOLAR-EVE3.0/plugins/com.etas.evetools.toolsfolder_1.4.5/Tools/MinGW/bin/../lib/gcc/i686-w64-mingw32/4.9.2/../../../../i686-w64-mingw32/lib/../lib/libmsvcrt.a(dcpds00069.o)
 .bss           0x00441bf4        0x0 C:/Program Files/ETAS/ISOLAR-EVE3.0/plugins/com.etas.evetools.toolsfolder_1.4.5/Tools/MinGW/bin/../lib/gcc/i686-w64-mingw32/4.9.2/../../../../i686-w64-mingw32/lib/../lib/libmsvcrt.a(dcpds00059.o)
 .bss           0x00441bf4        0x0 C:/Program Files/ETAS/ISOLAR-EVE3.0/plugins/com.etas.evetools.toolsfolder_1.4.5/Tools/MinGW/bin/../lib/gcc/i686-w64-mingw32/4.9.2/../../../../i686-w64-mingw32/lib/../lib/libmsvcrt.a(dcpds00058.o)
 .bss           0x00441bf4        0x0 C:/Program Files/ETAS/ISOLAR-EVE3.0/plugins/com.etas.evetools.toolsfolder_1.4.5/Tools/MinGW/bin/../lib/gcc/i686-w64-mingw32/4.9.2/../../../../i686-w64-mingw32/lib/../lib/libmsvcrt.a(dcpds00055.o)
 .bss           0x00441bf4        0x4 C:/Program Files/ETAS/ISOLAR-EVE3.0/plugins/com.etas.evetools.toolsfolder_1.4.5/Tools/MinGW/bin/../lib/gcc/i686-w64-mingw32/4.9.2/../../../../i686-w64-mingw32/lib/../lib/libmsvcrt.a(lib32_libmsvcrt_a-invalid_parameter_handler.o)
 .bss           0x00441bf8        0x0 C:/Program Files/ETAS/ISOLAR-EVE3.0/plugins/com.etas.evetools.toolsfolder_1.4.5/Tools/MinGW/bin/../lib/gcc/i686-w64-mingw32/4.9.2/../../../../i686-w64-mingw32/lib/../lib/libmsvcrt.a(dcpdh.o)
 .bss           0x00441bf8        0x0 C:/Program Files/ETAS/ISOLAR-EVE3.0/plugins/com.etas.evetools.toolsfolder_1.4.5/Tools/MinGW/bin/../lib/gcc/i686-w64-mingw32/4.9.2/../../../../i686-w64-mingw32/lib/../lib/libmsvcrt.a(dcpdt.o)
 .bss           0x00441bf8        0x0 C:/Program Files/ETAS/ISOLAR-EVE3.0/plugins/com.etas.evetools.toolsfolder_1.4.5/Tools/MinGW/bin/../lib/gcc/i686-w64-mingw32/4.9.2/../../../../i686-w64-mingw32/lib/../lib/libuser32.a(diqes00588.o)
 .bss           0x00441bf8        0x0 C:/Program Files/ETAS/ISOLAR-EVE3.0/plugins/com.etas.evetools.toolsfolder_1.4.5/Tools/MinGW/bin/../lib/gcc/i686-w64-mingw32/4.9.2/../../../../i686-w64-mingw32/lib/../lib/libuser32.a(diqeh.o)
 .bss           0x00441bf8        0x0 C:/Program Files/ETAS/ISOLAR-EVE3.0/plugins/com.etas.evetools.toolsfolder_1.4.5/Tools/MinGW/bin/../lib/gcc/i686-w64-mingw32/4.9.2/../../../../i686-w64-mingw32/lib/../lib/libuser32.a(diqet.o)
 .bss           0x00441bf8        0x0 C:/Program Files/ETAS/ISOLAR-EVE3.0/plugins/com.etas.evetools.toolsfolder_1.4.5/Tools/MinGW/bin/../lib/gcc/i686-w64-mingw32/4.9.2/../../../../i686-w64-mingw32/lib/../lib/libkernel32.a(dkxs01218.o)
 .bss           0x00441bf8        0x0 C:/Program Files/ETAS/ISOLAR-EVE3.0/plugins/com.etas.evetools.toolsfolder_1.4.5/Tools/MinGW/bin/../lib/gcc/i686-w64-mingw32/4.9.2/../../../../i686-w64-mingw32/lib/../lib/libkernel32.a(dkxs01209.o)
 .bss           0x00441bf8        0x0 C:/Program Files/ETAS/ISOLAR-EVE3.0/plugins/com.etas.evetools.toolsfolder_1.4.5/Tools/MinGW/bin/../lib/gcc/i686-w64-mingw32/4.9.2/../../../../i686-w64-mingw32/lib/../lib/libkernel32.a(dkxs01206.o)
 .bss           0x00441bf8        0x0 C:/Program Files/ETAS/ISOLAR-EVE3.0/plugins/com.etas.evetools.toolsfolder_1.4.5/Tools/MinGW/bin/../lib/gcc/i686-w64-mingw32/4.9.2/../../../../i686-w64-mingw32/lib/../lib/libkernel32.a(dkxs01174.o)
 .bss           0x00441bf8        0x0 C:/Program Files/ETAS/ISOLAR-EVE3.0/plugins/com.etas.evetools.toolsfolder_1.4.5/Tools/MinGW/bin/../lib/gcc/i686-w64-mingw32/4.9.2/../../../../i686-w64-mingw32/lib/../lib/libkernel32.a(dkxs01162.o)
 .bss           0x00441bf8        0x0 C:/Program Files/ETAS/ISOLAR-EVE3.0/plugins/com.etas.evetools.toolsfolder_1.4.5/Tools/MinGW/bin/../lib/gcc/i686-w64-mingw32/4.9.2/../../../../i686-w64-mingw32/lib/../lib/libkernel32.a(dkxs01161.o)
 .bss           0x00441bf8        0x0 C:/Program Files/ETAS/ISOLAR-EVE3.0/plugins/com.etas.evetools.toolsfolder_1.4.5/Tools/MinGW/bin/../lib/gcc/i686-w64-mingw32/4.9.2/../../../../i686-w64-mingw32/lib/../lib/libkernel32.a(dkxs01160.o)
 .bss           0x00441bf8        0x0 C:/Program Files/ETAS/ISOLAR-EVE3.0/plugins/com.etas.evetools.toolsfolder_1.4.5/Tools/MinGW/bin/../lib/gcc/i686-w64-mingw32/4.9.2/../../../../i686-w64-mingw32/lib/../lib/libkernel32.a(dkxs01159.o)
 .bss           0x00441bf8        0x0 C:/Program Files/ETAS/ISOLAR-EVE3.0/plugins/com.etas.evetools.toolsfolder_1.4.5/Tools/MinGW/bin/../lib/gcc/i686-w64-mingw32/4.9.2/../../../../i686-w64-mingw32/lib/../lib/libkernel32.a(dkxs01154.o)
 .bss           0x00441bf8        0x0 C:/Program Files/ETAS/ISOLAR-EVE3.0/plugins/com.etas.evetools.toolsfolder_1.4.5/Tools/MinGW/bin/../lib/gcc/i686-w64-mingw32/4.9.2/../../../../i686-w64-mingw32/lib/../lib/libkernel32.a(dkxs01140.o)
 .bss           0x00441bf8        0x0 C:/Program Files/ETAS/ISOLAR-EVE3.0/plugins/com.etas.evetools.toolsfolder_1.4.5/Tools/MinGW/bin/../lib/gcc/i686-w64-mingw32/4.9.2/../../../../i686-w64-mingw32/lib/../lib/libkernel32.a(dkxs01127.o)
 .bss           0x00441bf8        0x0 C:/Program Files/ETAS/ISOLAR-EVE3.0/plugins/com.etas.evetools.toolsfolder_1.4.5/Tools/MinGW/bin/../lib/gcc/i686-w64-mingw32/4.9.2/../../../../i686-w64-mingw32/lib/../lib/libkernel32.a(dkxs01078.o)
 .bss           0x00441bf8        0x0 C:/Program Files/ETAS/ISOLAR-EVE3.0/plugins/com.etas.evetools.toolsfolder_1.4.5/Tools/MinGW/bin/../lib/gcc/i686-w64-mingw32/4.9.2/../../../../i686-w64-mingw32/lib/../lib/libkernel32.a(dkxs00962.o)
 .bss           0x00441bf8        0x0 C:/Program Files/ETAS/ISOLAR-EVE3.0/plugins/com.etas.evetools.toolsfolder_1.4.5/Tools/MinGW/bin/../lib/gcc/i686-w64-mingw32/4.9.2/../../../../i686-w64-mingw32/lib/../lib/libkernel32.a(dkxs00958.o)
 .bss           0x00441bf8        0x0 C:/Program Files/ETAS/ISOLAR-EVE3.0/plugins/com.etas.evetools.toolsfolder_1.4.5/Tools/MinGW/bin/../lib/gcc/i686-w64-mingw32/4.9.2/../../../../i686-w64-mingw32/lib/../lib/libkernel32.a(dkxs00916.o)
 .bss           0x00441bf8        0x0 C:/Program Files/ETAS/ISOLAR-EVE3.0/plugins/com.etas.evetools.toolsfolder_1.4.5/Tools/MinGW/bin/../lib/gcc/i686-w64-mingw32/4.9.2/../../../../i686-w64-mingw32/lib/../lib/libkernel32.a(dkxs00915.o)
 .bss           0x00441bf8        0x0 C:/Program Files/ETAS/ISOLAR-EVE3.0/plugins/com.etas.evetools.toolsfolder_1.4.5/Tools/MinGW/bin/../lib/gcc/i686-w64-mingw32/4.9.2/../../../../i686-w64-mingw32/lib/../lib/libkernel32.a(dkxs00836.o)
 .bss           0x00441bf8        0x0 C:/Program Files/ETAS/ISOLAR-EVE3.0/plugins/com.etas.evetools.toolsfolder_1.4.5/Tools/MinGW/bin/../lib/gcc/i686-w64-mingw32/4.9.2/../../../../i686-w64-mingw32/lib/../lib/libkernel32.a(dkxs00809.o)
 .bss           0x00441bf8        0x0 C:/Program Files/ETAS/ISOLAR-EVE3.0/plugins/com.etas.evetools.toolsfolder_1.4.5/Tools/MinGW/bin/../lib/gcc/i686-w64-mingw32/4.9.2/../../../../i686-w64-mingw32/lib/../lib/libkernel32.a(dkxs00806.o)
 .bss           0x00441bf8        0x0 C:/Program Files/ETAS/ISOLAR-EVE3.0/plugins/com.etas.evetools.toolsfolder_1.4.5/Tools/MinGW/bin/../lib/gcc/i686-w64-mingw32/4.9.2/../../../../i686-w64-mingw32/lib/../lib/libkernel32.a(dkxs00747.o)
 .bss           0x00441bf8        0x0 C:/Program Files/ETAS/ISOLAR-EVE3.0/plugins/com.etas.evetools.toolsfolder_1.4.5/Tools/MinGW/bin/../lib/gcc/i686-w64-mingw32/4.9.2/../../../../i686-w64-mingw32/lib/../lib/libkernel32.a(dkxs00663.o)
 .bss           0x00441bf8        0x0 C:/Program Files/ETAS/ISOLAR-EVE3.0/plugins/com.etas.evetools.toolsfolder_1.4.5/Tools/MinGW/bin/../lib/gcc/i686-w64-mingw32/4.9.2/../../../../i686-w64-mingw32/lib/../lib/libkernel32.a(dkxs00635.o)
 .bss           0x00441bf8        0x0 C:/Program Files/ETAS/ISOLAR-EVE3.0/plugins/com.etas.evetools.toolsfolder_1.4.5/Tools/MinGW/bin/../lib/gcc/i686-w64-mingw32/4.9.2/../../../../i686-w64-mingw32/lib/../lib/libkernel32.a(dkxs00612.o)
 .bss           0x00441bf8        0x0 C:/Program Files/ETAS/ISOLAR-EVE3.0/plugins/com.etas.evetools.toolsfolder_1.4.5/Tools/MinGW/bin/../lib/gcc/i686-w64-mingw32/4.9.2/../../../../i686-w64-mingw32/lib/../lib/libkernel32.a(dkxs00581.o)
 .bss           0x00441bf8        0x0 C:/Program Files/ETAS/ISOLAR-EVE3.0/plugins/com.etas.evetools.toolsfolder_1.4.5/Tools/MinGW/bin/../lib/gcc/i686-w64-mingw32/4.9.2/../../../../i686-w64-mingw32/lib/../lib/libkernel32.a(dkxs00533.o)
 .bss           0x00441bf8        0x0 C:/Program Files/ETAS/ISOLAR-EVE3.0/plugins/com.etas.evetools.toolsfolder_1.4.5/Tools/MinGW/bin/../lib/gcc/i686-w64-mingw32/4.9.2/../../../../i686-w64-mingw32/lib/../lib/libkernel32.a(dkxs00515.o)
 .bss           0x00441bf8        0x0 C:/Program Files/ETAS/ISOLAR-EVE3.0/plugins/com.etas.evetools.toolsfolder_1.4.5/Tools/MinGW/bin/../lib/gcc/i686-w64-mingw32/4.9.2/../../../../i686-w64-mingw32/lib/../lib/libkernel32.a(dkxs00479.o)
 .bss           0x00441bf8        0x0 C:/Program Files/ETAS/ISOLAR-EVE3.0/plugins/com.etas.evetools.toolsfolder_1.4.5/Tools/MinGW/bin/../lib/gcc/i686-w64-mingw32/4.9.2/../../../../i686-w64-mingw32/lib/../lib/libkernel32.a(dkxs00457.o)
 .bss           0x00441bf8        0x0 C:/Program Files/ETAS/ISOLAR-EVE3.0/plugins/com.etas.evetools.toolsfolder_1.4.5/Tools/MinGW/bin/../lib/gcc/i686-w64-mingw32/4.9.2/../../../../i686-w64-mingw32/lib/../lib/libkernel32.a(dkxs00453.o)
 .bss           0x00441bf8        0x0 C:/Program Files/ETAS/ISOLAR-EVE3.0/plugins/com.etas.evetools.toolsfolder_1.4.5/Tools/MinGW/bin/../lib/gcc/i686-w64-mingw32/4.9.2/../../../../i686-w64-mingw32/lib/../lib/libkernel32.a(dkxs00452.o)
 .bss           0x00441bf8        0x0 C:/Program Files/ETAS/ISOLAR-EVE3.0/plugins/com.etas.evetools.toolsfolder_1.4.5/Tools/MinGW/bin/../lib/gcc/i686-w64-mingw32/4.9.2/../../../../i686-w64-mingw32/lib/../lib/libkernel32.a(dkxs00356.o)
 .bss           0x00441bf8        0x0 C:/Program Files/ETAS/ISOLAR-EVE3.0/plugins/com.etas.evetools.toolsfolder_1.4.5/Tools/MinGW/bin/../lib/gcc/i686-w64-mingw32/4.9.2/../../../../i686-w64-mingw32/lib/../lib/libkernel32.a(dkxs00351.o)
 .bss           0x00441bf8        0x0 C:/Program Files/ETAS/ISOLAR-EVE3.0/plugins/com.etas.evetools.toolsfolder_1.4.5/Tools/MinGW/bin/../lib/gcc/i686-w64-mingw32/4.9.2/../../../../i686-w64-mingw32/lib/../lib/libkernel32.a(dkxs00283.o)
 .bss           0x00441bf8        0x0 C:/Program Files/ETAS/ISOLAR-EVE3.0/plugins/com.etas.evetools.toolsfolder_1.4.5/Tools/MinGW/bin/../lib/gcc/i686-w64-mingw32/4.9.2/../../../../i686-w64-mingw32/lib/../lib/libkernel32.a(dkxs00239.o)
 .bss           0x00441bf8        0x0 C:/Program Files/ETAS/ISOLAR-EVE3.0/plugins/com.etas.evetools.toolsfolder_1.4.5/Tools/MinGW/bin/../lib/gcc/i686-w64-mingw32/4.9.2/../../../../i686-w64-mingw32/lib/../lib/libkernel32.a(dkxs00212.o)
 .bss           0x00441bf8        0x0 C:/Program Files/ETAS/ISOLAR-EVE3.0/plugins/com.etas.evetools.toolsfolder_1.4.5/Tools/MinGW/bin/../lib/gcc/i686-w64-mingw32/4.9.2/../../../../i686-w64-mingw32/lib/../lib/libkernel32.a(dkxs00176.o)
 .bss           0x00441bf8        0x0 C:/Program Files/ETAS/ISOLAR-EVE3.0/plugins/com.etas.evetools.toolsfolder_1.4.5/Tools/MinGW/bin/../lib/gcc/i686-w64-mingw32/4.9.2/../../../../i686-w64-mingw32/lib/../lib/libkernel32.a(dkxs00173.o)
 .bss           0x00441bf8        0x0 C:/Program Files/ETAS/ISOLAR-EVE3.0/plugins/com.etas.evetools.toolsfolder_1.4.5/Tools/MinGW/bin/../lib/gcc/i686-w64-mingw32/4.9.2/../../../../i686-w64-mingw32/lib/../lib/libkernel32.a(dkxs00158.o)
 .bss           0x00441bf8        0x0 C:/Program Files/ETAS/ISOLAR-EVE3.0/plugins/com.etas.evetools.toolsfolder_1.4.5/Tools/MinGW/bin/../lib/gcc/i686-w64-mingw32/4.9.2/../../../../i686-w64-mingw32/lib/../lib/libkernel32.a(dkxs00140.o)
 .bss           0x00441bf8        0x0 C:/Program Files/ETAS/ISOLAR-EVE3.0/plugins/com.etas.evetools.toolsfolder_1.4.5/Tools/MinGW/bin/../lib/gcc/i686-w64-mingw32/4.9.2/../../../../i686-w64-mingw32/lib/../lib/libkernel32.a(dkxs00083.o)
 .bss           0x00441bf8        0x0 C:/Program Files/ETAS/ISOLAR-EVE3.0/plugins/com.etas.evetools.toolsfolder_1.4.5/Tools/MinGW/bin/../lib/gcc/i686-w64-mingw32/4.9.2/../../../../i686-w64-mingw32/lib/../lib/libkernel32.a(dkxh.o)
 .bss           0x00441bf8        0x0 C:/Program Files/ETAS/ISOLAR-EVE3.0/plugins/com.etas.evetools.toolsfolder_1.4.5/Tools/MinGW/bin/../lib/gcc/i686-w64-mingw32/4.9.2/../../../../i686-w64-mingw32/lib/../lib/libkernel32.a(dkxt.o)
 .bss           0x00441bf8        0x0 C:/Program Files/ETAS/ISOLAR-EVE3.0/plugins/com.etas.evetools.toolsfolder_1.4.5/Tools/MinGW/bin/../lib/gcc/i686-w64-mingw32/4.9.2/../../../../i686-w64-mingw32/lib/../lib/libmingw32.a(lib32_libmingw32_a-tlsmthread.o)
 .bss           0x00441bf8        0x0 C:/Program Files/ETAS/ISOLAR-EVE3.0/plugins/com.etas.evetools.toolsfolder_1.4.5/Tools/MinGW/bin/../lib/gcc/i686-w64-mingw32/4.9.2/crtend.o
 *(COMMON)
 COMMON         0x00441bf8        0x8 C:/Program Files/ETAS/ISOLAR-EVE3.0/plugins/com.etas.evetools.toolsfolder_1.4.5/Tools/MinGW/bin/../lib/gcc/i686-w64-mingw32/4.9.2/../../../../i686-w64-mingw32/lib/../lib/crt2.o
                0x00441bf8                __mingw_winmain_lpCmdLine
                0x00441bfc                __mingw_winmain_hInstance
 COMMON         0x00441c00        0x4 C:/Program Files/ETAS/ISOLAR-EVE3.0/plugins/com.etas.evetools.toolsfolder_1.4.5/Tools/MinGW/bin/../lib/gcc/i686-w64-mingw32/4.9.2/crtbegin.o
                0x00441c00                hmod_libgcc
 *fill*         0x00441c04       0x3c 
 COMMON         0x00441c40      0x4a4 Rte.o
                0x00441c40                VDP_SENSOR_TO_APP_1
                0x00441c44                Rte_Queue_CPT_SENSOR_SPEED_R_SPEED_FROM_ECU_ABS_AFS_OPER_ECU_TO_SENSOR_data
                0x00441c48                Rte_Var_TASK_ECU_ACTUATORWaitingEv
                0x00441c80                Rte_Queue_CPT_ECU_ABS_AFS_P_STEERINGALGLE_TO_SENSOR_STERRINGANGLE_OPER_ECU_TO_SENSOR_data
                0x00441cd0                VDP_SENSOR_TO_APP_2
                0x00441d00                Rte_Queue_CPT_ECU_ABS_AFS_P_SPEED_TO_SENSOR_SPEED_OPER_ECU_TO_SENSOR_data
                0x00441d80                Rte_Queue_CPT_ACT_HIGHBEAM_P_HIGBEAMMODE_TO_ECU_ABS_AFS_OPER_ACT_TO_ECU_data
                0x00441dd0                Rte_Queue_CPT_SENSOR_LIGHTMODE_R_LIGHTMODE_FROM_ECU_ABS_AFS_OPER_ECU_TO_SENSOR_data
                0x00441dd4                VDP_SENSOR_TO_APP_5
                0x00441e00                Rte_Queue_CPT_ECU_ABS_AFS_P_DISTANCE_TO_SENSOR_DISTANCE_OPER_ECU_TO_SENSOR_data
                0x00441e50                VDP_APP_TO_ACT
                0x00441e54                VDP_SENSOR_TO_APP_6
                0x00441e58                VDP_APP_TO_ACT_0
                0x00441e5c                VDP_SENSOR_TO_APP
                0x00441e80                Rte_Queue_CPT_ACT_LEFTRIGHT_MOTOR_P_LEFTRIGHTANGLE_TO_ECU_ABS_AFS_OPER_ACT_TO_ECU_data
                0x00441ed0                VDP_SENSOR_TO_APP_3
                0x00441ed4                Rte_Queue_CPT_ECU_ABS_AFS_R_LEFTRIGHTANGLE_FROM_ACT_LEFTRIGHT_MOTOR_OPER_ACT_TO_ECU_data
                0x00441ed8                CPT_ACT_LEFTRIGHT_MOTOR_IB_ACT_LEFTRIGHT_MOTOR_Explicit_VariableDataPrototype_0
                0x00441edc                Rte_Queue_CPT_SENSOR_LIGHT_R_LIGHT_FROM_ECU_ABS_AFS_OPER_ECU_TO_SENSOR_data
                0x00441ee0                Rte_Queue_CPT_SENSOR_DISTANCE_R_DISTANCE_FROM_ECU_ABS_AFS_OPER_ECU_TO_SENSOR_data
                0x00441ee4                VDP_SENSOR_TO_APP_0
                0x00441f00                Rte_Queue_CPT_ECU_ABS_AFS_P_LIGHTMODE_TO_SENSOR_LIGHTMODE_OPER_ECU_TO_SENSOR_data
                0x00441f50                Rte_Queue_CPT_SENSOR_STEERINGANGLE_R_STEERINGANGLE_FROM_ECU_ABS_AFS_OPER_ECU_TO_SENSOR_data
                0x00441f80                Rte_Queue_CPT_ECU_ABS_AFS_P_LIGHT_TO_SENSOR_LIGHT_OPER_ECU_TO_SENSOR_data
                0x00441fd0                CPT_ACT_UPDOWN_MOTOR_IB_ACT_UPDOWN_MOTOR_Explicit_VariableDataPrototype_0
                0x00441fd4                Rte_Queue_CPT_ECU_ABS_AFS_R_UPDOWNANGLE_FROM_ACT_UPDOWN_MOTOR_OPER_ACT_TO_ECU_data
                0x00442000                Rte_Queue_CPT_ACT_UPDOWN_MOTOR_P_UPDOWNANGLE_TO_ECU_ABS_AFS_OPER_ACT_TO_ECU_data
                0x00442050                VDP_SENSOR_TO_APP_4
                0x00442054                VDP_APP_TO_ACT_1
                0x00442080                Rte_Queue_CPT_ACT_LOWBEAM_P_LOWBEAMMODE_TO_ECU_ABS_AFS_OPER_ACT_TO_ECU_data
                0x004420d0                VDP_APP_TO_ACT_2
                0x004420d4                Rte_Queue_CPT_ECU_ABS_AFS_R_LOWBEAMMODE_FROM_ACT_LOWBEAM_OPER_ACT_TO_ECU_data
                0x004420d8                Rte_Queue_CPT_ECU_ABS_AFS_R_HIGHBEAMMODE_FROM_ACT_HIGHBEAM_OPER_ACT_TO_ECU_data
                0x004420dc                CPT_ACT_HIGHBEAM_IB_ACT_HIGHBEAM_Explicit_VariableDataPrototype_0
                0x004420e0                CPT_ACT_LOWBEAM_IB_ACT_LOWBEAM_Explicit_VariableDataPrototype_0
 COMMON         0x004420e4       0x2c Rte_APP_LOWBEAM.o
                0x004420e4                count
                0x004420e8                lightWindow
                0x004420fc                distanceWindow
 *fill*         0x00442110       0x30 
 COMMON         0x00442140      0x5f4 RTAOS.lib(Os_Cfg.o)
                0x00442140                Os_dyn_alarms
                0x004421a0                Os_RunningISR
                0x004421a4                Os_ReadyTasks
                0x004421a8                Os_dyn_fifocontrol
                0x004421c0                Os_WaitingTasks
                0x004421c4                Os_dyn_scheduletables
                0x00442200                Os_TaskFifo
                0x00442298                Os_dyn_isrs
                0x004422a4                Os_CurrentAppMode
                0x004422a8                Os_WaitSP
                0x004422c0                Os_dyn_ecc
                0x00442358                Os_IdleMeter
                0x00442360                Os_CurrentMeteredObject
                0x00442364                Os_OrtiApiID
                0x00442368                Os_ChainTaskRef
                0x0044236c                Os_dyn_counters
                0x00442374                Os_GetStackValueAdjust
                0x00442378                Os_dyn_resources
                0x00442388                Os_StackBase
                0x0044238c                Os_VCoreIsUntrusted
                0x00442390                Os_RunningTask
                0x00442394                Os_InShutdownHook
                0x00442395                Os_OrtiLastError
                0x004423c0                Os_dyn_tasks
                0x00442730                Os_RunningTPMask
 COMMON         0x00442734        0x8 RTAOS.lib(SuspendOSInterrupts.o)
                0x00442734                Os_SuspendOSCount
                0x00442738                Os_SuspendOSImask
 *fill*         0x0044273c        0x4 
 COMMON         0x00442740       0x4a RTAOS.lib(vrtaAppMain.o)
                0x00442740                Os_ICUForInterruptVector
                0x00442784                VRTA_DEBUG_DEFER_INTERRUPTS
                0x00442788                Os_ICUForCore
 *fill*         0x0044278a        0x2 
 COMMON         0x0044278c        0x8 C:/Program Files/ETAS/ISOLAR-EVE3.0/plugins/com.etas.evetools.toolsfolder_1.4.5/Tools/MinGW/bin/../lib/gcc/i686-w64-mingw32/4.9.2/../../../../i686-w64-mingw32/lib/../lib/libmingw32.a(lib32_libmingw32_a-atonexit.o)
                0x0044278c                __onexitend
                0x00442790                __onexitbegin
 COMMON         0x00442794        0x8 C:/Program Files/ETAS/ISOLAR-EVE3.0/plugins/com.etas.evetools.toolsfolder_1.4.5/Tools/MinGW/bin/../lib/gcc/i686-w64-mingw32/4.9.2/../../../../i686-w64-mingw32/lib/../lib/libmingw32.a(lib32_libmingw32_a-natstart.o)
                0x00442794                __native_startup_lock
                0x00442798                __native_startup_state
 COMMON         0x0044279c       0x10 C:/Program Files/ETAS/ISOLAR-EVE3.0/plugins/com.etas.evetools.toolsfolder_1.4.5/Tools/MinGW/bin/../lib/gcc/i686-w64-mingw32/4.9.2/libgcc.a(_ctors.o)
                0x004427ac                __bss_end__ = .

.edata
 *(.edata)

/DISCARD/
 *(.debug$S)
 *(.debug$T)
 *(.debug$F)
 *(.drectve)
 *(.note.GNU-stack)
 *(.gnu.lto_*)

.idata          0x00443000      0xa00
 SORT(*)(.idata$2)
 .idata$2       0x00443000       0x14 C:/Program Files/ETAS/ISOLAR-EVE3.0/plugins/com.etas.evetools.toolsfolder_1.4.5/Tools/MinGW/bin/../lib/gcc/i686-w64-mingw32/4.9.2/../../../../i686-w64-mingw32/lib/../lib/libkernel32.a(dkxh.o)
                0x00443000                _head_lib32_libkernel32_a
 .idata$2       0x00443014       0x14 C:/Program Files/ETAS/ISOLAR-EVE3.0/plugins/com.etas.evetools.toolsfolder_1.4.5/Tools/MinGW/bin/../lib/gcc/i686-w64-mingw32/4.9.2/../../../../i686-w64-mingw32/lib/../lib/libmsvcrt.a(dcpdh.o)
                0x00443014                _head_lib32_libmsvcrt_a
 .idata$2       0x00443028       0x14 C:/Program Files/ETAS/ISOLAR-EVE3.0/plugins/com.etas.evetools.toolsfolder_1.4.5/Tools/MinGW/bin/../lib/gcc/i686-w64-mingw32/4.9.2/../../../../i686-w64-mingw32/lib/../lib/libuser32.a(diqeh.o)
                0x00443028                _head_lib32_libuser32_a
 .idata$2       0x0044303c       0x14 C:/Program Files/ETAS/ISOLAR-EVE3.0/plugins/com.etas.evetools.toolsfolder_1.4.5/Tools/MinGW/bin/../lib/gcc/i686-w64-mingw32/4.9.2/../../../../i686-w64-mingw32/lib/../lib/libwinmm.a(dasfh.o)
                0x0044303c                _head_lib32_libwinmm_a
 SORT(*)(.idata$3)
                0x00443050        0x4 LONG 0x0
                0x00443054        0x4 LONG 0x0
                0x00443058        0x4 LONG 0x0
                0x0044305c        0x4 LONG 0x0
                0x00443060        0x4 LONG 0x0
 SORT(*)(.idata$4)
 .idata$4       0x00443064        0x0 C:/Program Files/ETAS/ISOLAR-EVE3.0/plugins/com.etas.evetools.toolsfolder_1.4.5/Tools/MinGW/bin/../lib/gcc/i686-w64-mingw32/4.9.2/../../../../i686-w64-mingw32/lib/../lib/libkernel32.a(dkxh.o)
 .idata$4       0x00443064        0x4 C:/Program Files/ETAS/ISOLAR-EVE3.0/plugins/com.etas.evetools.toolsfolder_1.4.5/Tools/MinGW/bin/../lib/gcc/i686-w64-mingw32/4.9.2/../../../../i686-w64-mingw32/lib/../lib/libkernel32.a(dkxs00083.o)
 .idata$4       0x00443068        0x4 C:/Program Files/ETAS/ISOLAR-EVE3.0/plugins/com.etas.evetools.toolsfolder_1.4.5/Tools/MinGW/bin/../lib/gcc/i686-w64-mingw32/4.9.2/../../../../i686-w64-mingw32/lib/../lib/libkernel32.a(dkxs00140.o)
 .idata$4       0x0044306c        0x4 C:/Program Files/ETAS/ISOLAR-EVE3.0/plugins/com.etas.evetools.toolsfolder_1.4.5/Tools/MinGW/bin/../lib/gcc/i686-w64-mingw32/4.9.2/../../../../i686-w64-mingw32/lib/../lib/libkernel32.a(dkxs00158.o)
 .idata$4       0x00443070        0x4 C:/Program Files/ETAS/ISOLAR-EVE3.0/plugins/com.etas.evetools.toolsfolder_1.4.5/Tools/MinGW/bin/../lib/gcc/i686-w64-mingw32/4.9.2/../../../../i686-w64-mingw32/lib/../lib/libkernel32.a(dkxs00173.o)
 .idata$4       0x00443074        0x4 C:/Program Files/ETAS/ISOLAR-EVE3.0/plugins/com.etas.evetools.toolsfolder_1.4.5/Tools/MinGW/bin/../lib/gcc/i686-w64-mingw32/4.9.2/../../../../i686-w64-mingw32/lib/../lib/libkernel32.a(dkxs00176.o)
 .idata$4       0x00443078        0x4 C:/Program Files/ETAS/ISOLAR-EVE3.0/plugins/com.etas.evetools.toolsfolder_1.4.5/Tools/MinGW/bin/../lib/gcc/i686-w64-mingw32/4.9.2/../../../../i686-w64-mingw32/lib/../lib/libkernel32.a(dkxs00212.o)
 .idata$4       0x0044307c        0x4 C:/Program Files/ETAS/ISOLAR-EVE3.0/plugins/com.etas.evetools.toolsfolder_1.4.5/Tools/MinGW/bin/../lib/gcc/i686-w64-mingw32/4.9.2/../../../../i686-w64-mingw32/lib/../lib/libkernel32.a(dkxs00239.o)
 .idata$4       0x00443080        0x4 C:/Program Files/ETAS/ISOLAR-EVE3.0/plugins/com.etas.evetools.toolsfolder_1.4.5/Tools/MinGW/bin/../lib/gcc/i686-w64-mingw32/4.9.2/../../../../i686-w64-mingw32/lib/../lib/libkernel32.a(dkxs00283.o)
 .idata$4       0x00443084        0x4 C:/Program Files/ETAS/ISOLAR-EVE3.0/plugins/com.etas.evetools.toolsfolder_1.4.5/Tools/MinGW/bin/../lib/gcc/i686-w64-mingw32/4.9.2/../../../../i686-w64-mingw32/lib/../lib/libkernel32.a(dkxs00351.o)
 .idata$4       0x00443088        0x4 C:/Program Files/ETAS/ISOLAR-EVE3.0/plugins/com.etas.evetools.toolsfolder_1.4.5/Tools/MinGW/bin/../lib/gcc/i686-w64-mingw32/4.9.2/../../../../i686-w64-mingw32/lib/../lib/libkernel32.a(dkxs00356.o)
 .idata$4       0x0044308c        0x4 C:/Program Files/ETAS/ISOLAR-EVE3.0/plugins/com.etas.evetools.toolsfolder_1.4.5/Tools/MinGW/bin/../lib/gcc/i686-w64-mingw32/4.9.2/../../../../i686-w64-mingw32/lib/../lib/libkernel32.a(dkxs00452.o)
 .idata$4       0x00443090        0x4 C:/Program Files/ETAS/ISOLAR-EVE3.0/plugins/com.etas.evetools.toolsfolder_1.4.5/Tools/MinGW/bin/../lib/gcc/i686-w64-mingw32/4.9.2/../../../../i686-w64-mingw32/lib/../lib/libkernel32.a(dkxs00453.o)
 .idata$4       0x00443094        0x4 C:/Program Files/ETAS/ISOLAR-EVE3.0/plugins/com.etas.evetools.toolsfolder_1.4.5/Tools/MinGW/bin/../lib/gcc/i686-w64-mingw32/4.9.2/../../../../i686-w64-mingw32/lib/../lib/libkernel32.a(dkxs00457.o)
 .idata$4       0x00443098        0x4 C:/Program Files/ETAS/ISOLAR-EVE3.0/plugins/com.etas.evetools.toolsfolder_1.4.5/Tools/MinGW/bin/../lib/gcc/i686-w64-mingw32/4.9.2/../../../../i686-w64-mingw32/lib/../lib/libkernel32.a(dkxs00479.o)
 .idata$4       0x0044309c        0x4 C:/Program Files/ETAS/ISOLAR-EVE3.0/plugins/com.etas.evetools.toolsfolder_1.4.5/Tools/MinGW/bin/../lib/gcc/i686-w64-mingw32/4.9.2/../../../../i686-w64-mingw32/lib/../lib/libkernel32.a(dkxs00515.o)
 .idata$4       0x004430a0        0x4 C:/Program Files/ETAS/ISOLAR-EVE3.0/plugins/com.etas.evetools.toolsfolder_1.4.5/Tools/MinGW/bin/../lib/gcc/i686-w64-mingw32/4.9.2/../../../../i686-w64-mingw32/lib/../lib/libkernel32.a(dkxs00533.o)
 .idata$4       0x004430a4        0x4 C:/Program Files/ETAS/ISOLAR-EVE3.0/plugins/com.etas.evetools.toolsfolder_1.4.5/Tools/MinGW/bin/../lib/gcc/i686-w64-mingw32/4.9.2/../../../../i686-w64-mingw32/lib/../lib/libkernel32.a(dkxs00581.o)
 .idata$4       0x004430a8        0x4 C:/Program Files/ETAS/ISOLAR-EVE3.0/plugins/com.etas.evetools.toolsfolder_1.4.5/Tools/MinGW/bin/../lib/gcc/i686-w64-mingw32/4.9.2/../../../../i686-w64-mingw32/lib/../lib/libkernel32.a(dkxs00612.o)
 .idata$4       0x004430ac        0x4 C:/Program Files/ETAS/ISOLAR-EVE3.0/plugins/com.etas.evetools.toolsfolder_1.4.5/Tools/MinGW/bin/../lib/gcc/i686-w64-mingw32/4.9.2/../../../../i686-w64-mingw32/lib/../lib/libkernel32.a(dkxs00635.o)
 .idata$4       0x004430b0        0x4 C:/Program Files/ETAS/ISOLAR-EVE3.0/plugins/com.etas.evetools.toolsfolder_1.4.5/Tools/MinGW/bin/../lib/gcc/i686-w64-mingw32/4.9.2/../../../../i686-w64-mingw32/lib/../lib/libkernel32.a(dkxs00663.o)
 .idata$4       0x004430b4        0x4 C:/Program Files/ETAS/ISOLAR-EVE3.0/plugins/com.etas.evetools.toolsfolder_1.4.5/Tools/MinGW/bin/../lib/gcc/i686-w64-mingw32/4.9.2/../../../../i686-w64-mingw32/lib/../lib/libkernel32.a(dkxs00747.o)
 .idata$4       0x004430b8        0x4 C:/Program Files/ETAS/ISOLAR-EVE3.0/plugins/com.etas.evetools.toolsfolder_1.4.5/Tools/MinGW/bin/../lib/gcc/i686-w64-mingw32/4.9.2/../../../../i686-w64-mingw32/lib/../lib/libkernel32.a(dkxs00806.o)
 .idata$4       0x004430bc        0x4 C:/Program Files/ETAS/ISOLAR-EVE3.0/plugins/com.etas.evetools.toolsfolder_1.4.5/Tools/MinGW/bin/../lib/gcc/i686-w64-mingw32/4.9.2/../../../../i686-w64-mingw32/lib/../lib/libkernel32.a(dkxs00809.o)
 .idata$4       0x004430c0        0x4 C:/Program Files/ETAS/ISOLAR-EVE3.0/plugins/com.etas.evetools.toolsfolder_1.4.5/Tools/MinGW/bin/../lib/gcc/i686-w64-mingw32/4.9.2/../../../../i686-w64-mingw32/lib/../lib/libkernel32.a(dkxs00836.o)
 .idata$4       0x004430c4        0x4 C:/Program Files/ETAS/ISOLAR-EVE3.0/plugins/com.etas.evetools.toolsfolder_1.4.5/Tools/MinGW/bin/../lib/gcc/i686-w64-mingw32/4.9.2/../../../../i686-w64-mingw32/lib/../lib/libkernel32.a(dkxs00915.o)
 .idata$4       0x004430c8        0x4 C:/Program Files/ETAS/ISOLAR-EVE3.0/plugins/com.etas.evetools.toolsfolder_1.4.5/Tools/MinGW/bin/../lib/gcc/i686-w64-mingw32/4.9.2/../../../../i686-w64-mingw32/lib/../lib/libkernel32.a(dkxs00916.o)
 .idata$4       0x004430cc        0x4 C:/Program Files/ETAS/ISOLAR-EVE3.0/plugins/com.etas.evetools.toolsfolder_1.4.5/Tools/MinGW/bin/../lib/gcc/i686-w64-mingw32/4.9.2/../../../../i686-w64-mingw32/lib/../lib/libkernel32.a(dkxs00958.o)
 .idata$4       0x004430d0        0x4 C:/Program Files/ETAS/ISOLAR-EVE3.0/plugins/com.etas.evetools.toolsfolder_1.4.5/Tools/MinGW/bin/../lib/gcc/i686-w64-mingw32/4.9.2/../../../../i686-w64-mingw32/lib/../lib/libkernel32.a(dkxs00962.o)
 .idata$4       0x004430d4        0x4 C:/Program Files/ETAS/ISOLAR-EVE3.0/plugins/com.etas.evetools.toolsfolder_1.4.5/Tools/MinGW/bin/../lib/gcc/i686-w64-mingw32/4.9.2/../../../../i686-w64-mingw32/lib/../lib/libkernel32.a(dkxs01078.o)
 .idata$4       0x004430d8        0x4 C:/Program Files/ETAS/ISOLAR-EVE3.0/plugins/com.etas.evetools.toolsfolder_1.4.5/Tools/MinGW/bin/../lib/gcc/i686-w64-mingw32/4.9.2/../../../../i686-w64-mingw32/lib/../lib/libkernel32.a(dkxs01127.o)
 .idata$4       0x004430dc        0x4 C:/Program Files/ETAS/ISOLAR-EVE3.0/plugins/com.etas.evetools.toolsfolder_1.4.5/Tools/MinGW/bin/../lib/gcc/i686-w64-mingw32/4.9.2/../../../../i686-w64-mingw32/lib/../lib/libkernel32.a(dkxs01140.o)
 .idata$4       0x004430e0        0x4 C:/Program Files/ETAS/ISOLAR-EVE3.0/plugins/com.etas.evetools.toolsfolder_1.4.5/Tools/MinGW/bin/../lib/gcc/i686-w64-mingw32/4.9.2/../../../../i686-w64-mingw32/lib/../lib/libkernel32.a(dkxs01154.o)
 .idata$4       0x004430e4        0x4 C:/Program Files/ETAS/ISOLAR-EVE3.0/plugins/com.etas.evetools.toolsfolder_1.4.5/Tools/MinGW/bin/../lib/gcc/i686-w64-mingw32/4.9.2/../../../../i686-w64-mingw32/lib/../lib/libkernel32.a(dkxs01159.o)
 .idata$4       0x004430e8        0x4 C:/Program Files/ETAS/ISOLAR-EVE3.0/plugins/com.etas.evetools.toolsfolder_1.4.5/Tools/MinGW/bin/../lib/gcc/i686-w64-mingw32/4.9.2/../../../../i686-w64-mingw32/lib/../lib/libkernel32.a(dkxs01160.o)
 .idata$4       0x004430ec        0x4 C:/Program Files/ETAS/ISOLAR-EVE3.0/plugins/com.etas.evetools.toolsfolder_1.4.5/Tools/MinGW/bin/../lib/gcc/i686-w64-mingw32/4.9.2/../../../../i686-w64-mingw32/lib/../lib/libkernel32.a(dkxs01161.o)
 .idata$4       0x004430f0        0x4 C:/Program Files/ETAS/ISOLAR-EVE3.0/plugins/com.etas.evetools.toolsfolder_1.4.5/Tools/MinGW/bin/../lib/gcc/i686-w64-mingw32/4.9.2/../../../../i686-w64-mingw32/lib/../lib/libkernel32.a(dkxs01162.o)
 .idata$4       0x004430f4        0x4 C:/Program Files/ETAS/ISOLAR-EVE3.0/plugins/com.etas.evetools.toolsfolder_1.4.5/Tools/MinGW/bin/../lib/gcc/i686-w64-mingw32/4.9.2/../../../../i686-w64-mingw32/lib/../lib/libkernel32.a(dkxs01174.o)
 .idata$4       0x004430f8        0x4 C:/Program Files/ETAS/ISOLAR-EVE3.0/plugins/com.etas.evetools.toolsfolder_1.4.5/Tools/MinGW/bin/../lib/gcc/i686-w64-mingw32/4.9.2/../../../../i686-w64-mingw32/lib/../lib/libkernel32.a(dkxs01206.o)
 .idata$4       0x004430fc        0x4 C:/Program Files/ETAS/ISOLAR-EVE3.0/plugins/com.etas.evetools.toolsfolder_1.4.5/Tools/MinGW/bin/../lib/gcc/i686-w64-mingw32/4.9.2/../../../../i686-w64-mingw32/lib/../lib/libkernel32.a(dkxs01209.o)
 .idata$4       0x00443100        0x4 C:/Program Files/ETAS/ISOLAR-EVE3.0/plugins/com.etas.evetools.toolsfolder_1.4.5/Tools/MinGW/bin/../lib/gcc/i686-w64-mingw32/4.9.2/../../../../i686-w64-mingw32/lib/../lib/libkernel32.a(dkxs01218.o)
 .idata$4       0x00443104        0x4 C:/Program Files/ETAS/ISOLAR-EVE3.0/plugins/com.etas.evetools.toolsfolder_1.4.5/Tools/MinGW/bin/../lib/gcc/i686-w64-mingw32/4.9.2/../../../../i686-w64-mingw32/lib/../lib/libkernel32.a(dkxt.o)
 .idata$4       0x00443108        0x0 C:/Program Files/ETAS/ISOLAR-EVE3.0/plugins/com.etas.evetools.toolsfolder_1.4.5/Tools/MinGW/bin/../lib/gcc/i686-w64-mingw32/4.9.2/../../../../i686-w64-mingw32/lib/../lib/libmsvcrt.a(dcpdh.o)
 .idata$4       0x00443108        0x4 C:/Program Files/ETAS/ISOLAR-EVE3.0/plugins/com.etas.evetools.toolsfolder_1.4.5/Tools/MinGW/bin/../lib/gcc/i686-w64-mingw32/4.9.2/../../../../i686-w64-mingw32/lib/../lib/libmsvcrt.a(dcpds00055.o)
 .idata$4       0x0044310c        0x4 C:/Program Files/ETAS/ISOLAR-EVE3.0/plugins/com.etas.evetools.toolsfolder_1.4.5/Tools/MinGW/bin/../lib/gcc/i686-w64-mingw32/4.9.2/../../../../i686-w64-mingw32/lib/../lib/libmsvcrt.a(dcpds00058.o)
 .idata$4       0x00443110        0x4 C:/Program Files/ETAS/ISOLAR-EVE3.0/plugins/com.etas.evetools.toolsfolder_1.4.5/Tools/MinGW/bin/../lib/gcc/i686-w64-mingw32/4.9.2/../../../../i686-w64-mingw32/lib/../lib/libmsvcrt.a(dcpds00059.o)
 .idata$4       0x00443114        0x4 C:/Program Files/ETAS/ISOLAR-EVE3.0/plugins/com.etas.evetools.toolsfolder_1.4.5/Tools/MinGW/bin/../lib/gcc/i686-w64-mingw32/4.9.2/../../../../i686-w64-mingw32/lib/../lib/libmsvcrt.a(dcpds00069.o)
 .idata$4       0x00443118        0x4 C:/Program Files/ETAS/ISOLAR-EVE3.0/plugins/com.etas.evetools.toolsfolder_1.4.5/Tools/MinGW/bin/../lib/gcc/i686-w64-mingw32/4.9.2/../../../../i686-w64-mingw32/lib/../lib/libmsvcrt.a(dcpds00105.o)
 .idata$4       0x0044311c        0x4 C:/Program Files/ETAS/ISOLAR-EVE3.0/plugins/com.etas.evetools.toolsfolder_1.4.5/Tools/MinGW/bin/../lib/gcc/i686-w64-mingw32/4.9.2/../../../../i686-w64-mingw32/lib/../lib/libmsvcrt.a(dcpds00108.o)
 .idata$4       0x00443120        0x4 C:/Program Files/ETAS/ISOLAR-EVE3.0/plugins/com.etas.evetools.toolsfolder_1.4.5/Tools/MinGW/bin/../lib/gcc/i686-w64-mingw32/4.9.2/../../../../i686-w64-mingw32/lib/../lib/libmsvcrt.a(dcpds00123.o)
 .idata$4       0x00443124        0x4 C:/Program Files/ETAS/ISOLAR-EVE3.0/plugins/com.etas.evetools.toolsfolder_1.4.5/Tools/MinGW/bin/../lib/gcc/i686-w64-mingw32/4.9.2/../../../../i686-w64-mingw32/lib/../lib/libmsvcrt.a(dcpds00145.o)
 .idata$4       0x00443128        0x4 C:/Program Files/ETAS/ISOLAR-EVE3.0/plugins/com.etas.evetools.toolsfolder_1.4.5/Tools/MinGW/bin/../lib/gcc/i686-w64-mingw32/4.9.2/../../../../i686-w64-mingw32/lib/../lib/libmsvcrt.a(dcpds00163.o)
 .idata$4       0x0044312c        0x4 C:/Program Files/ETAS/ISOLAR-EVE3.0/plugins/com.etas.evetools.toolsfolder_1.4.5/Tools/MinGW/bin/../lib/gcc/i686-w64-mingw32/4.9.2/../../../../i686-w64-mingw32/lib/../lib/libmsvcrt.a(dcpds00275.o)
 .idata$4       0x00443130        0x4 C:/Program Files/ETAS/ISOLAR-EVE3.0/plugins/com.etas.evetools.toolsfolder_1.4.5/Tools/MinGW/bin/../lib/gcc/i686-w64-mingw32/4.9.2/../../../../i686-w64-mingw32/lib/../lib/libmsvcrt.a(dcpds00350.o)
 .idata$4       0x00443134        0x4 C:/Program Files/ETAS/ISOLAR-EVE3.0/plugins/com.etas.evetools.toolsfolder_1.4.5/Tools/MinGW/bin/../lib/gcc/i686-w64-mingw32/4.9.2/../../../../i686-w64-mingw32/lib/../lib/libmsvcrt.a(dcpds00354.o)
 .idata$4       0x00443138        0x4 C:/Program Files/ETAS/ISOLAR-EVE3.0/plugins/com.etas.evetools.toolsfolder_1.4.5/Tools/MinGW/bin/../lib/gcc/i686-w64-mingw32/4.9.2/../../../../i686-w64-mingw32/lib/../lib/libmsvcrt.a(dcpds00460.o)
 .idata$4       0x0044313c        0x4 C:/Program Files/ETAS/ISOLAR-EVE3.0/plugins/com.etas.evetools.toolsfolder_1.4.5/Tools/MinGW/bin/../lib/gcc/i686-w64-mingw32/4.9.2/../../../../i686-w64-mingw32/lib/../lib/libmsvcrt.a(dcpds00627.o)
 .idata$4       0x00443140        0x4 C:/Program Files/ETAS/ISOLAR-EVE3.0/plugins/com.etas.evetools.toolsfolder_1.4.5/Tools/MinGW/bin/../lib/gcc/i686-w64-mingw32/4.9.2/../../../../i686-w64-mingw32/lib/../lib/libmsvcrt.a(dcpds00840.o)
 .idata$4       0x00443144        0x4 C:/Program Files/ETAS/ISOLAR-EVE3.0/plugins/com.etas.evetools.toolsfolder_1.4.5/Tools/MinGW/bin/../lib/gcc/i686-w64-mingw32/4.9.2/../../../../i686-w64-mingw32/lib/../lib/libmsvcrt.a(dcpds01013.o)
 .idata$4       0x00443148        0x4 C:/Program Files/ETAS/ISOLAR-EVE3.0/plugins/com.etas.evetools.toolsfolder_1.4.5/Tools/MinGW/bin/../lib/gcc/i686-w64-mingw32/4.9.2/../../../../i686-w64-mingw32/lib/../lib/libmsvcrt.a(dcpds01055.o)
 .idata$4       0x0044314c        0x4 C:/Program Files/ETAS/ISOLAR-EVE3.0/plugins/com.etas.evetools.toolsfolder_1.4.5/Tools/MinGW/bin/../lib/gcc/i686-w64-mingw32/4.9.2/../../../../i686-w64-mingw32/lib/../lib/libmsvcrt.a(dcpds01063.o)
 .idata$4       0x00443150        0x4 C:/Program Files/ETAS/ISOLAR-EVE3.0/plugins/com.etas.evetools.toolsfolder_1.4.5/Tools/MinGW/bin/../lib/gcc/i686-w64-mingw32/4.9.2/../../../../i686-w64-mingw32/lib/../lib/libmsvcrt.a(dcpds01067.o)
 .idata$4       0x00443154        0x4 C:/Program Files/ETAS/ISOLAR-EVE3.0/plugins/com.etas.evetools.toolsfolder_1.4.5/Tools/MinGW/bin/../lib/gcc/i686-w64-mingw32/4.9.2/../../../../i686-w64-mingw32/lib/../lib/libmsvcrt.a(dcpds01078.o)
 .idata$4       0x00443158        0x4 C:/Program Files/ETAS/ISOLAR-EVE3.0/plugins/com.etas.evetools.toolsfolder_1.4.5/Tools/MinGW/bin/../lib/gcc/i686-w64-mingw32/4.9.2/../../../../i686-w64-mingw32/lib/../lib/libmsvcrt.a(dcpds01081.o)
 .idata$4       0x0044315c        0x4 C:/Program Files/ETAS/ISOLAR-EVE3.0/plugins/com.etas.evetools.toolsfolder_1.4.5/Tools/MinGW/bin/../lib/gcc/i686-w64-mingw32/4.9.2/../../../../i686-w64-mingw32/lib/../lib/libmsvcrt.a(dcpds01092.o)
 .idata$4       0x00443160        0x4 C:/Program Files/ETAS/ISOLAR-EVE3.0/plugins/com.etas.evetools.toolsfolder_1.4.5/Tools/MinGW/bin/../lib/gcc/i686-w64-mingw32/4.9.2/../../../../i686-w64-mingw32/lib/../lib/libmsvcrt.a(dcpds01094.o)
 .idata$4       0x00443164        0x4 C:/Program Files/ETAS/ISOLAR-EVE3.0/plugins/com.etas.evetools.toolsfolder_1.4.5/Tools/MinGW/bin/../lib/gcc/i686-w64-mingw32/4.9.2/../../../../i686-w64-mingw32/lib/../lib/libmsvcrt.a(dcpds01096.o)
 .idata$4       0x00443168        0x4 C:/Program Files/ETAS/ISOLAR-EVE3.0/plugins/com.etas.evetools.toolsfolder_1.4.5/Tools/MinGW/bin/../lib/gcc/i686-w64-mingw32/4.9.2/../../../../i686-w64-mingw32/lib/../lib/libmsvcrt.a(dcpds01097.o)
 .idata$4       0x0044316c        0x4 C:/Program Files/ETAS/ISOLAR-EVE3.0/plugins/com.etas.evetools.toolsfolder_1.4.5/Tools/MinGW/bin/../lib/gcc/i686-w64-mingw32/4.9.2/../../../../i686-w64-mingw32/lib/../lib/libmsvcrt.a(dcpds01101.o)
 .idata$4       0x00443170        0x4 C:/Program Files/ETAS/ISOLAR-EVE3.0/plugins/com.etas.evetools.toolsfolder_1.4.5/Tools/MinGW/bin/../lib/gcc/i686-w64-mingw32/4.9.2/../../../../i686-w64-mingw32/lib/../lib/libmsvcrt.a(dcpds01112.o)
 .idata$4       0x00443174        0x4 C:/Program Files/ETAS/ISOLAR-EVE3.0/plugins/com.etas.evetools.toolsfolder_1.4.5/Tools/MinGW/bin/../lib/gcc/i686-w64-mingw32/4.9.2/../../../../i686-w64-mingw32/lib/../lib/libmsvcrt.a(dcpds01159.o)
 .idata$4       0x00443178        0x4 C:/Program Files/ETAS/ISOLAR-EVE3.0/plugins/com.etas.evetools.toolsfolder_1.4.5/Tools/MinGW/bin/../lib/gcc/i686-w64-mingw32/4.9.2/../../../../i686-w64-mingw32/lib/../lib/libmsvcrt.a(dcpds01165.o)
 .idata$4       0x0044317c        0x4 C:/Program Files/ETAS/ISOLAR-EVE3.0/plugins/com.etas.evetools.toolsfolder_1.4.5/Tools/MinGW/bin/../lib/gcc/i686-w64-mingw32/4.9.2/../../../../i686-w64-mingw32/lib/../lib/libmsvcrt.a(dcpds01167.o)
 .idata$4       0x00443180        0x4 C:/Program Files/ETAS/ISOLAR-EVE3.0/plugins/com.etas.evetools.toolsfolder_1.4.5/Tools/MinGW/bin/../lib/gcc/i686-w64-mingw32/4.9.2/../../../../i686-w64-mingw32/lib/../lib/libmsvcrt.a(dcpds01170.o)
 .idata$4       0x00443184        0x4 C:/Program Files/ETAS/ISOLAR-EVE3.0/plugins/com.etas.evetools.toolsfolder_1.4.5/Tools/MinGW/bin/../lib/gcc/i686-w64-mingw32/4.9.2/../../../../i686-w64-mingw32/lib/../lib/libmsvcrt.a(dcpds01186.o)
 .idata$4       0x00443188        0x4 C:/Program Files/ETAS/ISOLAR-EVE3.0/plugins/com.etas.evetools.toolsfolder_1.4.5/Tools/MinGW/bin/../lib/gcc/i686-w64-mingw32/4.9.2/../../../../i686-w64-mingw32/lib/../lib/libmsvcrt.a(dcpds01195.o)
 .idata$4       0x0044318c        0x4 C:/Program Files/ETAS/ISOLAR-EVE3.0/plugins/com.etas.evetools.toolsfolder_1.4.5/Tools/MinGW/bin/../lib/gcc/i686-w64-mingw32/4.9.2/../../../../i686-w64-mingw32/lib/../lib/libmsvcrt.a(dcpds01198.o)
 .idata$4       0x00443190        0x4 C:/Program Files/ETAS/ISOLAR-EVE3.0/plugins/com.etas.evetools.toolsfolder_1.4.5/Tools/MinGW/bin/../lib/gcc/i686-w64-mingw32/4.9.2/../../../../i686-w64-mingw32/lib/../lib/libmsvcrt.a(dcpds01203.o)
 .idata$4       0x00443194        0x4 C:/Program Files/ETAS/ISOLAR-EVE3.0/plugins/com.etas.evetools.toolsfolder_1.4.5/Tools/MinGW/bin/../lib/gcc/i686-w64-mingw32/4.9.2/../../../../i686-w64-mingw32/lib/../lib/libmsvcrt.a(dcpds01206.o)
 .idata$4       0x00443198        0x4 C:/Program Files/ETAS/ISOLAR-EVE3.0/plugins/com.etas.evetools.toolsfolder_1.4.5/Tools/MinGW/bin/../lib/gcc/i686-w64-mingw32/4.9.2/../../../../i686-w64-mingw32/lib/../lib/libmsvcrt.a(dcpds01208.o)
 .idata$4       0x0044319c        0x4 C:/Program Files/ETAS/ISOLAR-EVE3.0/plugins/com.etas.evetools.toolsfolder_1.4.5/Tools/MinGW/bin/../lib/gcc/i686-w64-mingw32/4.9.2/../../../../i686-w64-mingw32/lib/../lib/libmsvcrt.a(dcpds01213.o)
 .idata$4       0x004431a0        0x4 C:/Program Files/ETAS/ISOLAR-EVE3.0/plugins/com.etas.evetools.toolsfolder_1.4.5/Tools/MinGW/bin/../lib/gcc/i686-w64-mingw32/4.9.2/../../../../i686-w64-mingw32/lib/../lib/libmsvcrt.a(dcpds01216.o)
 .idata$4       0x004431a4        0x4 C:/Program Files/ETAS/ISOLAR-EVE3.0/plugins/com.etas.evetools.toolsfolder_1.4.5/Tools/MinGW/bin/../lib/gcc/i686-w64-mingw32/4.9.2/../../../../i686-w64-mingw32/lib/../lib/libmsvcrt.a(dcpds01217.o)
 .idata$4       0x004431a8        0x4 C:/Program Files/ETAS/ISOLAR-EVE3.0/plugins/com.etas.evetools.toolsfolder_1.4.5/Tools/MinGW/bin/../lib/gcc/i686-w64-mingw32/4.9.2/../../../../i686-w64-mingw32/lib/../lib/libmsvcrt.a(dcpds01249.o)
 .idata$4       0x004431ac        0x4 C:/Program Files/ETAS/ISOLAR-EVE3.0/plugins/com.etas.evetools.toolsfolder_1.4.5/Tools/MinGW/bin/../lib/gcc/i686-w64-mingw32/4.9.2/../../../../i686-w64-mingw32/lib/../lib/libmsvcrt.a(dcpds01256.o)
 .idata$4       0x004431b0        0x4 C:/Program Files/ETAS/ISOLAR-EVE3.0/plugins/com.etas.evetools.toolsfolder_1.4.5/Tools/MinGW/bin/../lib/gcc/i686-w64-mingw32/4.9.2/../../../../i686-w64-mingw32/lib/../lib/libmsvcrt.a(dcpdt.o)
 .idata$4       0x004431b4        0x0 C:/Program Files/ETAS/ISOLAR-EVE3.0/plugins/com.etas.evetools.toolsfolder_1.4.5/Tools/MinGW/bin/../lib/gcc/i686-w64-mingw32/4.9.2/../../../../i686-w64-mingw32/lib/../lib/libuser32.a(diqeh.o)
 .idata$4       0x004431b4        0x4 C:/Program Files/ETAS/ISOLAR-EVE3.0/plugins/com.etas.evetools.toolsfolder_1.4.5/Tools/MinGW/bin/../lib/gcc/i686-w64-mingw32/4.9.2/../../../../i686-w64-mingw32/lib/../lib/libuser32.a(diqes00588.o)
 .idata$4       0x004431b8        0x4 C:/Program Files/ETAS/ISOLAR-EVE3.0/plugins/com.etas.evetools.toolsfolder_1.4.5/Tools/MinGW/bin/../lib/gcc/i686-w64-mingw32/4.9.2/../../../../i686-w64-mingw32/lib/../lib/libuser32.a(diqet.o)
 .idata$4       0x004431bc        0x0 C:/Program Files/ETAS/ISOLAR-EVE3.0/plugins/com.etas.evetools.toolsfolder_1.4.5/Tools/MinGW/bin/../lib/gcc/i686-w64-mingw32/4.9.2/../../../../i686-w64-mingw32/lib/../lib/libwinmm.a(dasfh.o)
 .idata$4       0x004431bc        0x4 C:/Program Files/ETAS/ISOLAR-EVE3.0/plugins/com.etas.evetools.toolsfolder_1.4.5/Tools/MinGW/bin/../lib/gcc/i686-w64-mingw32/4.9.2/../../../../i686-w64-mingw32/lib/../lib/libwinmm.a(dasfs00144.o)
 .idata$4       0x004431c0        0x4 C:/Program Files/ETAS/ISOLAR-EVE3.0/plugins/com.etas.evetools.toolsfolder_1.4.5/Tools/MinGW/bin/../lib/gcc/i686-w64-mingw32/4.9.2/../../../../i686-w64-mingw32/lib/../lib/libwinmm.a(dasfs00149.o)
 .idata$4       0x004431c4        0x4 C:/Program Files/ETAS/ISOLAR-EVE3.0/plugins/com.etas.evetools.toolsfolder_1.4.5/Tools/MinGW/bin/../lib/gcc/i686-w64-mingw32/4.9.2/../../../../i686-w64-mingw32/lib/../lib/libwinmm.a(dasfs00150.o)
 .idata$4       0x004431c8        0x4 C:/Program Files/ETAS/ISOLAR-EVE3.0/plugins/com.etas.evetools.toolsfolder_1.4.5/Tools/MinGW/bin/../lib/gcc/i686-w64-mingw32/4.9.2/../../../../i686-w64-mingw32/lib/../lib/libwinmm.a(dasft.o)
                0x004431cc                __IAT_start__ = .
 SORT(*)(.idata$5)
 .idata$5       0x004431cc        0x0 C:/Program Files/ETAS/ISOLAR-EVE3.0/plugins/com.etas.evetools.toolsfolder_1.4.5/Tools/MinGW/bin/../lib/gcc/i686-w64-mingw32/4.9.2/../../../../i686-w64-mingw32/lib/../lib/libkernel32.a(dkxh.o)
 .idata$5       0x004431cc        0x4 C:/Program Files/ETAS/ISOLAR-EVE3.0/plugins/com.etas.evetools.toolsfolder_1.4.5/Tools/MinGW/bin/../lib/gcc/i686-w64-mingw32/4.9.2/../../../../i686-w64-mingw32/lib/../lib/libkernel32.a(dkxs00083.o)
                0x004431cc                _imp__CloseHandle@4
 .idata$5       0x004431d0        0x4 C:/Program Files/ETAS/ISOLAR-EVE3.0/plugins/com.etas.evetools.toolsfolder_1.4.5/Tools/MinGW/bin/../lib/gcc/i686-w64-mingw32/4.9.2/../../../../i686-w64-mingw32/lib/../lib/libkernel32.a(dkxs00140.o)
                0x004431d0                _imp__CreateFileMappingA@24
 .idata$5       0x004431d4        0x4 C:/Program Files/ETAS/ISOLAR-EVE3.0/plugins/com.etas.evetools.toolsfolder_1.4.5/Tools/MinGW/bin/../lib/gcc/i686-w64-mingw32/4.9.2/../../../../i686-w64-mingw32/lib/../lib/libkernel32.a(dkxs00158.o)
                0x004431d4                _imp__CreateMutexA@12
 .idata$5       0x004431d8        0x4 C:/Program Files/ETAS/ISOLAR-EVE3.0/plugins/com.etas.evetools.toolsfolder_1.4.5/Tools/MinGW/bin/../lib/gcc/i686-w64-mingw32/4.9.2/../../../../i686-w64-mingw32/lib/../lib/libkernel32.a(dkxs00173.o)
                0x004431d8                _imp__CreateSemaphoreA@16
 .idata$5       0x004431dc        0x4 C:/Program Files/ETAS/ISOLAR-EVE3.0/plugins/com.etas.evetools.toolsfolder_1.4.5/Tools/MinGW/bin/../lib/gcc/i686-w64-mingw32/4.9.2/../../../../i686-w64-mingw32/lib/../lib/libkernel32.a(dkxs00176.o)
                0x004431dc                _imp__CreateSemaphoreW@16
 .idata$5       0x004431e0        0x4 C:/Program Files/ETAS/ISOLAR-EVE3.0/plugins/com.etas.evetools.toolsfolder_1.4.5/Tools/MinGW/bin/../lib/gcc/i686-w64-mingw32/4.9.2/../../../../i686-w64-mingw32/lib/../lib/libkernel32.a(dkxs00212.o)
                0x004431e0                _imp__DeleteCriticalSection@4
 .idata$5       0x004431e4        0x4 C:/Program Files/ETAS/ISOLAR-EVE3.0/plugins/com.etas.evetools.toolsfolder_1.4.5/Tools/MinGW/bin/../lib/gcc/i686-w64-mingw32/4.9.2/../../../../i686-w64-mingw32/lib/../lib/libkernel32.a(dkxs00239.o)
                0x004431e4                _imp__EnterCriticalSection@4
 .idata$5       0x004431e8        0x4 C:/Program Files/ETAS/ISOLAR-EVE3.0/plugins/com.etas.evetools.toolsfolder_1.4.5/Tools/MinGW/bin/../lib/gcc/i686-w64-mingw32/4.9.2/../../../../i686-w64-mingw32/lib/../lib/libkernel32.a(dkxs00283.o)
                0x004431e8                _imp__ExitThread@4
 .idata$5       0x004431ec        0x4 C:/Program Files/ETAS/ISOLAR-EVE3.0/plugins/com.etas.evetools.toolsfolder_1.4.5/Tools/MinGW/bin/../lib/gcc/i686-w64-mingw32/4.9.2/../../../../i686-w64-mingw32/lib/../lib/libkernel32.a(dkxs00351.o)
                0x004431ec                _imp__FormatMessageA@28
 .idata$5       0x004431f0        0x4 C:/Program Files/ETAS/ISOLAR-EVE3.0/plugins/com.etas.evetools.toolsfolder_1.4.5/Tools/MinGW/bin/../lib/gcc/i686-w64-mingw32/4.9.2/../../../../i686-w64-mingw32/lib/../lib/libkernel32.a(dkxs00356.o)
                0x004431f0                _imp__FreeLibrary@4
 .idata$5       0x004431f4        0x4 C:/Program Files/ETAS/ISOLAR-EVE3.0/plugins/com.etas.evetools.toolsfolder_1.4.5/Tools/MinGW/bin/../lib/gcc/i686-w64-mingw32/4.9.2/../../../../i686-w64-mingw32/lib/../lib/libkernel32.a(dkxs00452.o)
                0x004431f4                _imp__GetCurrentProcess@0
 .idata$5       0x004431f8        0x4 C:/Program Files/ETAS/ISOLAR-EVE3.0/plugins/com.etas.evetools.toolsfolder_1.4.5/Tools/MinGW/bin/../lib/gcc/i686-w64-mingw32/4.9.2/../../../../i686-w64-mingw32/lib/../lib/libkernel32.a(dkxs00453.o)
                0x004431f8                _imp__GetCurrentProcessId@0
 .idata$5       0x004431fc        0x4 C:/Program Files/ETAS/ISOLAR-EVE3.0/plugins/com.etas.evetools.toolsfolder_1.4.5/Tools/MinGW/bin/../lib/gcc/i686-w64-mingw32/4.9.2/../../../../i686-w64-mingw32/lib/../lib/libkernel32.a(dkxs00457.o)
                0x004431fc                _imp__GetCurrentThreadId@0
 .idata$5       0x00443200        0x4 C:/Program Files/ETAS/ISOLAR-EVE3.0/plugins/com.etas.evetools.toolsfolder_1.4.5/Tools/MinGW/bin/../lib/gcc/i686-w64-mingw32/4.9.2/../../../../i686-w64-mingw32/lib/../lib/libkernel32.a(dkxs00479.o)
                0x00443200                _imp__GetEnvironmentVariableA@12
 .idata$5       0x00443204        0x4 C:/Program Files/ETAS/ISOLAR-EVE3.0/plugins/com.etas.evetools.toolsfolder_1.4.5/Tools/MinGW/bin/../lib/gcc/i686-w64-mingw32/4.9.2/../../../../i686-w64-mingw32/lib/../lib/libkernel32.a(dkxs00515.o)
                0x00443204                _imp__GetLastError@0
 .idata$5       0x00443208        0x4 C:/Program Files/ETAS/ISOLAR-EVE3.0/plugins/com.etas.evetools.toolsfolder_1.4.5/Tools/MinGW/bin/../lib/gcc/i686-w64-mingw32/4.9.2/../../../../i686-w64-mingw32/lib/../lib/libkernel32.a(dkxs00533.o)
                0x00443208                _imp__GetModuleHandleA@4
 .idata$5       0x0044320c        0x4 C:/Program Files/ETAS/ISOLAR-EVE3.0/plugins/com.etas.evetools.toolsfolder_1.4.5/Tools/MinGW/bin/../lib/gcc/i686-w64-mingw32/4.9.2/../../../../i686-w64-mingw32/lib/../lib/libkernel32.a(dkxs00581.o)
                0x0044320c                _imp__GetProcAddress@8
 .idata$5       0x00443210        0x4 C:/Program Files/ETAS/ISOLAR-EVE3.0/plugins/com.etas.evetools.toolsfolder_1.4.5/Tools/MinGW/bin/../lib/gcc/i686-w64-mingw32/4.9.2/../../../../i686-w64-mingw32/lib/../lib/libkernel32.a(dkxs00612.o)
                0x00443210                _imp__GetStartupInfoA@4
 .idata$5       0x00443214        0x4 C:/Program Files/ETAS/ISOLAR-EVE3.0/plugins/com.etas.evetools.toolsfolder_1.4.5/Tools/MinGW/bin/../lib/gcc/i686-w64-mingw32/4.9.2/../../../../i686-w64-mingw32/lib/../lib/libkernel32.a(dkxs00635.o)
                0x00443214                _imp__GetSystemTimeAsFileTime@4
 .idata$5       0x00443218        0x4 C:/Program Files/ETAS/ISOLAR-EVE3.0/plugins/com.etas.evetools.toolsfolder_1.4.5/Tools/MinGW/bin/../lib/gcc/i686-w64-mingw32/4.9.2/../../../../i686-w64-mingw32/lib/../lib/libkernel32.a(dkxs00663.o)
                0x00443218                _imp__GetTickCount@0
 .idata$5       0x0044321c        0x4 C:/Program Files/ETAS/ISOLAR-EVE3.0/plugins/com.etas.evetools.toolsfolder_1.4.5/Tools/MinGW/bin/../lib/gcc/i686-w64-mingw32/4.9.2/../../../../i686-w64-mingw32/lib/../lib/libkernel32.a(dkxs00747.o)
                0x0044321c                _imp__InitializeCriticalSection@4
 .idata$5       0x00443220        0x4 C:/Program Files/ETAS/ISOLAR-EVE3.0/plugins/com.etas.evetools.toolsfolder_1.4.5/Tools/MinGW/bin/../lib/gcc/i686-w64-mingw32/4.9.2/../../../../i686-w64-mingw32/lib/../lib/libkernel32.a(dkxs00806.o)
                0x00443220                _imp__LeaveCriticalSection@4
 .idata$5       0x00443224        0x4 C:/Program Files/ETAS/ISOLAR-EVE3.0/plugins/com.etas.evetools.toolsfolder_1.4.5/Tools/MinGW/bin/../lib/gcc/i686-w64-mingw32/4.9.2/../../../../i686-w64-mingw32/lib/../lib/libkernel32.a(dkxs00809.o)
                0x00443224                _imp__LoadLibraryA@4
 .idata$5       0x00443228        0x4 C:/Program Files/ETAS/ISOLAR-EVE3.0/plugins/com.etas.evetools.toolsfolder_1.4.5/Tools/MinGW/bin/../lib/gcc/i686-w64-mingw32/4.9.2/../../../../i686-w64-mingw32/lib/../lib/libkernel32.a(dkxs00836.o)
                0x00443228                _imp__MapViewOfFile@20
 .idata$5       0x0044322c        0x4 C:/Program Files/ETAS/ISOLAR-EVE3.0/plugins/com.etas.evetools.toolsfolder_1.4.5/Tools/MinGW/bin/../lib/gcc/i686-w64-mingw32/4.9.2/../../../../i686-w64-mingw32/lib/../lib/libkernel32.a(dkxs00915.o)
                0x0044322c                _imp__QueryPerformanceCounter@4
 .idata$5       0x00443230        0x4 C:/Program Files/ETAS/ISOLAR-EVE3.0/plugins/com.etas.evetools.toolsfolder_1.4.5/Tools/MinGW/bin/../lib/gcc/i686-w64-mingw32/4.9.2/../../../../i686-w64-mingw32/lib/../lib/libkernel32.a(dkxs00916.o)
                0x00443230                _imp__QueryPerformanceFrequency@4
 .idata$5       0x00443234        0x4 C:/Program Files/ETAS/ISOLAR-EVE3.0/plugins/com.etas.evetools.toolsfolder_1.4.5/Tools/MinGW/bin/../lib/gcc/i686-w64-mingw32/4.9.2/../../../../i686-w64-mingw32/lib/../lib/libkernel32.a(dkxs00958.o)
                0x00443234                _imp__ReleaseMutex@4
 .idata$5       0x00443238        0x4 C:/Program Files/ETAS/ISOLAR-EVE3.0/plugins/com.etas.evetools.toolsfolder_1.4.5/Tools/MinGW/bin/../lib/gcc/i686-w64-mingw32/4.9.2/../../../../i686-w64-mingw32/lib/../lib/libkernel32.a(dkxs00962.o)
                0x00443238                _imp__ReleaseSemaphore@12
 .idata$5       0x0044323c        0x4 C:/Program Files/ETAS/ISOLAR-EVE3.0/plugins/com.etas.evetools.toolsfolder_1.4.5/Tools/MinGW/bin/../lib/gcc/i686-w64-mingw32/4.9.2/../../../../i686-w64-mingw32/lib/../lib/libkernel32.a(dkxs01078.o)
                0x0044323c                _imp__SetLastError@4
 .idata$5       0x00443240        0x4 C:/Program Files/ETAS/ISOLAR-EVE3.0/plugins/com.etas.evetools.toolsfolder_1.4.5/Tools/MinGW/bin/../lib/gcc/i686-w64-mingw32/4.9.2/../../../../i686-w64-mingw32/lib/../lib/libkernel32.a(dkxs01127.o)
                0x00443240                _imp__SetUnhandledExceptionFilter@4
 .idata$5       0x00443244        0x4 C:/Program Files/ETAS/ISOLAR-EVE3.0/plugins/com.etas.evetools.toolsfolder_1.4.5/Tools/MinGW/bin/../lib/gcc/i686-w64-mingw32/4.9.2/../../../../i686-w64-mingw32/lib/../lib/libkernel32.a(dkxs01140.o)
                0x00443244                _imp__Sleep@4
 .idata$5       0x00443248        0x4 C:/Program Files/ETAS/ISOLAR-EVE3.0/plugins/com.etas.evetools.toolsfolder_1.4.5/Tools/MinGW/bin/../lib/gcc/i686-w64-mingw32/4.9.2/../../../../i686-w64-mingw32/lib/../lib/libkernel32.a(dkxs01154.o)
                0x00443248                _imp__TerminateProcess@8
 .idata$5       0x0044324c        0x4 C:/Program Files/ETAS/ISOLAR-EVE3.0/plugins/com.etas.evetools.toolsfolder_1.4.5/Tools/MinGW/bin/../lib/gcc/i686-w64-mingw32/4.9.2/../../../../i686-w64-mingw32/lib/../lib/libkernel32.a(dkxs01159.o)
                0x0044324c                _imp__TlsAlloc@0
 .idata$5       0x00443250        0x4 C:/Program Files/ETAS/ISOLAR-EVE3.0/plugins/com.etas.evetools.toolsfolder_1.4.5/Tools/MinGW/bin/../lib/gcc/i686-w64-mingw32/4.9.2/../../../../i686-w64-mingw32/lib/../lib/libkernel32.a(dkxs01160.o)
                0x00443250                _imp__TlsFree@4
 .idata$5       0x00443254        0x4 C:/Program Files/ETAS/ISOLAR-EVE3.0/plugins/com.etas.evetools.toolsfolder_1.4.5/Tools/MinGW/bin/../lib/gcc/i686-w64-mingw32/4.9.2/../../../../i686-w64-mingw32/lib/../lib/libkernel32.a(dkxs01161.o)
                0x00443254                _imp__TlsGetValue@4
 .idata$5       0x00443258        0x4 C:/Program Files/ETAS/ISOLAR-EVE3.0/plugins/com.etas.evetools.toolsfolder_1.4.5/Tools/MinGW/bin/../lib/gcc/i686-w64-mingw32/4.9.2/../../../../i686-w64-mingw32/lib/../lib/libkernel32.a(dkxs01162.o)
                0x00443258                _imp__TlsSetValue@8
 .idata$5       0x0044325c        0x4 C:/Program Files/ETAS/ISOLAR-EVE3.0/plugins/com.etas.evetools.toolsfolder_1.4.5/Tools/MinGW/bin/../lib/gcc/i686-w64-mingw32/4.9.2/../../../../i686-w64-mingw32/lib/../lib/libkernel32.a(dkxs01174.o)
                0x0044325c                _imp__UnhandledExceptionFilter@4
 .idata$5       0x00443260        0x4 C:/Program Files/ETAS/ISOLAR-EVE3.0/plugins/com.etas.evetools.toolsfolder_1.4.5/Tools/MinGW/bin/../lib/gcc/i686-w64-mingw32/4.9.2/../../../../i686-w64-mingw32/lib/../lib/libkernel32.a(dkxs01206.o)
                0x00443260                _imp__VirtualProtect@16
 .idata$5       0x00443264        0x4 C:/Program Files/ETAS/ISOLAR-EVE3.0/plugins/com.etas.evetools.toolsfolder_1.4.5/Tools/MinGW/bin/../lib/gcc/i686-w64-mingw32/4.9.2/../../../../i686-w64-mingw32/lib/../lib/libkernel32.a(dkxs01209.o)
                0x00443264                _imp__VirtualQuery@12
 .idata$5       0x00443268        0x4 C:/Program Files/ETAS/ISOLAR-EVE3.0/plugins/com.etas.evetools.toolsfolder_1.4.5/Tools/MinGW/bin/../lib/gcc/i686-w64-mingw32/4.9.2/../../../../i686-w64-mingw32/lib/../lib/libkernel32.a(dkxs01218.o)
                0x00443268                _imp__WaitForSingleObject@8
 .idata$5       0x0044326c        0x4 C:/Program Files/ETAS/ISOLAR-EVE3.0/plugins/com.etas.evetools.toolsfolder_1.4.5/Tools/MinGW/bin/../lib/gcc/i686-w64-mingw32/4.9.2/../../../../i686-w64-mingw32/lib/../lib/libkernel32.a(dkxt.o)
 .idata$5       0x00443270        0x0 C:/Program Files/ETAS/ISOLAR-EVE3.0/plugins/com.etas.evetools.toolsfolder_1.4.5/Tools/MinGW/bin/../lib/gcc/i686-w64-mingw32/4.9.2/../../../../i686-w64-mingw32/lib/../lib/libmsvcrt.a(dcpdh.o)
 .idata$5       0x00443270        0x4 C:/Program Files/ETAS/ISOLAR-EVE3.0/plugins/com.etas.evetools.toolsfolder_1.4.5/Tools/MinGW/bin/../lib/gcc/i686-w64-mingw32/4.9.2/../../../../i686-w64-mingw32/lib/../lib/libmsvcrt.a(dcpds00055.o)
                0x00443270                _imp____dllonexit
 .idata$5       0x00443274        0x4 C:/Program Files/ETAS/ISOLAR-EVE3.0/plugins/com.etas.evetools.toolsfolder_1.4.5/Tools/MinGW/bin/../lib/gcc/i686-w64-mingw32/4.9.2/../../../../i686-w64-mingw32/lib/../lib/libmsvcrt.a(dcpds00058.o)
                0x00443274                _imp____getmainargs
 .idata$5       0x00443278        0x4 C:/Program Files/ETAS/ISOLAR-EVE3.0/plugins/com.etas.evetools.toolsfolder_1.4.5/Tools/MinGW/bin/../lib/gcc/i686-w64-mingw32/4.9.2/../../../../i686-w64-mingw32/lib/../lib/libmsvcrt.a(dcpds00059.o)
                0x00443278                _imp____initenv
 .idata$5       0x0044327c        0x4 C:/Program Files/ETAS/ISOLAR-EVE3.0/plugins/com.etas.evetools.toolsfolder_1.4.5/Tools/MinGW/bin/../lib/gcc/i686-w64-mingw32/4.9.2/../../../../i686-w64-mingw32/lib/../lib/libmsvcrt.a(dcpds00069.o)
                0x0044327c                _imp____lconv_init
 .idata$5       0x00443280        0x4 C:/Program Files/ETAS/ISOLAR-EVE3.0/plugins/com.etas.evetools.toolsfolder_1.4.5/Tools/MinGW/bin/../lib/gcc/i686-w64-mingw32/4.9.2/../../../../i686-w64-mingw32/lib/../lib/libmsvcrt.a(dcpds00105.o)
                0x00443280                _imp____set_app_type
 .idata$5       0x00443284        0x4 C:/Program Files/ETAS/ISOLAR-EVE3.0/plugins/com.etas.evetools.toolsfolder_1.4.5/Tools/MinGW/bin/../lib/gcc/i686-w64-mingw32/4.9.2/../../../../i686-w64-mingw32/lib/../lib/libmsvcrt.a(dcpds00108.o)
                0x00443284                _imp____setusermatherr
 .idata$5       0x00443288        0x4 C:/Program Files/ETAS/ISOLAR-EVE3.0/plugins/com.etas.evetools.toolsfolder_1.4.5/Tools/MinGW/bin/../lib/gcc/i686-w64-mingw32/4.9.2/../../../../i686-w64-mingw32/lib/../lib/libmsvcrt.a(dcpds00123.o)
                0x00443288                _imp___acmdln
 .idata$5       0x0044328c        0x4 C:/Program Files/ETAS/ISOLAR-EVE3.0/plugins/com.etas.evetools.toolsfolder_1.4.5/Tools/MinGW/bin/../lib/gcc/i686-w64-mingw32/4.9.2/../../../../i686-w64-mingw32/lib/../lib/libmsvcrt.a(dcpds00145.o)
                0x0044328c                _imp___amsg_exit
 .idata$5       0x00443290        0x4 C:/Program Files/ETAS/ISOLAR-EVE3.0/plugins/com.etas.evetools.toolsfolder_1.4.5/Tools/MinGW/bin/../lib/gcc/i686-w64-mingw32/4.9.2/../../../../i686-w64-mingw32/lib/../lib/libmsvcrt.a(dcpds00163.o)
                0x00443290                _imp___cexit
 .idata$5       0x00443294        0x4 C:/Program Files/ETAS/ISOLAR-EVE3.0/plugins/com.etas.evetools.toolsfolder_1.4.5/Tools/MinGW/bin/../lib/gcc/i686-w64-mingw32/4.9.2/../../../../i686-w64-mingw32/lib/../lib/libmsvcrt.a(dcpds00275.o)
                0x00443294                _imp___fmode
 .idata$5       0x00443298        0x4 C:/Program Files/ETAS/ISOLAR-EVE3.0/plugins/com.etas.evetools.toolsfolder_1.4.5/Tools/MinGW/bin/../lib/gcc/i686-w64-mingw32/4.9.2/../../../../i686-w64-mingw32/lib/../lib/libmsvcrt.a(dcpds00350.o)
                0x00443298                _imp___initterm
 .idata$5       0x0044329c        0x4 C:/Program Files/ETAS/ISOLAR-EVE3.0/plugins/com.etas.evetools.toolsfolder_1.4.5/Tools/MinGW/bin/../lib/gcc/i686-w64-mingw32/4.9.2/../../../../i686-w64-mingw32/lib/../lib/libmsvcrt.a(dcpds00354.o)
                0x0044329c                _imp___iob
 .idata$5       0x004432a0        0x4 C:/Program Files/ETAS/ISOLAR-EVE3.0/plugins/com.etas.evetools.toolsfolder_1.4.5/Tools/MinGW/bin/../lib/gcc/i686-w64-mingw32/4.9.2/../../../../i686-w64-mingw32/lib/../lib/libmsvcrt.a(dcpds00460.o)
                0x004432a0                _imp___lock
 .idata$5       0x004432a4        0x4 C:/Program Files/ETAS/ISOLAR-EVE3.0/plugins/com.etas.evetools.toolsfolder_1.4.5/Tools/MinGW/bin/../lib/gcc/i686-w64-mingw32/4.9.2/../../../../i686-w64-mingw32/lib/../lib/libmsvcrt.a(dcpds00627.o)
                0x004432a4                _imp___onexit
 .idata$5       0x004432a8        0x4 C:/Program Files/ETAS/ISOLAR-EVE3.0/plugins/com.etas.evetools.toolsfolder_1.4.5/Tools/MinGW/bin/../lib/gcc/i686-w64-mingw32/4.9.2/../../../../i686-w64-mingw32/lib/../lib/libmsvcrt.a(dcpds00840.o)
                0x004432a8                _imp___unlock
 .idata$5       0x004432ac        0x4 C:/Program Files/ETAS/ISOLAR-EVE3.0/plugins/com.etas.evetools.toolsfolder_1.4.5/Tools/MinGW/bin/../lib/gcc/i686-w64-mingw32/4.9.2/../../../../i686-w64-mingw32/lib/../lib/libmsvcrt.a(dcpds01013.o)
                0x004432ac                _imp__write
 .idata$5       0x004432b0        0x4 C:/Program Files/ETAS/ISOLAR-EVE3.0/plugins/com.etas.evetools.toolsfolder_1.4.5/Tools/MinGW/bin/../lib/gcc/i686-w64-mingw32/4.9.2/../../../../i686-w64-mingw32/lib/../lib/libmsvcrt.a(dcpds01055.o)
                0x004432b0                _imp__abort
 .idata$5       0x004432b4        0x4 C:/Program Files/ETAS/ISOLAR-EVE3.0/plugins/com.etas.evetools.toolsfolder_1.4.5/Tools/MinGW/bin/../lib/gcc/i686-w64-mingw32/4.9.2/../../../../i686-w64-mingw32/lib/../lib/libmsvcrt.a(dcpds01063.o)
                0x004432b4                _imp__atoi
 .idata$5       0x004432b8        0x4 C:/Program Files/ETAS/ISOLAR-EVE3.0/plugins/com.etas.evetools.toolsfolder_1.4.5/Tools/MinGW/bin/../lib/gcc/i686-w64-mingw32/4.9.2/../../../../i686-w64-mingw32/lib/../lib/libmsvcrt.a(dcpds01067.o)
                0x004432b8                _imp__calloc
 .idata$5       0x004432bc        0x4 C:/Program Files/ETAS/ISOLAR-EVE3.0/plugins/com.etas.evetools.toolsfolder_1.4.5/Tools/MinGW/bin/../lib/gcc/i686-w64-mingw32/4.9.2/../../../../i686-w64-mingw32/lib/../lib/libmsvcrt.a(dcpds01078.o)
                0x004432bc                _imp__exit
 .idata$5       0x004432c0        0x4 C:/Program Files/ETAS/ISOLAR-EVE3.0/plugins/com.etas.evetools.toolsfolder_1.4.5/Tools/MinGW/bin/../lib/gcc/i686-w64-mingw32/4.9.2/../../../../i686-w64-mingw32/lib/../lib/libmsvcrt.a(dcpds01081.o)
                0x004432c0                _imp__fclose
 .idata$5       0x004432c4        0x4 C:/Program Files/ETAS/ISOLAR-EVE3.0/plugins/com.etas.evetools.toolsfolder_1.4.5/Tools/MinGW/bin/../lib/gcc/i686-w64-mingw32/4.9.2/../../../../i686-w64-mingw32/lib/../lib/libmsvcrt.a(dcpds01092.o)
                0x004432c4                _imp__fopen
 .idata$5       0x004432c8        0x4 C:/Program Files/ETAS/ISOLAR-EVE3.0/plugins/com.etas.evetools.toolsfolder_1.4.5/Tools/MinGW/bin/../lib/gcc/i686-w64-mingw32/4.9.2/../../../../i686-w64-mingw32/lib/../lib/libmsvcrt.a(dcpds01094.o)
                0x004432c8                _imp__fprintf
 .idata$5       0x004432cc        0x4 C:/Program Files/ETAS/ISOLAR-EVE3.0/plugins/com.etas.evetools.toolsfolder_1.4.5/Tools/MinGW/bin/../lib/gcc/i686-w64-mingw32/4.9.2/../../../../i686-w64-mingw32/lib/../lib/libmsvcrt.a(dcpds01096.o)
                0x004432cc                _imp__fputc
 .idata$5       0x004432d0        0x4 C:/Program Files/ETAS/ISOLAR-EVE3.0/plugins/com.etas.evetools.toolsfolder_1.4.5/Tools/MinGW/bin/../lib/gcc/i686-w64-mingw32/4.9.2/../../../../i686-w64-mingw32/lib/../lib/libmsvcrt.a(dcpds01097.o)
                0x004432d0                _imp__fputs
 .idata$5       0x004432d4        0x4 C:/Program Files/ETAS/ISOLAR-EVE3.0/plugins/com.etas.evetools.toolsfolder_1.4.5/Tools/MinGW/bin/../lib/gcc/i686-w64-mingw32/4.9.2/../../../../i686-w64-mingw32/lib/../lib/libmsvcrt.a(dcpds01101.o)
                0x004432d4                _imp__free
 .idata$5       0x004432d8        0x4 C:/Program Files/ETAS/ISOLAR-EVE3.0/plugins/com.etas.evetools.toolsfolder_1.4.5/Tools/MinGW/bin/../lib/gcc/i686-w64-mingw32/4.9.2/../../../../i686-w64-mingw32/lib/../lib/libmsvcrt.a(dcpds01112.o)
                0x004432d8                _imp__fwrite
 .idata$5       0x004432dc        0x4 C:/Program Files/ETAS/ISOLAR-EVE3.0/plugins/com.etas.evetools.toolsfolder_1.4.5/Tools/MinGW/bin/../lib/gcc/i686-w64-mingw32/4.9.2/../../../../i686-w64-mingw32/lib/../lib/libmsvcrt.a(dcpds01159.o)
                0x004432dc                _imp__malloc
 .idata$5       0x004432e0        0x4 C:/Program Files/ETAS/ISOLAR-EVE3.0/plugins/com.etas.evetools.toolsfolder_1.4.5/Tools/MinGW/bin/../lib/gcc/i686-w64-mingw32/4.9.2/../../../../i686-w64-mingw32/lib/../lib/libmsvcrt.a(dcpds01165.o)
                0x004432e0                _imp__memcmp
 .idata$5       0x004432e4        0x4 C:/Program Files/ETAS/ISOLAR-EVE3.0/plugins/com.etas.evetools.toolsfolder_1.4.5/Tools/MinGW/bin/../lib/gcc/i686-w64-mingw32/4.9.2/../../../../i686-w64-mingw32/lib/../lib/libmsvcrt.a(dcpds01167.o)
                0x004432e4                _imp__memset
 .idata$5       0x004432e8        0x4 C:/Program Files/ETAS/ISOLAR-EVE3.0/plugins/com.etas.evetools.toolsfolder_1.4.5/Tools/MinGW/bin/../lib/gcc/i686-w64-mingw32/4.9.2/../../../../i686-w64-mingw32/lib/../lib/libmsvcrt.a(dcpds01170.o)
                0x004432e8                _imp__memcpy
 .idata$5       0x004432ec        0x4 C:/Program Files/ETAS/ISOLAR-EVE3.0/plugins/com.etas.evetools.toolsfolder_1.4.5/Tools/MinGW/bin/../lib/gcc/i686-w64-mingw32/4.9.2/../../../../i686-w64-mingw32/lib/../lib/libmsvcrt.a(dcpds01186.o)
                0x004432ec                _imp__realloc
 .idata$5       0x004432f0        0x4 C:/Program Files/ETAS/ISOLAR-EVE3.0/plugins/com.etas.evetools.toolsfolder_1.4.5/Tools/MinGW/bin/../lib/gcc/i686-w64-mingw32/4.9.2/../../../../i686-w64-mingw32/lib/../lib/libmsvcrt.a(dcpds01195.o)
                0x004432f0                _imp__signal
 .idata$5       0x004432f4        0x4 C:/Program Files/ETAS/ISOLAR-EVE3.0/plugins/com.etas.evetools.toolsfolder_1.4.5/Tools/MinGW/bin/../lib/gcc/i686-w64-mingw32/4.9.2/../../../../i686-w64-mingw32/lib/../lib/libmsvcrt.a(dcpds01198.o)
                0x004432f4                _imp__sprintf
 .idata$5       0x004432f8        0x4 C:/Program Files/ETAS/ISOLAR-EVE3.0/plugins/com.etas.evetools.toolsfolder_1.4.5/Tools/MinGW/bin/../lib/gcc/i686-w64-mingw32/4.9.2/../../../../i686-w64-mingw32/lib/../lib/libmsvcrt.a(dcpds01203.o)
                0x004432f8                _imp__strcat
 .idata$5       0x004432fc        0x4 C:/Program Files/ETAS/ISOLAR-EVE3.0/plugins/com.etas.evetools.toolsfolder_1.4.5/Tools/MinGW/bin/../lib/gcc/i686-w64-mingw32/4.9.2/../../../../i686-w64-mingw32/lib/../lib/libmsvcrt.a(dcpds01206.o)
                0x004432fc                _imp__strcmp
 .idata$5       0x00443300        0x4 C:/Program Files/ETAS/ISOLAR-EVE3.0/plugins/com.etas.evetools.toolsfolder_1.4.5/Tools/MinGW/bin/../lib/gcc/i686-w64-mingw32/4.9.2/../../../../i686-w64-mingw32/lib/../lib/libmsvcrt.a(dcpds01208.o)
                0x00443300                _imp__strcpy
 .idata$5       0x00443304        0x4 C:/Program Files/ETAS/ISOLAR-EVE3.0/plugins/com.etas.evetools.toolsfolder_1.4.5/Tools/MinGW/bin/../lib/gcc/i686-w64-mingw32/4.9.2/../../../../i686-w64-mingw32/lib/../lib/libmsvcrt.a(dcpds01213.o)
                0x00443304                _imp__strlen
 .idata$5       0x00443308        0x4 C:/Program Files/ETAS/ISOLAR-EVE3.0/plugins/com.etas.evetools.toolsfolder_1.4.5/Tools/MinGW/bin/../lib/gcc/i686-w64-mingw32/4.9.2/../../../../i686-w64-mingw32/lib/../lib/libmsvcrt.a(dcpds01216.o)
                0x00443308                _imp__strncmp
 .idata$5       0x0044330c        0x4 C:/Program Files/ETAS/ISOLAR-EVE3.0/plugins/com.etas.evetools.toolsfolder_1.4.5/Tools/MinGW/bin/../lib/gcc/i686-w64-mingw32/4.9.2/../../../../i686-w64-mingw32/lib/../lib/libmsvcrt.a(dcpds01217.o)
                0x0044330c                _imp__strncpy
 .idata$5       0x00443310        0x4 C:/Program Files/ETAS/ISOLAR-EVE3.0/plugins/com.etas.evetools.toolsfolder_1.4.5/Tools/MinGW/bin/../lib/gcc/i686-w64-mingw32/4.9.2/../../../../i686-w64-mingw32/lib/../lib/libmsvcrt.a(dcpds01249.o)
                0x00443310                _imp__vfprintf
 .idata$5       0x00443314        0x4 C:/Program Files/ETAS/ISOLAR-EVE3.0/plugins/com.etas.evetools.toolsfolder_1.4.5/Tools/MinGW/bin/../lib/gcc/i686-w64-mingw32/4.9.2/../../../../i686-w64-mingw32/lib/../lib/libmsvcrt.a(dcpds01256.o)
                0x00443314                _imp__vsprintf
 .idata$5       0x00443318        0x4 C:/Program Files/ETAS/ISOLAR-EVE3.0/plugins/com.etas.evetools.toolsfolder_1.4.5/Tools/MinGW/bin/../lib/gcc/i686-w64-mingw32/4.9.2/../../../../i686-w64-mingw32/lib/../lib/libmsvcrt.a(dcpdt.o)
 .idata$5       0x0044331c        0x0 C:/Program Files/ETAS/ISOLAR-EVE3.0/plugins/com.etas.evetools.toolsfolder_1.4.5/Tools/MinGW/bin/../lib/gcc/i686-w64-mingw32/4.9.2/../../../../i686-w64-mingw32/lib/../lib/libuser32.a(diqeh.o)
 .idata$5       0x0044331c        0x4 C:/Program Files/ETAS/ISOLAR-EVE3.0/plugins/com.etas.evetools.toolsfolder_1.4.5/Tools/MinGW/bin/../lib/gcc/i686-w64-mingw32/4.9.2/../../../../i686-w64-mingw32/lib/../lib/libuser32.a(diqes00588.o)
                0x0044331c                _imp__MessageBoxA@16
 .idata$5       0x00443320        0x4 C:/Program Files/ETAS/ISOLAR-EVE3.0/plugins/com.etas.evetools.toolsfolder_1.4.5/Tools/MinGW/bin/../lib/gcc/i686-w64-mingw32/4.9.2/../../../../i686-w64-mingw32/lib/../lib/libuser32.a(diqet.o)
 .idata$5       0x00443324        0x0 C:/Program Files/ETAS/ISOLAR-EVE3.0/plugins/com.etas.evetools.toolsfolder_1.4.5/Tools/MinGW/bin/../lib/gcc/i686-w64-mingw32/4.9.2/../../../../i686-w64-mingw32/lib/../lib/libwinmm.a(dasfh.o)
 .idata$5       0x00443324        0x4 C:/Program Files/ETAS/ISOLAR-EVE3.0/plugins/com.etas.evetools.toolsfolder_1.4.5/Tools/MinGW/bin/../lib/gcc/i686-w64-mingw32/4.9.2/../../../../i686-w64-mingw32/lib/../lib/libwinmm.a(dasfs00144.o)
                0x00443324                _imp__timeBeginPeriod@4
 .idata$5       0x00443328        0x4 C:/Program Files/ETAS/ISOLAR-EVE3.0/plugins/com.etas.evetools.toolsfolder_1.4.5/Tools/MinGW/bin/../lib/gcc/i686-w64-mingw32/4.9.2/../../../../i686-w64-mingw32/lib/../lib/libwinmm.a(dasfs00149.o)
                0x00443328                _imp__timeKillEvent@4
 .idata$5       0x0044332c        0x4 C:/Program Files/ETAS/ISOLAR-EVE3.0/plugins/com.etas.evetools.toolsfolder_1.4.5/Tools/MinGW/bin/../lib/gcc/i686-w64-mingw32/4.9.2/../../../../i686-w64-mingw32/lib/../lib/libwinmm.a(dasfs00150.o)
                0x0044332c                _imp__timeSetEvent@20
 .idata$5       0x00443330        0x4 C:/Program Files/ETAS/ISOLAR-EVE3.0/plugins/com.etas.evetools.toolsfolder_1.4.5/Tools/MinGW/bin/../lib/gcc/i686-w64-mingw32/4.9.2/../../../../i686-w64-mingw32/lib/../lib/libwinmm.a(dasft.o)
                0x00443334                __IAT_end__ = .
 SORT(*)(.idata$6)
 .idata$6       0x00443334        0xe C:/Program Files/ETAS/ISOLAR-EVE3.0/plugins/com.etas.evetools.toolsfolder_1.4.5/Tools/MinGW/bin/../lib/gcc/i686-w64-mingw32/4.9.2/../../../../i686-w64-mingw32/lib/../lib/libkernel32.a(dkxs00083.o)
 .idata$6       0x00443342       0x16 C:/Program Files/ETAS/ISOLAR-EVE3.0/plugins/com.etas.evetools.toolsfolder_1.4.5/Tools/MinGW/bin/../lib/gcc/i686-w64-mingw32/4.9.2/../../../../i686-w64-mingw32/lib/../lib/libkernel32.a(dkxs00140.o)
 .idata$6       0x00443358       0x10 C:/Program Files/ETAS/ISOLAR-EVE3.0/plugins/com.etas.evetools.toolsfolder_1.4.5/Tools/MinGW/bin/../lib/gcc/i686-w64-mingw32/4.9.2/../../../../i686-w64-mingw32/lib/../lib/libkernel32.a(dkxs00158.o)
 .idata$6       0x00443368       0x14 C:/Program Files/ETAS/ISOLAR-EVE3.0/plugins/com.etas.evetools.toolsfolder_1.4.5/Tools/MinGW/bin/../lib/gcc/i686-w64-mingw32/4.9.2/../../../../i686-w64-mingw32/lib/../lib/libkernel32.a(dkxs00173.o)
 .idata$6       0x0044337c       0x14 C:/Program Files/ETAS/ISOLAR-EVE3.0/plugins/com.etas.evetools.toolsfolder_1.4.5/Tools/MinGW/bin/../lib/gcc/i686-w64-mingw32/4.9.2/../../../../i686-w64-mingw32/lib/../lib/libkernel32.a(dkxs00176.o)
 .idata$6       0x00443390       0x18 C:/Program Files/ETAS/ISOLAR-EVE3.0/plugins/com.etas.evetools.toolsfolder_1.4.5/Tools/MinGW/bin/../lib/gcc/i686-w64-mingw32/4.9.2/../../../../i686-w64-mingw32/lib/../lib/libkernel32.a(dkxs00212.o)
 .idata$6       0x004433a8       0x18 C:/Program Files/ETAS/ISOLAR-EVE3.0/plugins/com.etas.evetools.toolsfolder_1.4.5/Tools/MinGW/bin/../lib/gcc/i686-w64-mingw32/4.9.2/../../../../i686-w64-mingw32/lib/../lib/libkernel32.a(dkxs00239.o)
 .idata$6       0x004433c0        0xe C:/Program Files/ETAS/ISOLAR-EVE3.0/plugins/com.etas.evetools.toolsfolder_1.4.5/Tools/MinGW/bin/../lib/gcc/i686-w64-mingw32/4.9.2/../../../../i686-w64-mingw32/lib/../lib/libkernel32.a(dkxs00283.o)
 .idata$6       0x004433ce       0x12 C:/Program Files/ETAS/ISOLAR-EVE3.0/plugins/com.etas.evetools.toolsfolder_1.4.5/Tools/MinGW/bin/../lib/gcc/i686-w64-mingw32/4.9.2/../../../../i686-w64-mingw32/lib/../lib/libkernel32.a(dkxs00351.o)
 .idata$6       0x004433e0        0xe C:/Program Files/ETAS/ISOLAR-EVE3.0/plugins/com.etas.evetools.toolsfolder_1.4.5/Tools/MinGW/bin/../lib/gcc/i686-w64-mingw32/4.9.2/../../../../i686-w64-mingw32/lib/../lib/libkernel32.a(dkxs00356.o)
 .idata$6       0x004433ee       0x14 C:/Program Files/ETAS/ISOLAR-EVE3.0/plugins/com.etas.evetools.toolsfolder_1.4.5/Tools/MinGW/bin/../lib/gcc/i686-w64-mingw32/4.9.2/../../../../i686-w64-mingw32/lib/../lib/libkernel32.a(dkxs00452.o)
 .idata$6       0x00443402       0x16 C:/Program Files/ETAS/ISOLAR-EVE3.0/plugins/com.etas.evetools.toolsfolder_1.4.5/Tools/MinGW/bin/../lib/gcc/i686-w64-mingw32/4.9.2/../../../../i686-w64-mingw32/lib/../lib/libkernel32.a(dkxs00453.o)
 .idata$6       0x00443418       0x16 C:/Program Files/ETAS/ISOLAR-EVE3.0/plugins/com.etas.evetools.toolsfolder_1.4.5/Tools/MinGW/bin/../lib/gcc/i686-w64-mingw32/4.9.2/../../../../i686-w64-mingw32/lib/../lib/libkernel32.a(dkxs00457.o)
 .idata$6       0x0044342e       0x1a C:/Program Files/ETAS/ISOLAR-EVE3.0/plugins/com.etas.evetools.toolsfolder_1.4.5/Tools/MinGW/bin/../lib/gcc/i686-w64-mingw32/4.9.2/../../../../i686-w64-mingw32/lib/../lib/libkernel32.a(dkxs00479.o)
 .idata$6       0x00443448       0x10 C:/Program Files/ETAS/ISOLAR-EVE3.0/plugins/com.etas.evetools.toolsfolder_1.4.5/Tools/MinGW/bin/../lib/gcc/i686-w64-mingw32/4.9.2/../../../../i686-w64-mingw32/lib/../lib/libkernel32.a(dkxs00515.o)
 .idata$6       0x00443458       0x14 C:/Program Files/ETAS/ISOLAR-EVE3.0/plugins/com.etas.evetools.toolsfolder_1.4.5/Tools/MinGW/bin/../lib/gcc/i686-w64-mingw32/4.9.2/../../../../i686-w64-mingw32/lib/../lib/libkernel32.a(dkxs00533.o)
 .idata$6       0x0044346c       0x12 C:/Program Files/ETAS/ISOLAR-EVE3.0/plugins/com.etas.evetools.toolsfolder_1.4.5/Tools/MinGW/bin/../lib/gcc/i686-w64-mingw32/4.9.2/../../../../i686-w64-mingw32/lib/../lib/libkernel32.a(dkxs00581.o)
 .idata$6       0x0044347e       0x12 C:/Program Files/ETAS/ISOLAR-EVE3.0/plugins/com.etas.evetools.toolsfolder_1.4.5/Tools/MinGW/bin/../lib/gcc/i686-w64-mingw32/4.9.2/../../../../i686-w64-mingw32/lib/../lib/libkernel32.a(dkxs00612.o)
 .idata$6       0x00443490       0x1a C:/Program Files/ETAS/ISOLAR-EVE3.0/plugins/com.etas.evetools.toolsfolder_1.4.5/Tools/MinGW/bin/../lib/gcc/i686-w64-mingw32/4.9.2/../../../../i686-w64-mingw32/lib/../lib/libkernel32.a(dkxs00635.o)
 .idata$6       0x004434aa       0x10 C:/Program Files/ETAS/ISOLAR-EVE3.0/plugins/com.etas.evetools.toolsfolder_1.4.5/Tools/MinGW/bin/../lib/gcc/i686-w64-mingw32/4.9.2/../../../../i686-w64-mingw32/lib/../lib/libkernel32.a(dkxs00663.o)
 .idata$6       0x004434ba       0x1c C:/Program Files/ETAS/ISOLAR-EVE3.0/plugins/com.etas.evetools.toolsfolder_1.4.5/Tools/MinGW/bin/../lib/gcc/i686-w64-mingw32/4.9.2/../../../../i686-w64-mingw32/lib/../lib/libkernel32.a(dkxs00747.o)
 .idata$6       0x004434d6       0x18 C:/Program Files/ETAS/ISOLAR-EVE3.0/plugins/com.etas.evetools.toolsfolder_1.4.5/Tools/MinGW/bin/../lib/gcc/i686-w64-mingw32/4.9.2/../../../../i686-w64-mingw32/lib/../lib/libkernel32.a(dkxs00806.o)
 .idata$6       0x004434ee       0x10 C:/Program Files/ETAS/ISOLAR-EVE3.0/plugins/com.etas.evetools.toolsfolder_1.4.5/Tools/MinGW/bin/../lib/gcc/i686-w64-mingw32/4.9.2/../../../../i686-w64-mingw32/lib/../lib/libkernel32.a(dkxs00809.o)
 .idata$6       0x004434fe       0x10 C:/Program Files/ETAS/ISOLAR-EVE3.0/plugins/com.etas.evetools.toolsfolder_1.4.5/Tools/MinGW/bin/../lib/gcc/i686-w64-mingw32/4.9.2/../../../../i686-w64-mingw32/lib/../lib/libkernel32.a(dkxs00836.o)
 .idata$6       0x0044350e       0x1a C:/Program Files/ETAS/ISOLAR-EVE3.0/plugins/com.etas.evetools.toolsfolder_1.4.5/Tools/MinGW/bin/../lib/gcc/i686-w64-mingw32/4.9.2/../../../../i686-w64-mingw32/lib/../lib/libkernel32.a(dkxs00915.o)
 .idata$6       0x00443528       0x1c C:/Program Files/ETAS/ISOLAR-EVE3.0/plugins/com.etas.evetools.toolsfolder_1.4.5/Tools/MinGW/bin/../lib/gcc/i686-w64-mingw32/4.9.2/../../../../i686-w64-mingw32/lib/../lib/libkernel32.a(dkxs00916.o)
 .idata$6       0x00443544       0x10 C:/Program Files/ETAS/ISOLAR-EVE3.0/plugins/com.etas.evetools.toolsfolder_1.4.5/Tools/MinGW/bin/../lib/gcc/i686-w64-mingw32/4.9.2/../../../../i686-w64-mingw32/lib/../lib/libkernel32.a(dkxs00958.o)
 .idata$6       0x00443554       0x14 C:/Program Files/ETAS/ISOLAR-EVE3.0/plugins/com.etas.evetools.toolsfolder_1.4.5/Tools/MinGW/bin/../lib/gcc/i686-w64-mingw32/4.9.2/../../../../i686-w64-mingw32/lib/../lib/libkernel32.a(dkxs00962.o)
 .idata$6       0x00443568       0x10 C:/Program Files/ETAS/ISOLAR-EVE3.0/plugins/com.etas.evetools.toolsfolder_1.4.5/Tools/MinGW/bin/../lib/gcc/i686-w64-mingw32/4.9.2/../../../../i686-w64-mingw32/lib/../lib/libkernel32.a(dkxs01078.o)
 .idata$6       0x00443578       0x1e C:/Program Files/ETAS/ISOLAR-EVE3.0/plugins/com.etas.evetools.toolsfolder_1.4.5/Tools/MinGW/bin/../lib/gcc/i686-w64-mingw32/4.9.2/../../../../i686-w64-mingw32/lib/../lib/libkernel32.a(dkxs01127.o)
 .idata$6       0x00443596        0x8 C:/Program Files/ETAS/ISOLAR-EVE3.0/plugins/com.etas.evetools.toolsfolder_1.4.5/Tools/MinGW/bin/../lib/gcc/i686-w64-mingw32/4.9.2/../../../../i686-w64-mingw32/lib/../lib/libkernel32.a(dkxs01140.o)
 .idata$6       0x0044359e       0x14 C:/Program Files/ETAS/ISOLAR-EVE3.0/plugins/com.etas.evetools.toolsfolder_1.4.5/Tools/MinGW/bin/../lib/gcc/i686-w64-mingw32/4.9.2/../../../../i686-w64-mingw32/lib/../lib/libkernel32.a(dkxs01154.o)
 .idata$6       0x004435b2        0xc C:/Program Files/ETAS/ISOLAR-EVE3.0/plugins/com.etas.evetools.toolsfolder_1.4.5/Tools/MinGW/bin/../lib/gcc/i686-w64-mingw32/4.9.2/../../../../i686-w64-mingw32/lib/../lib/libkernel32.a(dkxs01159.o)
 .idata$6       0x004435be        0xa C:/Program Files/ETAS/ISOLAR-EVE3.0/plugins/com.etas.evetools.toolsfolder_1.4.5/Tools/MinGW/bin/../lib/gcc/i686-w64-mingw32/4.9.2/../../../../i686-w64-mingw32/lib/../lib/libkernel32.a(dkxs01160.o)
 .idata$6       0x004435c8        0xe C:/Program Files/ETAS/ISOLAR-EVE3.0/plugins/com.etas.evetools.toolsfolder_1.4.5/Tools/MinGW/bin/../lib/gcc/i686-w64-mingw32/4.9.2/../../../../i686-w64-mingw32/lib/../lib/libkernel32.a(dkxs01161.o)
 .idata$6       0x004435d6        0xe C:/Program Files/ETAS/ISOLAR-EVE3.0/plugins/com.etas.evetools.toolsfolder_1.4.5/Tools/MinGW/bin/../lib/gcc/i686-w64-mingw32/4.9.2/../../../../i686-w64-mingw32/lib/../lib/libkernel32.a(dkxs01162.o)
 .idata$6       0x004435e4       0x1c C:/Program Files/ETAS/ISOLAR-EVE3.0/plugins/com.etas.evetools.toolsfolder_1.4.5/Tools/MinGW/bin/../lib/gcc/i686-w64-mingw32/4.9.2/../../../../i686-w64-mingw32/lib/../lib/libkernel32.a(dkxs01174.o)
 .idata$6       0x00443600       0x12 C:/Program Files/ETAS/ISOLAR-EVE3.0/plugins/com.etas.evetools.toolsfolder_1.4.5/Tools/MinGW/bin/../lib/gcc/i686-w64-mingw32/4.9.2/../../../../i686-w64-mingw32/lib/../lib/libkernel32.a(dkxs01206.o)
 .idata$6       0x00443612       0x10 C:/Program Files/ETAS/ISOLAR-EVE3.0/plugins/com.etas.evetools.toolsfolder_1.4.5/Tools/MinGW/bin/../lib/gcc/i686-w64-mingw32/4.9.2/../../../../i686-w64-mingw32/lib/../lib/libkernel32.a(dkxs01209.o)
 .idata$6       0x00443622       0x16 C:/Program Files/ETAS/ISOLAR-EVE3.0/plugins/com.etas.evetools.toolsfolder_1.4.5/Tools/MinGW/bin/../lib/gcc/i686-w64-mingw32/4.9.2/../../../../i686-w64-mingw32/lib/../lib/libkernel32.a(dkxs01218.o)
 .idata$6       0x00443638        0xe C:/Program Files/ETAS/ISOLAR-EVE3.0/plugins/com.etas.evetools.toolsfolder_1.4.5/Tools/MinGW/bin/../lib/gcc/i686-w64-mingw32/4.9.2/../../../../i686-w64-mingw32/lib/../lib/libmsvcrt.a(dcpds00055.o)
 .idata$6       0x00443646       0x10 C:/Program Files/ETAS/ISOLAR-EVE3.0/plugins/com.etas.evetools.toolsfolder_1.4.5/Tools/MinGW/bin/../lib/gcc/i686-w64-mingw32/4.9.2/../../../../i686-w64-mingw32/lib/../lib/libmsvcrt.a(dcpds00058.o)
 .idata$6       0x00443656        0xc C:/Program Files/ETAS/ISOLAR-EVE3.0/plugins/com.etas.evetools.toolsfolder_1.4.5/Tools/MinGW/bin/../lib/gcc/i686-w64-mingw32/4.9.2/../../../../i686-w64-mingw32/lib/../lib/libmsvcrt.a(dcpds00059.o)
 .idata$6       0x00443662       0x10 C:/Program Files/ETAS/ISOLAR-EVE3.0/plugins/com.etas.evetools.toolsfolder_1.4.5/Tools/MinGW/bin/../lib/gcc/i686-w64-mingw32/4.9.2/../../../../i686-w64-mingw32/lib/../lib/libmsvcrt.a(dcpds00069.o)
 .idata$6       0x00443672       0x12 C:/Program Files/ETAS/ISOLAR-EVE3.0/plugins/com.etas.evetools.toolsfolder_1.4.5/Tools/MinGW/bin/../lib/gcc/i686-w64-mingw32/4.9.2/../../../../i686-w64-mingw32/lib/../lib/libmsvcrt.a(dcpds00105.o)
 .idata$6       0x00443684       0x14 C:/Program Files/ETAS/ISOLAR-EVE3.0/plugins/com.etas.evetools.toolsfolder_1.4.5/Tools/MinGW/bin/../lib/gcc/i686-w64-mingw32/4.9.2/../../../../i686-w64-mingw32/lib/../lib/libmsvcrt.a(dcpds00108.o)
 .idata$6       0x00443698        0xa C:/Program Files/ETAS/ISOLAR-EVE3.0/plugins/com.etas.evetools.toolsfolder_1.4.5/Tools/MinGW/bin/../lib/gcc/i686-w64-mingw32/4.9.2/../../../../i686-w64-mingw32/lib/../lib/libmsvcrt.a(dcpds00123.o)
 .idata$6       0x004436a2        0xe C:/Program Files/ETAS/ISOLAR-EVE3.0/plugins/com.etas.evetools.toolsfolder_1.4.5/Tools/MinGW/bin/../lib/gcc/i686-w64-mingw32/4.9.2/../../../../i686-w64-mingw32/lib/../lib/libmsvcrt.a(dcpds00145.o)
 .idata$6       0x004436b0        0xa C:/Program Files/ETAS/ISOLAR-EVE3.0/plugins/com.etas.evetools.toolsfolder_1.4.5/Tools/MinGW/bin/../lib/gcc/i686-w64-mingw32/4.9.2/../../../../i686-w64-mingw32/lib/../lib/libmsvcrt.a(dcpds00163.o)
 .idata$6       0x004436ba        0xa C:/Program Files/ETAS/ISOLAR-EVE3.0/plugins/com.etas.evetools.toolsfolder_1.4.5/Tools/MinGW/bin/../lib/gcc/i686-w64-mingw32/4.9.2/../../../../i686-w64-mingw32/lib/../lib/libmsvcrt.a(dcpds00275.o)
 .idata$6       0x004436c4        0xc C:/Program Files/ETAS/ISOLAR-EVE3.0/plugins/com.etas.evetools.toolsfolder_1.4.5/Tools/MinGW/bin/../lib/gcc/i686-w64-mingw32/4.9.2/../../../../i686-w64-mingw32/lib/../lib/libmsvcrt.a(dcpds00350.o)
 .idata$6       0x004436d0        0x8 C:/Program Files/ETAS/ISOLAR-EVE3.0/plugins/com.etas.evetools.toolsfolder_1.4.5/Tools/MinGW/bin/../lib/gcc/i686-w64-mingw32/4.9.2/../../../../i686-w64-mingw32/lib/../lib/libmsvcrt.a(dcpds00354.o)
 .idata$6       0x004436d8        0x8 C:/Program Files/ETAS/ISOLAR-EVE3.0/plugins/com.etas.evetools.toolsfolder_1.4.5/Tools/MinGW/bin/../lib/gcc/i686-w64-mingw32/4.9.2/../../../../i686-w64-mingw32/lib/../lib/libmsvcrt.a(dcpds00460.o)
 .idata$6       0x004436e0        0xa C:/Program Files/ETAS/ISOLAR-EVE3.0/plugins/com.etas.evetools.toolsfolder_1.4.5/Tools/MinGW/bin/../lib/gcc/i686-w64-mingw32/4.9.2/../../../../i686-w64-mingw32/lib/../lib/libmsvcrt.a(dcpds00627.o)
 .idata$6       0x004436ea        0xa C:/Program Files/ETAS/ISOLAR-EVE3.0/plugins/com.etas.evetools.toolsfolder_1.4.5/Tools/MinGW/bin/../lib/gcc/i686-w64-mingw32/4.9.2/../../../../i686-w64-mingw32/lib/../lib/libmsvcrt.a(dcpds00840.o)
 .idata$6       0x004436f4        0xa C:/Program Files/ETAS/ISOLAR-EVE3.0/plugins/com.etas.evetools.toolsfolder_1.4.5/Tools/MinGW/bin/../lib/gcc/i686-w64-mingw32/4.9.2/../../../../i686-w64-mingw32/lib/../lib/libmsvcrt.a(dcpds01013.o)
 .idata$6       0x004436fe        0x8 C:/Program Files/ETAS/ISOLAR-EVE3.0/plugins/com.etas.evetools.toolsfolder_1.4.5/Tools/MinGW/bin/../lib/gcc/i686-w64-mingw32/4.9.2/../../../../i686-w64-mingw32/lib/../lib/libmsvcrt.a(dcpds01055.o)
 .idata$6       0x00443706        0x8 C:/Program Files/ETAS/ISOLAR-EVE3.0/plugins/com.etas.evetools.toolsfolder_1.4.5/Tools/MinGW/bin/../lib/gcc/i686-w64-mingw32/4.9.2/../../../../i686-w64-mingw32/lib/../lib/libmsvcrt.a(dcpds01063.o)
 .idata$6       0x0044370e        0xa C:/Program Files/ETAS/ISOLAR-EVE3.0/plugins/com.etas.evetools.toolsfolder_1.4.5/Tools/MinGW/bin/../lib/gcc/i686-w64-mingw32/4.9.2/../../../../i686-w64-mingw32/lib/../lib/libmsvcrt.a(dcpds01067.o)
 .idata$6       0x00443718        0x8 C:/Program Files/ETAS/ISOLAR-EVE3.0/plugins/com.etas.evetools.toolsfolder_1.4.5/Tools/MinGW/bin/../lib/gcc/i686-w64-mingw32/4.9.2/../../../../i686-w64-mingw32/lib/../lib/libmsvcrt.a(dcpds01078.o)
 .idata$6       0x00443720        0xa C:/Program Files/ETAS/ISOLAR-EVE3.0/plugins/com.etas.evetools.toolsfolder_1.4.5/Tools/MinGW/bin/../lib/gcc/i686-w64-mingw32/4.9.2/../../../../i686-w64-mingw32/lib/../lib/libmsvcrt.a(dcpds01081.o)
 .idata$6       0x0044372a        0x8 C:/Program Files/ETAS/ISOLAR-EVE3.0/plugins/com.etas.evetools.toolsfolder_1.4.5/Tools/MinGW/bin/../lib/gcc/i686-w64-mingw32/4.9.2/../../../../i686-w64-mingw32/lib/../lib/libmsvcrt.a(dcpds01092.o)
 .idata$6       0x00443732        0xa C:/Program Files/ETAS/ISOLAR-EVE3.0/plugins/com.etas.evetools.toolsfolder_1.4.5/Tools/MinGW/bin/../lib/gcc/i686-w64-mingw32/4.9.2/../../../../i686-w64-mingw32/lib/../lib/libmsvcrt.a(dcpds01094.o)
 .idata$6       0x0044373c        0x8 C:/Program Files/ETAS/ISOLAR-EVE3.0/plugins/com.etas.evetools.toolsfolder_1.4.5/Tools/MinGW/bin/../lib/gcc/i686-w64-mingw32/4.9.2/../../../../i686-w64-mingw32/lib/../lib/libmsvcrt.a(dcpds01096.o)
 .idata$6       0x00443744        0x8 C:/Program Files/ETAS/ISOLAR-EVE3.0/plugins/com.etas.evetools.toolsfolder_1.4.5/Tools/MinGW/bin/../lib/gcc/i686-w64-mingw32/4.9.2/../../../../i686-w64-mingw32/lib/../lib/libmsvcrt.a(dcpds01097.o)
 .idata$6       0x0044374c        0x8 C:/Program Files/ETAS/ISOLAR-EVE3.0/plugins/com.etas.evetools.toolsfolder_1.4.5/Tools/MinGW/bin/../lib/gcc/i686-w64-mingw32/4.9.2/../../../../i686-w64-mingw32/lib/../lib/libmsvcrt.a(dcpds01101.o)
 .idata$6       0x00443754        0xa C:/Program Files/ETAS/ISOLAR-EVE3.0/plugins/com.etas.evetools.toolsfolder_1.4.5/Tools/MinGW/bin/../lib/gcc/i686-w64-mingw32/4.9.2/../../../../i686-w64-mingw32/lib/../lib/libmsvcrt.a(dcpds01112.o)
 .idata$6       0x0044375e        0xa C:/Program Files/ETAS/ISOLAR-EVE3.0/plugins/com.etas.evetools.toolsfolder_1.4.5/Tools/MinGW/bin/../lib/gcc/i686-w64-mingw32/4.9.2/../../../../i686-w64-mingw32/lib/../lib/libmsvcrt.a(dcpds01159.o)
 .idata$6       0x00443768        0xa C:/Program Files/ETAS/ISOLAR-EVE3.0/plugins/com.etas.evetools.toolsfolder_1.4.5/Tools/MinGW/bin/../lib/gcc/i686-w64-mingw32/4.9.2/../../../../i686-w64-mingw32/lib/../lib/libmsvcrt.a(dcpds01165.o)
 .idata$6       0x00443772        0xa C:/Program Files/ETAS/ISOLAR-EVE3.0/plugins/com.etas.evetools.toolsfolder_1.4.5/Tools/MinGW/bin/../lib/gcc/i686-w64-mingw32/4.9.2/../../../../i686-w64-mingw32/lib/../lib/libmsvcrt.a(dcpds01167.o)
 .idata$6       0x0044377c        0xa C:/Program Files/ETAS/ISOLAR-EVE3.0/plugins/com.etas.evetools.toolsfolder_1.4.5/Tools/MinGW/bin/../lib/gcc/i686-w64-mingw32/4.9.2/../../../../i686-w64-mingw32/lib/../lib/libmsvcrt.a(dcpds01170.o)
 .idata$6       0x00443786        0xa C:/Program Files/ETAS/ISOLAR-EVE3.0/plugins/com.etas.evetools.toolsfolder_1.4.5/Tools/MinGW/bin/../lib/gcc/i686-w64-mingw32/4.9.2/../../../../i686-w64-mingw32/lib/../lib/libmsvcrt.a(dcpds01186.o)
 .idata$6       0x00443790        0xa C:/Program Files/ETAS/ISOLAR-EVE3.0/plugins/com.etas.evetools.toolsfolder_1.4.5/Tools/MinGW/bin/../lib/gcc/i686-w64-mingw32/4.9.2/../../../../i686-w64-mingw32/lib/../lib/libmsvcrt.a(dcpds01195.o)
 .idata$6       0x0044379a        0xa C:/Program Files/ETAS/ISOLAR-EVE3.0/plugins/com.etas.evetools.toolsfolder_1.4.5/Tools/MinGW/bin/../lib/gcc/i686-w64-mingw32/4.9.2/../../../../i686-w64-mingw32/lib/../lib/libmsvcrt.a(dcpds01198.o)
 .idata$6       0x004437a4        0xa C:/Program Files/ETAS/ISOLAR-EVE3.0/plugins/com.etas.evetools.toolsfolder_1.4.5/Tools/MinGW/bin/../lib/gcc/i686-w64-mingw32/4.9.2/../../../../i686-w64-mingw32/lib/../lib/libmsvcrt.a(dcpds01203.o)
 .idata$6       0x004437ae        0xa C:/Program Files/ETAS/ISOLAR-EVE3.0/plugins/com.etas.evetools.toolsfolder_1.4.5/Tools/MinGW/bin/../lib/gcc/i686-w64-mingw32/4.9.2/../../../../i686-w64-mingw32/lib/../lib/libmsvcrt.a(dcpds01206.o)
 .idata$6       0x004437b8        0xa C:/Program Files/ETAS/ISOLAR-EVE3.0/plugins/com.etas.evetools.toolsfolder_1.4.5/Tools/MinGW/bin/../lib/gcc/i686-w64-mingw32/4.9.2/../../../../i686-w64-mingw32/lib/../lib/libmsvcrt.a(dcpds01208.o)
 .idata$6       0x004437c2        0xa C:/Program Files/ETAS/ISOLAR-EVE3.0/plugins/com.etas.evetools.toolsfolder_1.4.5/Tools/MinGW/bin/../lib/gcc/i686-w64-mingw32/4.9.2/../../../../i686-w64-mingw32/lib/../lib/libmsvcrt.a(dcpds01213.o)
 .idata$6       0x004437cc        0xa C:/Program Files/ETAS/ISOLAR-EVE3.0/plugins/com.etas.evetools.toolsfolder_1.4.5/Tools/MinGW/bin/../lib/gcc/i686-w64-mingw32/4.9.2/../../../../i686-w64-mingw32/lib/../lib/libmsvcrt.a(dcpds01216.o)
 .idata$6       0x004437d6        0xa C:/Program Files/ETAS/ISOLAR-EVE3.0/plugins/com.etas.evetools.toolsfolder_1.4.5/Tools/MinGW/bin/../lib/gcc/i686-w64-mingw32/4.9.2/../../../../i686-w64-mingw32/lib/../lib/libmsvcrt.a(dcpds01217.o)
 .idata$6       0x004437e0        0xc C:/Program Files/ETAS/ISOLAR-EVE3.0/plugins/com.etas.evetools.toolsfolder_1.4.5/Tools/MinGW/bin/../lib/gcc/i686-w64-mingw32/4.9.2/../../../../i686-w64-mingw32/lib/../lib/libmsvcrt.a(dcpds01249.o)
 .idata$6       0x004437ec        0xc C:/Program Files/ETAS/ISOLAR-EVE3.0/plugins/com.etas.evetools.toolsfolder_1.4.5/Tools/MinGW/bin/../lib/gcc/i686-w64-mingw32/4.9.2/../../../../i686-w64-mingw32/lib/../lib/libmsvcrt.a(dcpds01256.o)
 .idata$6       0x004437f8        0xe C:/Program Files/ETAS/ISOLAR-EVE3.0/plugins/com.etas.evetools.toolsfolder_1.4.5/Tools/MinGW/bin/../lib/gcc/i686-w64-mingw32/4.9.2/../../../../i686-w64-mingw32/lib/../lib/libuser32.a(diqes00588.o)
 .idata$6       0x00443806       0x12 C:/Program Files/ETAS/ISOLAR-EVE3.0/plugins/com.etas.evetools.toolsfolder_1.4.5/Tools/MinGW/bin/../lib/gcc/i686-w64-mingw32/4.9.2/../../../../i686-w64-mingw32/lib/../lib/libwinmm.a(dasfs00144.o)
 .idata$6       0x00443818       0x10 C:/Program Files/ETAS/ISOLAR-EVE3.0/plugins/com.etas.evetools.toolsfolder_1.4.5/Tools/MinGW/bin/../lib/gcc/i686-w64-mingw32/4.9.2/../../../../i686-w64-mingw32/lib/../lib/libwinmm.a(dasfs00149.o)
 .idata$6       0x00443828       0x10 C:/Program Files/ETAS/ISOLAR-EVE3.0/plugins/com.etas.evetools.toolsfolder_1.4.5/Tools/MinGW/bin/../lib/gcc/i686-w64-mingw32/4.9.2/../../../../i686-w64-mingw32/lib/../lib/libwinmm.a(dasfs00150.o)
 SORT(*)(.idata$7)
 .idata$7       0x00443838        0x4 C:/Program Files/ETAS/ISOLAR-EVE3.0/plugins/com.etas.evetools.toolsfolder_1.4.5/Tools/MinGW/bin/../lib/gcc/i686-w64-mingw32/4.9.2/../../../../i686-w64-mingw32/lib/../lib/libkernel32.a(dkxs00083.o)
 .idata$7       0x0044383c        0x4 C:/Program Files/ETAS/ISOLAR-EVE3.0/plugins/com.etas.evetools.toolsfolder_1.4.5/Tools/MinGW/bin/../lib/gcc/i686-w64-mingw32/4.9.2/../../../../i686-w64-mingw32/lib/../lib/libkernel32.a(dkxs00140.o)
 .idata$7       0x00443840        0x4 C:/Program Files/ETAS/ISOLAR-EVE3.0/plugins/com.etas.evetools.toolsfolder_1.4.5/Tools/MinGW/bin/../lib/gcc/i686-w64-mingw32/4.9.2/../../../../i686-w64-mingw32/lib/../lib/libkernel32.a(dkxs00158.o)
 .idata$7       0x00443844        0x4 C:/Program Files/ETAS/ISOLAR-EVE3.0/plugins/com.etas.evetools.toolsfolder_1.4.5/Tools/MinGW/bin/../lib/gcc/i686-w64-mingw32/4.9.2/../../../../i686-w64-mingw32/lib/../lib/libkernel32.a(dkxs00173.o)
 .idata$7       0x00443848        0x4 C:/Program Files/ETAS/ISOLAR-EVE3.0/plugins/com.etas.evetools.toolsfolder_1.4.5/Tools/MinGW/bin/../lib/gcc/i686-w64-mingw32/4.9.2/../../../../i686-w64-mingw32/lib/../lib/libkernel32.a(dkxs00176.o)
 .idata$7       0x0044384c        0x4 C:/Program Files/ETAS/ISOLAR-EVE3.0/plugins/com.etas.evetools.toolsfolder_1.4.5/Tools/MinGW/bin/../lib/gcc/i686-w64-mingw32/4.9.2/../../../../i686-w64-mingw32/lib/../lib/libkernel32.a(dkxs00212.o)
 .idata$7       0x00443850        0x4 C:/Program Files/ETAS/ISOLAR-EVE3.0/plugins/com.etas.evetools.toolsfolder_1.4.5/Tools/MinGW/bin/../lib/gcc/i686-w64-mingw32/4.9.2/../../../../i686-w64-mingw32/lib/../lib/libkernel32.a(dkxs00239.o)
 .idata$7       0x00443854        0x4 C:/Program Files/ETAS/ISOLAR-EVE3.0/plugins/com.etas.evetools.toolsfolder_1.4.5/Tools/MinGW/bin/../lib/gcc/i686-w64-mingw32/4.9.2/../../../../i686-w64-mingw32/lib/../lib/libkernel32.a(dkxs00283.o)
 .idata$7       0x00443858        0x4 C:/Program Files/ETAS/ISOLAR-EVE3.0/plugins/com.etas.evetools.toolsfolder_1.4.5/Tools/MinGW/bin/../lib/gcc/i686-w64-mingw32/4.9.2/../../../../i686-w64-mingw32/lib/../lib/libkernel32.a(dkxs00351.o)
 .idata$7       0x0044385c        0x4 C:/Program Files/ETAS/ISOLAR-EVE3.0/plugins/com.etas.evetools.toolsfolder_1.4.5/Tools/MinGW/bin/../lib/gcc/i686-w64-mingw32/4.9.2/../../../../i686-w64-mingw32/lib/../lib/libkernel32.a(dkxs00356.o)
 .idata$7       0x00443860        0x4 C:/Program Files/ETAS/ISOLAR-EVE3.0/plugins/com.etas.evetools.toolsfolder_1.4.5/Tools/MinGW/bin/../lib/gcc/i686-w64-mingw32/4.9.2/../../../../i686-w64-mingw32/lib/../lib/libkernel32.a(dkxs00452.o)
 .idata$7       0x00443864        0x4 C:/Program Files/ETAS/ISOLAR-EVE3.0/plugins/com.etas.evetools.toolsfolder_1.4.5/Tools/MinGW/bin/../lib/gcc/i686-w64-mingw32/4.9.2/../../../../i686-w64-mingw32/lib/../lib/libkernel32.a(dkxs00453.o)
 .idata$7       0x00443868        0x4 C:/Program Files/ETAS/ISOLAR-EVE3.0/plugins/com.etas.evetools.toolsfolder_1.4.5/Tools/MinGW/bin/../lib/gcc/i686-w64-mingw32/4.9.2/../../../../i686-w64-mingw32/lib/../lib/libkernel32.a(dkxs00457.o)
 .idata$7       0x0044386c        0x4 C:/Program Files/ETAS/ISOLAR-EVE3.0/plugins/com.etas.evetools.toolsfolder_1.4.5/Tools/MinGW/bin/../lib/gcc/i686-w64-mingw32/4.9.2/../../../../i686-w64-mingw32/lib/../lib/libkernel32.a(dkxs00479.o)
 .idata$7       0x00443870        0x4 C:/Program Files/ETAS/ISOLAR-EVE3.0/plugins/com.etas.evetools.toolsfolder_1.4.5/Tools/MinGW/bin/../lib/gcc/i686-w64-mingw32/4.9.2/../../../../i686-w64-mingw32/lib/../lib/libkernel32.a(dkxs00515.o)
 .idata$7       0x00443874        0x4 C:/Program Files/ETAS/ISOLAR-EVE3.0/plugins/com.etas.evetools.toolsfolder_1.4.5/Tools/MinGW/bin/../lib/gcc/i686-w64-mingw32/4.9.2/../../../../i686-w64-mingw32/lib/../lib/libkernel32.a(dkxs00533.o)
 .idata$7       0x00443878        0x4 C:/Program Files/ETAS/ISOLAR-EVE3.0/plugins/com.etas.evetools.toolsfolder_1.4.5/Tools/MinGW/bin/../lib/gcc/i686-w64-mingw32/4.9.2/../../../../i686-w64-mingw32/lib/../lib/libkernel32.a(dkxs00581.o)
 .idata$7       0x0044387c        0x4 C:/Program Files/ETAS/ISOLAR-EVE3.0/plugins/com.etas.evetools.toolsfolder_1.4.5/Tools/MinGW/bin/../lib/gcc/i686-w64-mingw32/4.9.2/../../../../i686-w64-mingw32/lib/../lib/libkernel32.a(dkxs00612.o)
 .idata$7       0x00443880        0x4 C:/Program Files/ETAS/ISOLAR-EVE3.0/plugins/com.etas.evetools.toolsfolder_1.4.5/Tools/MinGW/bin/../lib/gcc/i686-w64-mingw32/4.9.2/../../../../i686-w64-mingw32/lib/../lib/libkernel32.a(dkxs00635.o)
 .idata$7       0x00443884        0x4 C:/Program Files/ETAS/ISOLAR-EVE3.0/plugins/com.etas.evetools.toolsfolder_1.4.5/Tools/MinGW/bin/../lib/gcc/i686-w64-mingw32/4.9.2/../../../../i686-w64-mingw32/lib/../lib/libkernel32.a(dkxs00663.o)
 .idata$7       0x00443888        0x4 C:/Program Files/ETAS/ISOLAR-EVE3.0/plugins/com.etas.evetools.toolsfolder_1.4.5/Tools/MinGW/bin/../lib/gcc/i686-w64-mingw32/4.9.2/../../../../i686-w64-mingw32/lib/../lib/libkernel32.a(dkxs00747.o)
 .idata$7       0x0044388c        0x4 C:/Program Files/ETAS/ISOLAR-EVE3.0/plugins/com.etas.evetools.toolsfolder_1.4.5/Tools/MinGW/bin/../lib/gcc/i686-w64-mingw32/4.9.2/../../../../i686-w64-mingw32/lib/../lib/libkernel32.a(dkxs00806.o)
 .idata$7       0x00443890        0x4 C:/Program Files/ETAS/ISOLAR-EVE3.0/plugins/com.etas.evetools.toolsfolder_1.4.5/Tools/MinGW/bin/../lib/gcc/i686-w64-mingw32/4.9.2/../../../../i686-w64-mingw32/lib/../lib/libkernel32.a(dkxs00809.o)
 .idata$7       0x00443894        0x4 C:/Program Files/ETAS/ISOLAR-EVE3.0/plugins/com.etas.evetools.toolsfolder_1.4.5/Tools/MinGW/bin/../lib/gcc/i686-w64-mingw32/4.9.2/../../../../i686-w64-mingw32/lib/../lib/libkernel32.a(dkxs00836.o)
 .idata$7       0x00443898        0x4 C:/Program Files/ETAS/ISOLAR-EVE3.0/plugins/com.etas.evetools.toolsfolder_1.4.5/Tools/MinGW/bin/../lib/gcc/i686-w64-mingw32/4.9.2/../../../../i686-w64-mingw32/lib/../lib/libkernel32.a(dkxs00915.o)
 .idata$7       0x0044389c        0x4 C:/Program Files/ETAS/ISOLAR-EVE3.0/plugins/com.etas.evetools.toolsfolder_1.4.5/Tools/MinGW/bin/../lib/gcc/i686-w64-mingw32/4.9.2/../../../../i686-w64-mingw32/lib/../lib/libkernel32.a(dkxs00916.o)
 .idata$7       0x004438a0        0x4 C:/Program Files/ETAS/ISOLAR-EVE3.0/plugins/com.etas.evetools.toolsfolder_1.4.5/Tools/MinGW/bin/../lib/gcc/i686-w64-mingw32/4.9.2/../../../../i686-w64-mingw32/lib/../lib/libkernel32.a(dkxs00958.o)
 .idata$7       0x004438a4        0x4 C:/Program Files/ETAS/ISOLAR-EVE3.0/plugins/com.etas.evetools.toolsfolder_1.4.5/Tools/MinGW/bin/../lib/gcc/i686-w64-mingw32/4.9.2/../../../../i686-w64-mingw32/lib/../lib/libkernel32.a(dkxs00962.o)
 .idata$7       0x004438a8        0x4 C:/Program Files/ETAS/ISOLAR-EVE3.0/plugins/com.etas.evetools.toolsfolder_1.4.5/Tools/MinGW/bin/../lib/gcc/i686-w64-mingw32/4.9.2/../../../../i686-w64-mingw32/lib/../lib/libkernel32.a(dkxs01078.o)
 .idata$7       0x004438ac        0x4 C:/Program Files/ETAS/ISOLAR-EVE3.0/plugins/com.etas.evetools.toolsfolder_1.4.5/Tools/MinGW/bin/../lib/gcc/i686-w64-mingw32/4.9.2/../../../../i686-w64-mingw32/lib/../lib/libkernel32.a(dkxs01127.o)
 .idata$7       0x004438b0        0x4 C:/Program Files/ETAS/ISOLAR-EVE3.0/plugins/com.etas.evetools.toolsfolder_1.4.5/Tools/MinGW/bin/../lib/gcc/i686-w64-mingw32/4.9.2/../../../../i686-w64-mingw32/lib/../lib/libkernel32.a(dkxs01140.o)
 .idata$7       0x004438b4        0x4 C:/Program Files/ETAS/ISOLAR-EVE3.0/plugins/com.etas.evetools.toolsfolder_1.4.5/Tools/MinGW/bin/../lib/gcc/i686-w64-mingw32/4.9.2/../../../../i686-w64-mingw32/lib/../lib/libkernel32.a(dkxs01154.o)
 .idata$7       0x004438b8        0x4 C:/Program Files/ETAS/ISOLAR-EVE3.0/plugins/com.etas.evetools.toolsfolder_1.4.5/Tools/MinGW/bin/../lib/gcc/i686-w64-mingw32/4.9.2/../../../../i686-w64-mingw32/lib/../lib/libkernel32.a(dkxs01159.o)
 .idata$7       0x004438bc        0x4 C:/Program Files/ETAS/ISOLAR-EVE3.0/plugins/com.etas.evetools.toolsfolder_1.4.5/Tools/MinGW/bin/../lib/gcc/i686-w64-mingw32/4.9.2/../../../../i686-w64-mingw32/lib/../lib/libkernel32.a(dkxs01160.o)
 .idata$7       0x004438c0        0x4 C:/Program Files/ETAS/ISOLAR-EVE3.0/plugins/com.etas.evetools.toolsfolder_1.4.5/Tools/MinGW/bin/../lib/gcc/i686-w64-mingw32/4.9.2/../../../../i686-w64-mingw32/lib/../lib/libkernel32.a(dkxs01161.o)
 .idata$7       0x004438c4        0x4 C:/Program Files/ETAS/ISOLAR-EVE3.0/plugins/com.etas.evetools.toolsfolder_1.4.5/Tools/MinGW/bin/../lib/gcc/i686-w64-mingw32/4.9.2/../../../../i686-w64-mingw32/lib/../lib/libkernel32.a(dkxs01162.o)
 .idata$7       0x004438c8        0x4 C:/Program Files/ETAS/ISOLAR-EVE3.0/plugins/com.etas.evetools.toolsfolder_1.4.5/Tools/MinGW/bin/../lib/gcc/i686-w64-mingw32/4.9.2/../../../../i686-w64-mingw32/lib/../lib/libkernel32.a(dkxs01174.o)
 .idata$7       0x004438cc        0x4 C:/Program Files/ETAS/ISOLAR-EVE3.0/plugins/com.etas.evetools.toolsfolder_1.4.5/Tools/MinGW/bin/../lib/gcc/i686-w64-mingw32/4.9.2/../../../../i686-w64-mingw32/lib/../lib/libkernel32.a(dkxs01206.o)
 .idata$7       0x004438d0        0x4 C:/Program Files/ETAS/ISOLAR-EVE3.0/plugins/com.etas.evetools.toolsfolder_1.4.5/Tools/MinGW/bin/../lib/gcc/i686-w64-mingw32/4.9.2/../../../../i686-w64-mingw32/lib/../lib/libkernel32.a(dkxs01209.o)
 .idata$7       0x004438d4        0x4 C:/Program Files/ETAS/ISOLAR-EVE3.0/plugins/com.etas.evetools.toolsfolder_1.4.5/Tools/MinGW/bin/../lib/gcc/i686-w64-mingw32/4.9.2/../../../../i686-w64-mingw32/lib/../lib/libkernel32.a(dkxs01218.o)
 .idata$7       0x004438d8       0x10 C:/Program Files/ETAS/ISOLAR-EVE3.0/plugins/com.etas.evetools.toolsfolder_1.4.5/Tools/MinGW/bin/../lib/gcc/i686-w64-mingw32/4.9.2/../../../../i686-w64-mingw32/lib/../lib/libkernel32.a(dkxt.o)
                0x004438d8                _lib32_libkernel32_a_iname
 .idata$7       0x004438e8        0x4 C:/Program Files/ETAS/ISOLAR-EVE3.0/plugins/com.etas.evetools.toolsfolder_1.4.5/Tools/MinGW/bin/../lib/gcc/i686-w64-mingw32/4.9.2/../../../../i686-w64-mingw32/lib/../lib/libmsvcrt.a(dcpds00055.o)
 .idata$7       0x004438ec        0x4 C:/Program Files/ETAS/ISOLAR-EVE3.0/plugins/com.etas.evetools.toolsfolder_1.4.5/Tools/MinGW/bin/../lib/gcc/i686-w64-mingw32/4.9.2/../../../../i686-w64-mingw32/lib/../lib/libmsvcrt.a(dcpds00058.o)
 .idata$7       0x004438f0        0x4 C:/Program Files/ETAS/ISOLAR-EVE3.0/plugins/com.etas.evetools.toolsfolder_1.4.5/Tools/MinGW/bin/../lib/gcc/i686-w64-mingw32/4.9.2/../../../../i686-w64-mingw32/lib/../lib/libmsvcrt.a(dcpds00059.o)
 .idata$7       0x004438f4        0x4 C:/Program Files/ETAS/ISOLAR-EVE3.0/plugins/com.etas.evetools.toolsfolder_1.4.5/Tools/MinGW/bin/../lib/gcc/i686-w64-mingw32/4.9.2/../../../../i686-w64-mingw32/lib/../lib/libmsvcrt.a(dcpds00069.o)
 .idata$7       0x004438f8        0x4 C:/Program Files/ETAS/ISOLAR-EVE3.0/plugins/com.etas.evetools.toolsfolder_1.4.5/Tools/MinGW/bin/../lib/gcc/i686-w64-mingw32/4.9.2/../../../../i686-w64-mingw32/lib/../lib/libmsvcrt.a(dcpds00105.o)
 .idata$7       0x004438fc        0x4 C:/Program Files/ETAS/ISOLAR-EVE3.0/plugins/com.etas.evetools.toolsfolder_1.4.5/Tools/MinGW/bin/../lib/gcc/i686-w64-mingw32/4.9.2/../../../../i686-w64-mingw32/lib/../lib/libmsvcrt.a(dcpds00108.o)
 .idata$7       0x00443900        0x4 C:/Program Files/ETAS/ISOLAR-EVE3.0/plugins/com.etas.evetools.toolsfolder_1.4.5/Tools/MinGW/bin/../lib/gcc/i686-w64-mingw32/4.9.2/../../../../i686-w64-mingw32/lib/../lib/libmsvcrt.a(dcpds00123.o)
 .idata$7       0x00443904        0x4 C:/Program Files/ETAS/ISOLAR-EVE3.0/plugins/com.etas.evetools.toolsfolder_1.4.5/Tools/MinGW/bin/../lib/gcc/i686-w64-mingw32/4.9.2/../../../../i686-w64-mingw32/lib/../lib/libmsvcrt.a(dcpds00145.o)
 .idata$7       0x00443908        0x4 C:/Program Files/ETAS/ISOLAR-EVE3.0/plugins/com.etas.evetools.toolsfolder_1.4.5/Tools/MinGW/bin/../lib/gcc/i686-w64-mingw32/4.9.2/../../../../i686-w64-mingw32/lib/../lib/libmsvcrt.a(dcpds00163.o)
 .idata$7       0x0044390c        0x4 C:/Program Files/ETAS/ISOLAR-EVE3.0/plugins/com.etas.evetools.toolsfolder_1.4.5/Tools/MinGW/bin/../lib/gcc/i686-w64-mingw32/4.9.2/../../../../i686-w64-mingw32/lib/../lib/libmsvcrt.a(dcpds00275.o)
 .idata$7       0x00443910        0x4 C:/Program Files/ETAS/ISOLAR-EVE3.0/plugins/com.etas.evetools.toolsfolder_1.4.5/Tools/MinGW/bin/../lib/gcc/i686-w64-mingw32/4.9.2/../../../../i686-w64-mingw32/lib/../lib/libmsvcrt.a(dcpds00350.o)
 .idata$7       0x00443914        0x4 C:/Program Files/ETAS/ISOLAR-EVE3.0/plugins/com.etas.evetools.toolsfolder_1.4.5/Tools/MinGW/bin/../lib/gcc/i686-w64-mingw32/4.9.2/../../../../i686-w64-mingw32/lib/../lib/libmsvcrt.a(dcpds00354.o)
 .idata$7       0x00443918        0x4 C:/Program Files/ETAS/ISOLAR-EVE3.0/plugins/com.etas.evetools.toolsfolder_1.4.5/Tools/MinGW/bin/../lib/gcc/i686-w64-mingw32/4.9.2/../../../../i686-w64-mingw32/lib/../lib/libmsvcrt.a(dcpds00460.o)
 .idata$7       0x0044391c        0x4 C:/Program Files/ETAS/ISOLAR-EVE3.0/plugins/com.etas.evetools.toolsfolder_1.4.5/Tools/MinGW/bin/../lib/gcc/i686-w64-mingw32/4.9.2/../../../../i686-w64-mingw32/lib/../lib/libmsvcrt.a(dcpds00627.o)
 .idata$7       0x00443920        0x4 C:/Program Files/ETAS/ISOLAR-EVE3.0/plugins/com.etas.evetools.toolsfolder_1.4.5/Tools/MinGW/bin/../lib/gcc/i686-w64-mingw32/4.9.2/../../../../i686-w64-mingw32/lib/../lib/libmsvcrt.a(dcpds00840.o)
 .idata$7       0x00443924        0x4 C:/Program Files/ETAS/ISOLAR-EVE3.0/plugins/com.etas.evetools.toolsfolder_1.4.5/Tools/MinGW/bin/../lib/gcc/i686-w64-mingw32/4.9.2/../../../../i686-w64-mingw32/lib/../lib/libmsvcrt.a(dcpds01013.o)
 .idata$7       0x00443928        0x4 C:/Program Files/ETAS/ISOLAR-EVE3.0/plugins/com.etas.evetools.toolsfolder_1.4.5/Tools/MinGW/bin/../lib/gcc/i686-w64-mingw32/4.9.2/../../../../i686-w64-mingw32/lib/../lib/libmsvcrt.a(dcpds01055.o)
 .idata$7       0x0044392c        0x4 C:/Program Files/ETAS/ISOLAR-EVE3.0/plugins/com.etas.evetools.toolsfolder_1.4.5/Tools/MinGW/bin/../lib/gcc/i686-w64-mingw32/4.9.2/../../../../i686-w64-mingw32/lib/../lib/libmsvcrt.a(dcpds01063.o)
 .idata$7       0x00443930        0x4 C:/Program Files/ETAS/ISOLAR-EVE3.0/plugins/com.etas.evetools.toolsfolder_1.4.5/Tools/MinGW/bin/../lib/gcc/i686-w64-mingw32/4.9.2/../../../../i686-w64-mingw32/lib/../lib/libmsvcrt.a(dcpds01067.o)
 .idata$7       0x00443934        0x4 C:/Program Files/ETAS/ISOLAR-EVE3.0/plugins/com.etas.evetools.toolsfolder_1.4.5/Tools/MinGW/bin/../lib/gcc/i686-w64-mingw32/4.9.2/../../../../i686-w64-mingw32/lib/../lib/libmsvcrt.a(dcpds01078.o)
 .idata$7       0x00443938        0x4 C:/Program Files/ETAS/ISOLAR-EVE3.0/plugins/com.etas.evetools.toolsfolder_1.4.5/Tools/MinGW/bin/../lib/gcc/i686-w64-mingw32/4.9.2/../../../../i686-w64-mingw32/lib/../lib/libmsvcrt.a(dcpds01081.o)
 .idata$7       0x0044393c        0x4 C:/Program Files/ETAS/ISOLAR-EVE3.0/plugins/com.etas.evetools.toolsfolder_1.4.5/Tools/MinGW/bin/../lib/gcc/i686-w64-mingw32/4.9.2/../../../../i686-w64-mingw32/lib/../lib/libmsvcrt.a(dcpds01092.o)
 .idata$7       0x00443940        0x4 C:/Program Files/ETAS/ISOLAR-EVE3.0/plugins/com.etas.evetools.toolsfolder_1.4.5/Tools/MinGW/bin/../lib/gcc/i686-w64-mingw32/4.9.2/../../../../i686-w64-mingw32/lib/../lib/libmsvcrt.a(dcpds01094.o)
 .idata$7       0x00443944        0x4 C:/Program Files/ETAS/ISOLAR-EVE3.0/plugins/com.etas.evetools.toolsfolder_1.4.5/Tools/MinGW/bin/../lib/gcc/i686-w64-mingw32/4.9.2/../../../../i686-w64-mingw32/lib/../lib/libmsvcrt.a(dcpds01096.o)
 .idata$7       0x00443948        0x4 C:/Program Files/ETAS/ISOLAR-EVE3.0/plugins/com.etas.evetools.toolsfolder_1.4.5/Tools/MinGW/bin/../lib/gcc/i686-w64-mingw32/4.9.2/../../../../i686-w64-mingw32/lib/../lib/libmsvcrt.a(dcpds01097.o)
 .idata$7       0x0044394c        0x4 C:/Program Files/ETAS/ISOLAR-EVE3.0/plugins/com.etas.evetools.toolsfolder_1.4.5/Tools/MinGW/bin/../lib/gcc/i686-w64-mingw32/4.9.2/../../../../i686-w64-mingw32/lib/../lib/libmsvcrt.a(dcpds01101.o)
 .idata$7       0x00443950        0x4 C:/Program Files/ETAS/ISOLAR-EVE3.0/plugins/com.etas.evetools.toolsfolder_1.4.5/Tools/MinGW/bin/../lib/gcc/i686-w64-mingw32/4.9.2/../../../../i686-w64-mingw32/lib/../lib/libmsvcrt.a(dcpds01112.o)
 .idata$7       0x00443954        0x4 C:/Program Files/ETAS/ISOLAR-EVE3.0/plugins/com.etas.evetools.toolsfolder_1.4.5/Tools/MinGW/bin/../lib/gcc/i686-w64-mingw32/4.9.2/../../../../i686-w64-mingw32/lib/../lib/libmsvcrt.a(dcpds01159.o)
 .idata$7       0x00443958        0x4 C:/Program Files/ETAS/ISOLAR-EVE3.0/plugins/com.etas.evetools.toolsfolder_1.4.5/Tools/MinGW/bin/../lib/gcc/i686-w64-mingw32/4.9.2/../../../../i686-w64-mingw32/lib/../lib/libmsvcrt.a(dcpds01165.o)
 .idata$7       0x0044395c        0x4 C:/Program Files/ETAS/ISOLAR-EVE3.0/plugins/com.etas.evetools.toolsfolder_1.4.5/Tools/MinGW/bin/../lib/gcc/i686-w64-mingw32/4.9.2/../../../../i686-w64-mingw32/lib/../lib/libmsvcrt.a(dcpds01167.o)
 .idata$7       0x00443960        0x4 C:/Program Files/ETAS/ISOLAR-EVE3.0/plugins/com.etas.evetools.toolsfolder_1.4.5/Tools/MinGW/bin/../lib/gcc/i686-w64-mingw32/4.9.2/../../../../i686-w64-mingw32/lib/../lib/libmsvcrt.a(dcpds01170.o)
 .idata$7       0x00443964        0x4 C:/Program Files/ETAS/ISOLAR-EVE3.0/plugins/com.etas.evetools.toolsfolder_1.4.5/Tools/MinGW/bin/../lib/gcc/i686-w64-mingw32/4.9.2/../../../../i686-w64-mingw32/lib/../lib/libmsvcrt.a(dcpds01186.o)
 .idata$7       0x00443968        0x4 C:/Program Files/ETAS/ISOLAR-EVE3.0/plugins/com.etas.evetools.toolsfolder_1.4.5/Tools/MinGW/bin/../lib/gcc/i686-w64-mingw32/4.9.2/../../../../i686-w64-mingw32/lib/../lib/libmsvcrt.a(dcpds01195.o)
 .idata$7       0x0044396c        0x4 C:/Program Files/ETAS/ISOLAR-EVE3.0/plugins/com.etas.evetools.toolsfolder_1.4.5/Tools/MinGW/bin/../lib/gcc/i686-w64-mingw32/4.9.2/../../../../i686-w64-mingw32/lib/../lib/libmsvcrt.a(dcpds01198.o)
 .idata$7       0x00443970        0x4 C:/Program Files/ETAS/ISOLAR-EVE3.0/plugins/com.etas.evetools.toolsfolder_1.4.5/Tools/MinGW/bin/../lib/gcc/i686-w64-mingw32/4.9.2/../../../../i686-w64-mingw32/lib/../lib/libmsvcrt.a(dcpds01203.o)
 .idata$7       0x00443974        0x4 C:/Program Files/ETAS/ISOLAR-EVE3.0/plugins/com.etas.evetools.toolsfolder_1.4.5/Tools/MinGW/bin/../lib/gcc/i686-w64-mingw32/4.9.2/../../../../i686-w64-mingw32/lib/../lib/libmsvcrt.a(dcpds01206.o)
 .idata$7       0x00443978        0x4 C:/Program Files/ETAS/ISOLAR-EVE3.0/plugins/com.etas.evetools.toolsfolder_1.4.5/Tools/MinGW/bin/../lib/gcc/i686-w64-mingw32/4.9.2/../../../../i686-w64-mingw32/lib/../lib/libmsvcrt.a(dcpds01208.o)
 .idata$7       0x0044397c        0x4 C:/Program Files/ETAS/ISOLAR-EVE3.0/plugins/com.etas.evetools.toolsfolder_1.4.5/Tools/MinGW/bin/../lib/gcc/i686-w64-mingw32/4.9.2/../../../../i686-w64-mingw32/lib/../lib/libmsvcrt.a(dcpds01213.o)
 .idata$7       0x00443980        0x4 C:/Program Files/ETAS/ISOLAR-EVE3.0/plugins/com.etas.evetools.toolsfolder_1.4.5/Tools/MinGW/bin/../lib/gcc/i686-w64-mingw32/4.9.2/../../../../i686-w64-mingw32/lib/../lib/libmsvcrt.a(dcpds01216.o)
 .idata$7       0x00443984        0x4 C:/Program Files/ETAS/ISOLAR-EVE3.0/plugins/com.etas.evetools.toolsfolder_1.4.5/Tools/MinGW/bin/../lib/gcc/i686-w64-mingw32/4.9.2/../../../../i686-w64-mingw32/lib/../lib/libmsvcrt.a(dcpds01217.o)
 .idata$7       0x00443988        0x4 C:/Program Files/ETAS/ISOLAR-EVE3.0/plugins/com.etas.evetools.toolsfolder_1.4.5/Tools/MinGW/bin/../lib/gcc/i686-w64-mingw32/4.9.2/../../../../i686-w64-mingw32/lib/../lib/libmsvcrt.a(dcpds01249.o)
 .idata$7       0x0044398c        0x4 C:/Program Files/ETAS/ISOLAR-EVE3.0/plugins/com.etas.evetools.toolsfolder_1.4.5/Tools/MinGW/bin/../lib/gcc/i686-w64-mingw32/4.9.2/../../../../i686-w64-mingw32/lib/../lib/libmsvcrt.a(dcpds01256.o)
 .idata$7       0x00443990        0xc C:/Program Files/ETAS/ISOLAR-EVE3.0/plugins/com.etas.evetools.toolsfolder_1.4.5/Tools/MinGW/bin/../lib/gcc/i686-w64-mingw32/4.9.2/../../../../i686-w64-mingw32/lib/../lib/libmsvcrt.a(dcpdt.o)
                0x00443990                _lib32_libmsvcrt_a_iname
 .idata$7       0x0044399c        0x4 C:/Program Files/ETAS/ISOLAR-EVE3.0/plugins/com.etas.evetools.toolsfolder_1.4.5/Tools/MinGW/bin/../lib/gcc/i686-w64-mingw32/4.9.2/../../../../i686-w64-mingw32/lib/../lib/libuser32.a(diqes00588.o)
 .idata$7       0x004439a0        0xc C:/Program Files/ETAS/ISOLAR-EVE3.0/plugins/com.etas.evetools.toolsfolder_1.4.5/Tools/MinGW/bin/../lib/gcc/i686-w64-mingw32/4.9.2/../../../../i686-w64-mingw32/lib/../lib/libuser32.a(diqet.o)
                0x004439a0                _lib32_libuser32_a_iname
 .idata$7       0x004439ac        0x4 C:/Program Files/ETAS/ISOLAR-EVE3.0/plugins/com.etas.evetools.toolsfolder_1.4.5/Tools/MinGW/bin/../lib/gcc/i686-w64-mingw32/4.9.2/../../../../i686-w64-mingw32/lib/../lib/libwinmm.a(dasfs00144.o)
 .idata$7       0x004439b0        0x4 C:/Program Files/ETAS/ISOLAR-EVE3.0/plugins/com.etas.evetools.toolsfolder_1.4.5/Tools/MinGW/bin/../lib/gcc/i686-w64-mingw32/4.9.2/../../../../i686-w64-mingw32/lib/../lib/libwinmm.a(dasfs00149.o)
 .idata$7       0x004439b4        0x4 C:/Program Files/ETAS/ISOLAR-EVE3.0/plugins/com.etas.evetools.toolsfolder_1.4.5/Tools/MinGW/bin/../lib/gcc/i686-w64-mingw32/4.9.2/../../../../i686-w64-mingw32/lib/../lib/libwinmm.a(dasfs00150.o)
 .idata$7       0x004439b8        0xc C:/Program Files/ETAS/ISOLAR-EVE3.0/plugins/com.etas.evetools.toolsfolder_1.4.5/Tools/MinGW/bin/../lib/gcc/i686-w64-mingw32/4.9.2/../../../../i686-w64-mingw32/lib/../lib/libwinmm.a(dasft.o)
                0x004439b8                _lib32_libwinmm_a_iname

.CRT            0x00444000      0x200
                0x00444000                ___crt_xc_start__ = .
 *(SORT(.CRT$XC*))
 .CRT$XCA       0x00444000        0x4 C:/Program Files/ETAS/ISOLAR-EVE3.0/plugins/com.etas.evetools.toolsfolder_1.4.5/Tools/MinGW/bin/../lib/gcc/i686-w64-mingw32/4.9.2/../../../../i686-w64-mingw32/lib/../lib/libmingw32.a(lib32_libmingw32_a-cinitexe.o)
                0x00444000                __xc_a
 .CRT$XCAA      0x00444004        0x4 C:/Program Files/ETAS/ISOLAR-EVE3.0/plugins/com.etas.evetools.toolsfolder_1.4.5/Tools/MinGW/bin/../lib/gcc/i686-w64-mingw32/4.9.2/../../../../i686-w64-mingw32/lib/../lib/crt2.o
                0x00444004                mingw_pcppinit
 .CRT$XCZ       0x00444008        0x4 C:/Program Files/ETAS/ISOLAR-EVE3.0/plugins/com.etas.evetools.toolsfolder_1.4.5/Tools/MinGW/bin/../lib/gcc/i686-w64-mingw32/4.9.2/../../../../i686-w64-mingw32/lib/../lib/libmingw32.a(lib32_libmingw32_a-cinitexe.o)
                0x00444008                __xc_z
                0x0044400c                ___crt_xc_end__ = .
                0x0044400c                ___crt_xi_start__ = .
 *(SORT(.CRT$XI*))
 .CRT$XIA       0x0044400c        0x4 C:/Program Files/ETAS/ISOLAR-EVE3.0/plugins/com.etas.evetools.toolsfolder_1.4.5/Tools/MinGW/bin/../lib/gcc/i686-w64-mingw32/4.9.2/../../../../i686-w64-mingw32/lib/../lib/libmingw32.a(lib32_libmingw32_a-cinitexe.o)
                0x0044400c                __xi_a
 .CRT$XIAA      0x00444010        0x4 C:/Program Files/ETAS/ISOLAR-EVE3.0/plugins/com.etas.evetools.toolsfolder_1.4.5/Tools/MinGW/bin/../lib/gcc/i686-w64-mingw32/4.9.2/../../../../i686-w64-mingw32/lib/../lib/crt2.o
                0x00444010                mingw_pcinit
 .CRT$XIC       0x00444014        0x4 C:/Program Files/ETAS/ISOLAR-EVE3.0/plugins/com.etas.evetools.toolsfolder_1.4.5/Tools/MinGW/bin/../lib/gcc/i686-w64-mingw32/4.9.2/../../../../i686-w64-mingw32/lib/../lib/libmingw32.a(lib32_libmingw32_a-charmax.o)
                0x00444014                __mingw_pinit
 .CRT$XIZ       0x00444018        0x4 C:/Program Files/ETAS/ISOLAR-EVE3.0/plugins/com.etas.evetools.toolsfolder_1.4.5/Tools/MinGW/bin/../lib/gcc/i686-w64-mingw32/4.9.2/../../../../i686-w64-mingw32/lib/../lib/libmingw32.a(lib32_libmingw32_a-cinitexe.o)
                0x00444018                __xi_z
                0x0044401c                ___crt_xi_end__ = .
                0x0044401c                ___crt_xl_start__ = .
 *(SORT(.CRT$XL*))
 .CRT$XLA       0x0044401c        0x4 C:/Program Files/ETAS/ISOLAR-EVE3.0/plugins/com.etas.evetools.toolsfolder_1.4.5/Tools/MinGW/bin/../lib/gcc/i686-w64-mingw32/4.9.2/../../../../i686-w64-mingw32/lib/../lib/libmingw32.a(lib32_libmingw32_a-tlssup.o)
                0x0044401c                __xl_a
 .CRT$XLC       0x00444020        0x4 C:/Program Files/ETAS/ISOLAR-EVE3.0/plugins/com.etas.evetools.toolsfolder_1.4.5/Tools/MinGW/bin/../lib/gcc/i686-w64-mingw32/4.9.2/../../../../i686-w64-mingw32/lib/../lib/libmingw32.a(lib32_libmingw32_a-tlssup.o)
                0x00444020                __xl_c
 .CRT$XLD       0x00444024        0x4 C:/Program Files/ETAS/ISOLAR-EVE3.0/plugins/com.etas.evetools.toolsfolder_1.4.5/Tools/MinGW/bin/../lib/gcc/i686-w64-mingw32/4.9.2/../../../../i686-w64-mingw32/lib/../lib/libmingw32.a(lib32_libmingw32_a-tlssup.o)
                0x00444024                __xl_d
 .CRT$XLZ       0x00444028        0x4 C:/Program Files/ETAS/ISOLAR-EVE3.0/plugins/com.etas.evetools.toolsfolder_1.4.5/Tools/MinGW/bin/../lib/gcc/i686-w64-mingw32/4.9.2/../../../../i686-w64-mingw32/lib/../lib/libmingw32.a(lib32_libmingw32_a-tlssup.o)
                0x00444028                __xl_z
                0x0044402c                ___crt_xp_start__ = .
 *(SORT(.CRT$XP*))
                0x0044402c                ___crt_xp_end__ = .
                0x0044402c                ___crt_xt_start__ = .
 *(SORT(.CRT$XT*))
                0x0044402c                ___crt_xt_end__ = .
 .CRT$XDA       0x0044402c        0x4 C:/Program Files/ETAS/ISOLAR-EVE3.0/plugins/com.etas.evetools.toolsfolder_1.4.5/Tools/MinGW/bin/../lib/gcc/i686-w64-mingw32/4.9.2/../../../../i686-w64-mingw32/lib/../lib/libmingw32.a(lib32_libmingw32_a-tlssup.o)
 .CRT$XDZ       0x00444030        0x4 C:/Program Files/ETAS/ISOLAR-EVE3.0/plugins/com.etas.evetools.toolsfolder_1.4.5/Tools/MinGW/bin/../lib/gcc/i686-w64-mingw32/4.9.2/../../../../i686-w64-mingw32/lib/../lib/libmingw32.a(lib32_libmingw32_a-tlssup.o)

.tls            0x00445000      0x200
                0x00445000                ___tls_start__ = .
 *(.tls$AAA)
 .tls$AAA       0x00445000        0x4 C:/Program Files/ETAS/ISOLAR-EVE3.0/plugins/com.etas.evetools.toolsfolder_1.4.5/Tools/MinGW/bin/../lib/gcc/i686-w64-mingw32/4.9.2/../../../../i686-w64-mingw32/lib/../lib/libmingw32.a(lib32_libmingw32_a-tlssup.o)
                0x00445000                _tls_start
 *(.tls)
 .tls           0x00445004       0x18 C:/Program Files/ETAS/ISOLAR-EVE3.0/plugins/com.etas.evetools.toolsfolder_1.4.5/Tools/MinGW/bin/../lib/gcc/i686-w64-mingw32/4.9.2/../../../../i686-w64-mingw32/lib/../lib/libmingw32.a(lib32_libmingw32_a-tlssup.o)
                0x00445004                _tls_used
 *(.tls$)
 *(SORT(.tls$*))
 .tls$ZZZ       0x0044501c        0x4 C:/Program Files/ETAS/ISOLAR-EVE3.0/plugins/com.etas.evetools.toolsfolder_1.4.5/Tools/MinGW/bin/../lib/gcc/i686-w64-mingw32/4.9.2/../../../../i686-w64-mingw32/lib/../lib/libmingw32.a(lib32_libmingw32_a-tlssup.o)
                0x0044501c                _tls_end
 *(.tls$ZZZ)
                0x00445020                ___tls_end__ = .

.endjunk        0x00446000        0x0
                0x00446000                PROVIDE (end, .)
                0x00446000                PROVIDE (_end, .)
                0x00446000                __end__ = .

.rsrc
 *(.rsrc)
 *(.rsrc$*)

.reloc
 *(.reloc)

.stab
 *(.stab)

.stabstr
 *(.stabstr)

.debug_aranges  0x00446000      0x800
 *(.debug_aranges)
 .debug_aranges
                0x00446000       0x18 BswTasks.o
 .debug_aranges
                0x00446018       0x40 EVE_SystemClock.o
 .debug_aranges
                0x00446058       0x20 main.o
 .debug_aranges
                0x00446078       0x20 Os_ErrorHook.o
 .debug_aranges
                0x00446098       0x20 Os_Hooks.o
 .debug_aranges
                0x004460b8       0x20 Rte.o
 .debug_aranges
                0x004460d8       0x20 Rte_ACT_HIGHBEAM.o
 .debug_aranges
                0x004460f8       0x20 Rte_ACT_LEFTRIGHT_MOTOR.o
 .debug_aranges
                0x00446118       0x20 Rte_ACT_LOWBEAM.o
 .debug_aranges
                0x00446138       0x20 Rte_ACT_UPDOWN_MOTOR.o
 .debug_aranges
                0x00446158       0x20 Rte_APP_HIGHBEAM.o
 .debug_aranges
                0x00446178       0x20 Rte_APP_LOWBEAM.o
 .debug_aranges
                0x00446198       0x20 Rte_APP_MOTOR.o
 .debug_aranges
                0x004461b8       0x20 Rte_ECU_ABS_AFS.o
 .debug_aranges
                0x004461d8       0x20 Rte_Lib.o
 .debug_aranges
                0x004461f8       0x20 Rte_SENSOR_DISTANCE.o
 .debug_aranges
                0x00446218       0x20 Rte_SENSOR_LIGHT.o
 .debug_aranges
                0x00446238       0x20 Rte_SENSOR_LIGHTMODE.o
 .debug_aranges
                0x00446258       0x20 Rte_SENSOR_SPEED.o
 .debug_aranges
                0x00446278       0x20 Rte_SENSOR_STEERINGANGLE.o
 .debug_aranges
                0x00446298       0x20 TAKS_ECU_SPEED.o
 .debug_aranges
                0x004462b8       0x20 target.o
 .debug_aranges
                0x004462d8       0x20 TASK_ACT_HIGHBEAM_RECEIVE.o
 .debug_aranges
                0x004462f8       0x20 TASK_ACT_HIGHBEAM_SEND.o
 .debug_aranges
                0x00446318       0x20 TASK_ACT_LEFTRIGHTANGLE_RECEIVE.o
 .debug_aranges
                0x00446338       0x20 TASK_ACT_LEFTRIGHTANGLE_SEND.o
 .debug_aranges
                0x00446358       0x20 TASK_ACT_LOWBEAM_RECEIVE.o
 .debug_aranges
                0x00446378       0x20 TASK_ACT_LOWBEAM_SEND.o
 .debug_aranges
                0x00446398       0x20 TASK_ACT_UPDOWNANGLE_RECEIVE.o
 .debug_aranges
                0x004463b8       0x20 TASK_ACT_UPDOWNANGLE_SEND.o
 .debug_aranges
                0x004463d8       0x20 TASK_APP_HIGHBEAM.o
 .debug_aranges
                0x004463f8       0x20 TASK_APP_LOWBEAM.o
 .debug_aranges
                0x00446418       0x20 TASK_APP_MOTOR.o
 .debug_aranges
                0x00446438       0x20 TASK_ECU_ACTUATOR.o
 .debug_aranges
                0x00446458       0x20 TASK_ECU_DISTANCE.o
 .debug_aranges
                0x00446478       0x20 TASK_ECU_LIGHT.o
 .debug_aranges
                0x00446498       0x20 TASK_ECU_LIGHTMODE.o
 .debug_aranges
                0x004464b8       0x20 TASK_EUC_STEERINGANGLE.o
 .debug_aranges
                0x004464d8       0x20 TASK_SENSOR_DISTANCE.o
 .debug_aranges
                0x004464f8       0x20 TASK_SENSOR_LIGHT.o
 .debug_aranges
                0x00446518       0x20 TASK_SENSOR_LIGHTMODE.o
 .debug_aranges
                0x00446538       0x20 TASK_SENSOR_SPEED.o
 .debug_aranges
                0x00446558       0x20 TASK_SENSOR_STEERINGANGLE.o
 .debug_aranges
                0x00446578       0x20 VECU_SystemClock_ISR.o
 .debug_aranges
                0x00446598       0x30 VirtualDevices.o
 .debug_aranges
                0x004465c8       0x20 Vrta_Cfg.o
 .debug_aranges
                0x004465e8       0x20 C:/Program Files/ETAS/ISOLAR-EVE3.0/plugins/com.etas.evetools.toolsfolder_1.4.5/Tools/MinGW/bin/../lib/gcc/i686-w64-mingw32/4.9.2/libgcc.a(_chkstk_ms.o)
 .debug_aranges
                0x00446608       0x18 C:/Program Files/ETAS/ISOLAR-EVE3.0/plugins/com.etas.evetools.toolsfolder_1.4.5/Tools/MinGW/bin/../lib/gcc/i686-w64-mingw32/4.9.2/libgcc.a(_ctors.o)
 .debug_aranges
                0x00446620       0x20 C:/Program Files/ETAS/ISOLAR-EVE3.0/plugins/com.etas.evetools.toolsfolder_1.4.5/Tools/MinGW/bin/../lib/gcc/i686-w64-mingw32/4.9.2/libgcc.a(_divdi3.o)
 .debug_aranges
                0x00446640       0x20 C:/Program Files/ETAS/ISOLAR-EVE3.0/plugins/com.etas.evetools.toolsfolder_1.4.5/Tools/MinGW/bin/../lib/gcc/i686-w64-mingw32/4.9.2/libgcc.a(gthr-win32.o)
 .debug_aranges
                0x00446660       0x20 C:/Program Files/ETAS/ISOLAR-EVE3.0/plugins/com.etas.evetools.toolsfolder_1.4.5/Tools/MinGW/bin/../lib/gcc/i686-w64-mingw32/4.9.2/libgcc_eh.a(unwind-dw2.o)
 .debug_aranges
                0x00446680       0x20 C:/Program Files/ETAS/ISOLAR-EVE3.0/plugins/com.etas.evetools.toolsfolder_1.4.5/Tools/MinGW/bin/../lib/gcc/i686-w64-mingw32/4.9.2/libgcc_eh.a(unwind-dw2-fde.o)
 .debug_aranges
                0x004466a0       0x20 C:/Program Files/ETAS/ISOLAR-EVE3.0/plugins/com.etas.evetools.toolsfolder_1.4.5/Tools/MinGW/bin/../lib/gcc/i686-w64-mingw32/4.9.2/libgcc_eh.a(emutls.o)

.zdebug_aranges
 *(.zdebug_aranges)

.debug_pubnames
 *(.debug_pubnames)

.zdebug_pubnames
 *(.zdebug_pubnames)

.debug_pubtypes
 *(.debug_pubtypes)

.zdebug_pubtypes
 *(.zdebug_pubtypes)

.debug_info     0x00447000    0x1ec00
 *(.debug_info .gnu.linkonce.wi.*)
 .debug_info    0x00447000      0x125 BswTasks.o
 .debug_info    0x00447125      0xc21 EVE_SystemClock.o
 .debug_info    0x00447d46      0x1b2 main.o
 .debug_info    0x00447ef8      0x626 Os_ErrorHook.o
 .debug_info    0x0044851e      0x7b0 Os_Hooks.o
 .debug_info    0x00448cce     0x51cb Rte.o
 .debug_info    0x0044de99      0x224 Rte_ACT_HIGHBEAM.o
 .debug_info    0x0044e0bd      0x243 Rte_ACT_LEFTRIGHT_MOTOR.o
 .debug_info    0x0044e300      0x21f Rte_ACT_LOWBEAM.o
 .debug_info    0x0044e51f      0x234 Rte_ACT_UPDOWN_MOTOR.o
 .debug_info    0x0044e753      0x22b Rte_APP_HIGHBEAM.o
 .debug_info    0x0044e97e      0x354 Rte_APP_LOWBEAM.o
 .debug_info    0x0044ecd2      0x199 Rte_APP_MOTOR.o
 .debug_info    0x0044ee6b      0x32e Rte_ECU_ABS_AFS.o
 .debug_info    0x0044f199     0x142c Rte_Lib.o
 .debug_info    0x004505c5      0x16c Rte_SENSOR_DISTANCE.o
 .debug_info    0x00450731      0x163 Rte_SENSOR_LIGHT.o
 .debug_info    0x00450894      0x16f Rte_SENSOR_LIGHTMODE.o
 .debug_info    0x00450a03      0x163 Rte_SENSOR_SPEED.o
 .debug_info    0x00450b66      0x17b Rte_SENSOR_STEERINGANGLE.o
 .debug_info    0x00450ce1      0x8da TAKS_ECU_SPEED.o
 .debug_info    0x004515bb      0x3b7 target.o
 .debug_info    0x00451972      0x1d8 TASK_ACT_HIGHBEAM_RECEIVE.o
 .debug_info    0x00451b4a      0x89b TASK_ACT_HIGHBEAM_SEND.o
 .debug_info    0x004523e5      0x1f1 TASK_ACT_LEFTRIGHTANGLE_RECEIVE.o
 .debug_info    0x004525d6      0x8c5 TASK_ACT_LEFTRIGHTANGLE_SEND.o
 .debug_info    0x00452e9b      0x1d4 TASK_ACT_LOWBEAM_RECEIVE.o
 .debug_info    0x0045306f      0x896 TASK_ACT_LOWBEAM_SEND.o
 .debug_info    0x00453905      0x1e5 TASK_ACT_UPDOWNANGLE_RECEIVE.o
 .debug_info    0x00453aea      0x8ad TASK_ACT_UPDOWNANGLE_SEND.o
 .debug_info    0x00454397      0x1f3 TASK_APP_HIGHBEAM.o
 .debug_info    0x0045458a      0x24b TASK_APP_LOWBEAM.o
 .debug_info    0x004547d5      0x1e3 TASK_APP_MOTOR.o
 .debug_info    0x004549b8      0x165 TASK_ECU_ACTUATOR.o
 .debug_info    0x00454b1d      0x8f8 TASK_ECU_DISTANCE.o
 .debug_info    0x00455415      0x8da TASK_ECU_LIGHT.o
 .debug_info    0x00455cef      0x902 TASK_ECU_LIGHTMODE.o
 .debug_info    0x004565f1      0x92a TASK_EUC_STEERINGANGLE.o
 .debug_info    0x00456f1b      0x16b TASK_SENSOR_DISTANCE.o
 .debug_info    0x00457086      0x165 TASK_SENSOR_LIGHT.o
 .debug_info    0x004571eb      0x16d TASK_SENSOR_LIGHTMODE.o
 .debug_info    0x00457358      0x165 TASK_SENSOR_SPEED.o
 .debug_info    0x004574bd      0x175 TASK_SENSOR_STEERINGANGLE.o
 .debug_info    0x00457632      0x212 VECU_SystemClock_ISR.o
 .debug_info    0x00457844      0x6df VirtualDevices.o
 .debug_info    0x00457f23      0x327 Vrta_Cfg.o
 .debug_info    0x0045824a       0xb3 C:/Program Files/ETAS/ISOLAR-EVE3.0/plugins/com.etas.evetools.toolsfolder_1.4.5/Tools/MinGW/bin/../lib/gcc/i686-w64-mingw32/4.9.2/libgcc.a(_chkstk_ms.o)
 .debug_info    0x004582fd      0xce3 C:/Program Files/ETAS/ISOLAR-EVE3.0/plugins/com.etas.evetools.toolsfolder_1.4.5/Tools/MinGW/bin/../lib/gcc/i686-w64-mingw32/4.9.2/libgcc.a(_ctors.o)
 .debug_info    0x00458fe0      0x4ee C:/Program Files/ETAS/ISOLAR-EVE3.0/plugins/com.etas.evetools.toolsfolder_1.4.5/Tools/MinGW/bin/../lib/gcc/i686-w64-mingw32/4.9.2/libgcc.a(_divdi3.o)
 .debug_info    0x004594ce      0xb91 C:/Program Files/ETAS/ISOLAR-EVE3.0/plugins/com.etas.evetools.toolsfolder_1.4.5/Tools/MinGW/bin/../lib/gcc/i686-w64-mingw32/4.9.2/libgcc.a(gthr-win32.o)
 .debug_info    0x0045a05f     0x640e C:/Program Files/ETAS/ISOLAR-EVE3.0/plugins/com.etas.evetools.toolsfolder_1.4.5/Tools/MinGW/bin/../lib/gcc/i686-w64-mingw32/4.9.2/libgcc_eh.a(unwind-dw2.o)
 .debug_info    0x0046046d     0x3cb4 C:/Program Files/ETAS/ISOLAR-EVE3.0/plugins/com.etas.evetools.toolsfolder_1.4.5/Tools/MinGW/bin/../lib/gcc/i686-w64-mingw32/4.9.2/libgcc_eh.a(unwind-dw2-fde.o)
 .debug_info    0x00464121     0x1a2b C:/Program Files/ETAS/ISOLAR-EVE3.0/plugins/com.etas.evetools.toolsfolder_1.4.5/Tools/MinGW/bin/../lib/gcc/i686-w64-mingw32/4.9.2/libgcc_eh.a(emutls.o)

.zdebug_info
 *(.zdebug_info .zdebug.gnu.linkonce.wi.*)

.debug_abbrev   0x00466000     0x3600
 *(.debug_abbrev)
 .debug_abbrev  0x00466000       0x19 BswTasks.o
 .debug_abbrev  0x00466019      0x24b EVE_SystemClock.o
 .debug_abbrev  0x00466264       0x69 main.o
 .debug_abbrev  0x004662cd       0xb9 Os_ErrorHook.o
 .debug_abbrev  0x00466386      0x146 Os_Hooks.o
 .debug_abbrev  0x004664cc      0x1f7 Rte.o
 .debug_abbrev  0x004666c3       0x9d Rte_ACT_HIGHBEAM.o
 .debug_abbrev  0x00466760       0x9d Rte_ACT_LEFTRIGHT_MOTOR.o
 .debug_abbrev  0x004667fd       0x9d Rte_ACT_LOWBEAM.o
 .debug_abbrev  0x0046689a       0x9d Rte_ACT_UPDOWN_MOTOR.o
 .debug_abbrev  0x00466937       0x7c Rte_APP_HIGHBEAM.o
 .debug_abbrev  0x004669b3       0xc4 Rte_APP_LOWBEAM.o
 .debug_abbrev  0x00466a77       0x44 Rte_APP_MOTOR.o
 .debug_abbrev  0x00466abb       0x90 Rte_ECU_ABS_AFS.o
 .debug_abbrev  0x00466b4b      0x286 Rte_Lib.o
 .debug_abbrev  0x00466dd1       0x44 Rte_SENSOR_DISTANCE.o
 .debug_abbrev  0x00466e15       0x44 Rte_SENSOR_LIGHT.o
 .debug_abbrev  0x00466e59       0x44 Rte_SENSOR_LIGHTMODE.o
 .debug_abbrev  0x00466e9d       0x44 Rte_SENSOR_SPEED.o
 .debug_abbrev  0x00466ee1       0x44 Rte_SENSOR_STEERINGANGLE.o
 .debug_abbrev  0x00466f25      0x12a TAKS_ECU_SPEED.o
 .debug_abbrev  0x0046704f       0xfa target.o
 .debug_abbrev  0x00467149       0x53 TASK_ACT_HIGHBEAM_RECEIVE.o
 .debug_abbrev  0x0046719c      0x12a TASK_ACT_HIGHBEAM_SEND.o
 .debug_abbrev  0x004672c6       0x53 TASK_ACT_LEFTRIGHTANGLE_RECEIVE.o
 .debug_abbrev  0x00467319      0x12a TASK_ACT_LEFTRIGHTANGLE_SEND.o
 .debug_abbrev  0x00467443       0x53 TASK_ACT_LOWBEAM_RECEIVE.o
 .debug_abbrev  0x00467496      0x12a TASK_ACT_LOWBEAM_SEND.o
 .debug_abbrev  0x004675c0       0x53 TASK_ACT_UPDOWNANGLE_RECEIVE.o
 .debug_abbrev  0x00467613      0x12a TASK_ACT_UPDOWNANGLE_SEND.o
 .debug_abbrev  0x0046773d       0x53 TASK_APP_HIGHBEAM.o
 .debug_abbrev  0x00467790       0x53 TASK_APP_LOWBEAM.o
 .debug_abbrev  0x004677e3       0x53 TASK_APP_MOTOR.o
 .debug_abbrev  0x00467836       0x35 TASK_ECU_ACTUATOR.o
 .debug_abbrev  0x0046786b      0x12a TASK_ECU_DISTANCE.o
 .debug_abbrev  0x00467995      0x12a TASK_ECU_LIGHT.o
 .debug_abbrev  0x00467abf      0x12a TASK_ECU_LIGHTMODE.o
 .debug_abbrev  0x00467be9      0x12a TASK_EUC_STEERINGANGLE.o
 .debug_abbrev  0x00467d13       0x35 TASK_SENSOR_DISTANCE.o
 .debug_abbrev  0x00467d48       0x35 TASK_SENSOR_LIGHT.o
 .debug_abbrev  0x00467d7d       0x35 TASK_SENSOR_LIGHTMODE.o
 .debug_abbrev  0x00467db2       0x35 TASK_SENSOR_SPEED.o
 .debug_abbrev  0x00467de7       0x35 TASK_SENSOR_STEERINGANGLE.o
 .debug_abbrev  0x00467e1c       0x70 VECU_SystemClock_ISR.o
 .debug_abbrev  0x00467e8c      0x1bc VirtualDevices.o
 .debug_abbrev  0x00468048       0x77 Vrta_Cfg.o
 .debug_abbrev  0x004680bf       0x14 C:/Program Files/ETAS/ISOLAR-EVE3.0/plugins/com.etas.evetools.toolsfolder_1.4.5/Tools/MinGW/bin/../lib/gcc/i686-w64-mingw32/4.9.2/libgcc.a(_chkstk_ms.o)
 .debug_abbrev  0x004680d3       0x73 C:/Program Files/ETAS/ISOLAR-EVE3.0/plugins/com.etas.evetools.toolsfolder_1.4.5/Tools/MinGW/bin/../lib/gcc/i686-w64-mingw32/4.9.2/libgcc.a(_ctors.o)
 .debug_abbrev  0x00468146      0x12a C:/Program Files/ETAS/ISOLAR-EVE3.0/plugins/com.etas.evetools.toolsfolder_1.4.5/Tools/MinGW/bin/../lib/gcc/i686-w64-mingw32/4.9.2/libgcc.a(_divdi3.o)
 .debug_abbrev  0x00468270      0x29a C:/Program Files/ETAS/ISOLAR-EVE3.0/plugins/com.etas.evetools.toolsfolder_1.4.5/Tools/MinGW/bin/../lib/gcc/i686-w64-mingw32/4.9.2/libgcc.a(gthr-win32.o)
 .debug_abbrev  0x0046850a      0x5ce C:/Program Files/ETAS/ISOLAR-EVE3.0/plugins/com.etas.evetools.toolsfolder_1.4.5/Tools/MinGW/bin/../lib/gcc/i686-w64-mingw32/4.9.2/libgcc_eh.a(unwind-dw2.o)
 .debug_abbrev  0x00468ad8      0x5d0 C:/Program Files/ETAS/ISOLAR-EVE3.0/plugins/com.etas.evetools.toolsfolder_1.4.5/Tools/MinGW/bin/../lib/gcc/i686-w64-mingw32/4.9.2/libgcc_eh.a(unwind-dw2-fde.o)
 .debug_abbrev  0x004690a8      0x3c3 C:/Program Files/ETAS/ISOLAR-EVE3.0/plugins/com.etas.evetools.toolsfolder_1.4.5/Tools/MinGW/bin/../lib/gcc/i686-w64-mingw32/4.9.2/libgcc_eh.a(emutls.o)

.zdebug_abbrev
 *(.zdebug_abbrev)

.debug_line     0x0046a000     0x4800
 *(.debug_line)
 .debug_line    0x0046a000       0x1d BswTasks.o
 .debug_line    0x0046a01d      0x161 EVE_SystemClock.o
 .debug_line    0x0046a17e       0xba main.o
 .debug_line    0x0046a238       0xda Os_ErrorHook.o
 .debug_line    0x0046a312      0x11f Os_Hooks.o
 .debug_line    0x0046a431      0x3da Rte.o
 .debug_line    0x0046a80b       0xcf Rte_ACT_HIGHBEAM.o
 .debug_line    0x0046a8da       0xdd Rte_ACT_LEFTRIGHT_MOTOR.o
 .debug_line    0x0046a9b7       0xce Rte_ACT_LOWBEAM.o
 .debug_line    0x0046aa85       0xd7 Rte_ACT_UPDOWN_MOTOR.o
 .debug_line    0x0046ab5c       0xe7 Rte_APP_HIGHBEAM.o
 .debug_line    0x0046ac43       0xfe Rte_APP_LOWBEAM.o
 .debug_line    0x0046ad41       0x94 Rte_APP_MOTOR.o
 .debug_line    0x0046add5       0xeb Rte_ECU_ABS_AFS.o
 .debug_line    0x0046aec0      0x217 Rte_Lib.o
 .debug_line    0x0046b0d7       0x78 Rte_SENSOR_DISTANCE.o
 .debug_line    0x0046b14f       0x74 Rte_SENSOR_LIGHT.o
 .debug_line    0x0046b1c3       0x79 Rte_SENSOR_LIGHTMODE.o
 .debug_line    0x0046b23c       0x75 Rte_SENSOR_SPEED.o
 .debug_line    0x0046b2b1       0x7c Rte_SENSOR_STEERINGANGLE.o
 .debug_line    0x0046b32d      0x100 TAKS_ECU_SPEED.o
 .debug_line    0x0046b42d       0xc8 target.o
 .debug_line    0x0046b4f5       0xce TASK_ACT_HIGHBEAM_RECEIVE.o
 .debug_line    0x0046b5c3      0x107 TASK_ACT_HIGHBEAM_SEND.o
 .debug_line    0x0046b6ca       0xd4 TASK_ACT_LEFTRIGHTANGLE_RECEIVE.o
 .debug_line    0x0046b79e      0x10d TASK_ACT_LEFTRIGHTANGLE_SEND.o
 .debug_line    0x0046b8ab       0xcd TASK_ACT_LOWBEAM_RECEIVE.o
 .debug_line    0x0046b978      0x106 TASK_ACT_LOWBEAM_SEND.o
 .debug_line    0x0046ba7e       0xd1 TASK_ACT_UPDOWNANGLE_RECEIVE.o
 .debug_line    0x0046bb4f      0x10a TASK_ACT_UPDOWNANGLE_SEND.o
 .debug_line    0x0046bc59       0xc9 TASK_APP_HIGHBEAM.o
 .debug_line    0x0046bd22       0xce TASK_APP_LOWBEAM.o
 .debug_line    0x0046bdf0       0xc6 TASK_APP_MOTOR.o
 .debug_line    0x0046beb6       0x84 TASK_ECU_ACTUATOR.o
 .debug_line    0x0046bf3a      0x103 TASK_ECU_DISTANCE.o
 .debug_line    0x0046c03d      0x100 TASK_ECU_LIGHT.o
 .debug_line    0x0046c13d      0x104 TASK_ECU_LIGHTMODE.o
 .debug_line    0x0046c241      0x108 TASK_EUC_STEERINGANGLE.o
 .debug_line    0x0046c349       0x76 TASK_SENSOR_DISTANCE.o
 .debug_line    0x0046c3bf       0x73 TASK_SENSOR_LIGHT.o
 .debug_line    0x0046c432       0x77 TASK_SENSOR_LIGHTMODE.o
 .debug_line    0x0046c4a9       0x73 TASK_SENSOR_SPEED.o
 .debug_line    0x0046c51c       0x7b TASK_SENSOR_STEERINGANGLE.o
 .debug_line    0x0046c597       0x75 VECU_SystemClock_ISR.o
 .debug_line    0x0046c60c      0x198 VirtualDevices.o
 .debug_line    0x0046c7a4       0x86 Vrta_Cfg.o
 .debug_line    0x0046c82a       0x77 C:/Program Files/ETAS/ISOLAR-EVE3.0/plugins/com.etas.evetools.toolsfolder_1.4.5/Tools/MinGW/bin/../lib/gcc/i686-w64-mingw32/4.9.2/libgcc.a(_chkstk_ms.o)
 .debug_line    0x0046c8a1       0x9e C:/Program Files/ETAS/ISOLAR-EVE3.0/plugins/com.etas.evetools.toolsfolder_1.4.5/Tools/MinGW/bin/../lib/gcc/i686-w64-mingw32/4.9.2/libgcc.a(_ctors.o)
 .debug_line    0x0046c93f       0xc1 C:/Program Files/ETAS/ISOLAR-EVE3.0/plugins/com.etas.evetools.toolsfolder_1.4.5/Tools/MinGW/bin/../lib/gcc/i686-w64-mingw32/4.9.2/libgcc.a(_divdi3.o)
 .debug_line    0x0046ca00      0x27a C:/Program Files/ETAS/ISOLAR-EVE3.0/plugins/com.etas.evetools.toolsfolder_1.4.5/Tools/MinGW/bin/../lib/gcc/i686-w64-mingw32/4.9.2/libgcc.a(gthr-win32.o)
 .debug_line    0x0046cc7a      0xfa0 C:/Program Files/ETAS/ISOLAR-EVE3.0/plugins/com.etas.evetools.toolsfolder_1.4.5/Tools/MinGW/bin/../lib/gcc/i686-w64-mingw32/4.9.2/libgcc_eh.a(unwind-dw2.o)
 .debug_line    0x0046dc1a      0x8d7 C:/Program Files/ETAS/ISOLAR-EVE3.0/plugins/com.etas.evetools.toolsfolder_1.4.5/Tools/MinGW/bin/../lib/gcc/i686-w64-mingw32/4.9.2/libgcc_eh.a(unwind-dw2-fde.o)
 .debug_line    0x0046e4f1      0x2cd C:/Program Files/ETAS/ISOLAR-EVE3.0/plugins/com.etas.evetools.toolsfolder_1.4.5/Tools/MinGW/bin/../lib/gcc/i686-w64-mingw32/4.9.2/libgcc_eh.a(emutls.o)

.zdebug_line
 *(.zdebug_line)

.debug_frame    0x0046f000      0x200
 *(.debug_frame*)
 .debug_frame   0x0046f000       0x38 C:/Program Files/ETAS/ISOLAR-EVE3.0/plugins/com.etas.evetools.toolsfolder_1.4.5/Tools/MinGW/bin/../lib/gcc/i686-w64-mingw32/4.9.2/libgcc.a(_chkstk_ms.o)

.zdebug_frame
 *(.zdebug_frame*)

.debug_str      0x00470000      0x600
 *(.debug_str)
 .debug_str     0x00470000        0x0 BswTasks.o
 .debug_str     0x00470000       0x36 EVE_SystemClock.o
 .debug_str     0x00470036        0x0 main.o
 .debug_str     0x00470036       0x20 Os_ErrorHook.o
 .debug_str     0x00470056       0x20 Os_Hooks.o
 .debug_str     0x00470076       0x8d Rte.o
 .debug_str     0x00470103        0x0 Rte_ACT_HIGHBEAM.o
 .debug_str     0x00470103        0x0 Rte_ACT_LEFTRIGHT_MOTOR.o
 .debug_str     0x00470103        0x0 Rte_ACT_LOWBEAM.o
 .debug_str     0x00470103        0x0 Rte_ACT_UPDOWN_MOTOR.o
 .debug_str     0x00470103        0x0 Rte_APP_HIGHBEAM.o
 .debug_str     0x00470103        0x0 Rte_APP_LOWBEAM.o
 .debug_str     0x00470103        0x0 Rte_APP_MOTOR.o
 .debug_str     0x00470103       0x12 Rte_ECU_ABS_AFS.o
 .debug_str     0x00470115       0x67 Rte_Lib.o
 .debug_str     0x0047017c        0x0 Rte_SENSOR_DISTANCE.o
 .debug_str     0x0047017c        0x0 Rte_SENSOR_LIGHT.o
 .debug_str     0x0047017c        0x0 Rte_SENSOR_LIGHTMODE.o
 .debug_str     0x0047017c        0x0 Rte_SENSOR_SPEED.o
 .debug_str     0x0047017c        0x0 Rte_SENSOR_STEERINGANGLE.o
 .debug_str     0x0047017c       0x3e TAKS_ECU_SPEED.o
 .debug_str     0x004701ba        0x0 target.o
 .debug_str     0x004701ba        0x0 TASK_ACT_HIGHBEAM_RECEIVE.o
 .debug_str     0x004701ba       0x3b TASK_ACT_HIGHBEAM_SEND.o
 .debug_str     0x004701f5        0x0 TASK_ACT_LEFTRIGHTANGLE_RECEIVE.o
 .debug_str     0x004701f5       0x3b TASK_ACT_LEFTRIGHTANGLE_SEND.o
 .debug_str     0x00470230        0x0 TASK_ACT_LOWBEAM_RECEIVE.o
 .debug_str     0x00470230       0x3b TASK_ACT_LOWBEAM_SEND.o
 .debug_str     0x0047026b        0x0 TASK_ACT_UPDOWNANGLE_RECEIVE.o
 .debug_str     0x0047026b       0x3b TASK_ACT_UPDOWNANGLE_SEND.o
 .debug_str     0x004702a6        0x0 TASK_APP_HIGHBEAM.o
 .debug_str     0x004702a6        0x0 TASK_APP_LOWBEAM.o
 .debug_str     0x004702a6        0x0 TASK_APP_MOTOR.o
 .debug_str     0x004702a6        0x0 TASK_ECU_ACTUATOR.o
 .debug_str     0x004702a6       0x3e TASK_ECU_DISTANCE.o
 .debug_str     0x004702e4       0x3e TASK_ECU_LIGHT.o
 .debug_str     0x00470322       0x3e TASK_ECU_LIGHTMODE.o
 .debug_str     0x00470360       0x3e TASK_EUC_STEERINGANGLE.o
 .debug_str     0x0047039e        0x0 TASK_SENSOR_DISTANCE.o
 .debug_str     0x0047039e        0x0 TASK_SENSOR_LIGHT.o
 .debug_str     0x0047039e        0x0 TASK_SENSOR_LIGHTMODE.o
 .debug_str     0x0047039e        0x0 TASK_SENSOR_SPEED.o
 .debug_str     0x0047039e        0x0 TASK_SENSOR_STEERINGANGLE.o
 .debug_str     0x0047039e        0x0 VECU_SystemClock_ISR.o
 .debug_str     0x0047039e        0x6 VirtualDevices.o
 .debug_str     0x004703a4        0x0 Vrta_Cfg.o
 .debug_str     0x004703a4        0x0 C:/Program Files/ETAS/ISOLAR-EVE3.0/plugins/com.etas.evetools.toolsfolder_1.4.5/Tools/MinGW/bin/../lib/gcc/i686-w64-mingw32/4.9.2/libgcc.a(_ctors.o)
 .debug_str     0x004703a4        0x0 C:/Program Files/ETAS/ISOLAR-EVE3.0/plugins/com.etas.evetools.toolsfolder_1.4.5/Tools/MinGW/bin/../lib/gcc/i686-w64-mingw32/4.9.2/libgcc.a(_divdi3.o)
 .debug_str     0x004703a4        0xf C:/Program Files/ETAS/ISOLAR-EVE3.0/plugins/com.etas.evetools.toolsfolder_1.4.5/Tools/MinGW/bin/../lib/gcc/i686-w64-mingw32/4.9.2/libgcc.a(gthr-win32.o)
 .debug_str     0x004703b3       0xac C:/Program Files/ETAS/ISOLAR-EVE3.0/plugins/com.etas.evetools.toolsfolder_1.4.5/Tools/MinGW/bin/../lib/gcc/i686-w64-mingw32/4.9.2/libgcc_eh.a(unwind-dw2.o)
 .debug_str     0x0047045f       0x7f C:/Program Files/ETAS/ISOLAR-EVE3.0/plugins/com.etas.evetools.toolsfolder_1.4.5/Tools/MinGW/bin/../lib/gcc/i686-w64-mingw32/4.9.2/libgcc_eh.a(unwind-dw2-fde.o)
 .debug_str     0x004704de       0x1f C:/Program Files/ETAS/ISOLAR-EVE3.0/plugins/com.etas.evetools.toolsfolder_1.4.5/Tools/MinGW/bin/../lib/gcc/i686-w64-mingw32/4.9.2/libgcc_eh.a(emutls.o)

.zdebug_str
 *(.zdebug_str)

.debug_loc      0x00471000     0x9800
 *(.debug_loc)
 .debug_loc     0x00471000      0x29d C:/Program Files/ETAS/ISOLAR-EVE3.0/plugins/com.etas.evetools.toolsfolder_1.4.5/Tools/MinGW/bin/../lib/gcc/i686-w64-mingw32/4.9.2/libgcc.a(_divdi3.o)
 .debug_loc     0x0047129d      0x220 C:/Program Files/ETAS/ISOLAR-EVE3.0/plugins/com.etas.evetools.toolsfolder_1.4.5/Tools/MinGW/bin/../lib/gcc/i686-w64-mingw32/4.9.2/libgcc.a(gthr-win32.o)
 .debug_loc     0x004714bd     0x66d3 C:/Program Files/ETAS/ISOLAR-EVE3.0/plugins/com.etas.evetools.toolsfolder_1.4.5/Tools/MinGW/bin/../lib/gcc/i686-w64-mingw32/4.9.2/libgcc_eh.a(unwind-dw2.o)
 .debug_loc     0x00477b90     0x2604 C:/Program Files/ETAS/ISOLAR-EVE3.0/plugins/com.etas.evetools.toolsfolder_1.4.5/Tools/MinGW/bin/../lib/gcc/i686-w64-mingw32/4.9.2/libgcc_eh.a(unwind-dw2-fde.o)
 .debug_loc     0x0047a194      0x4bd C:/Program Files/ETAS/ISOLAR-EVE3.0/plugins/com.etas.evetools.toolsfolder_1.4.5/Tools/MinGW/bin/../lib/gcc/i686-w64-mingw32/4.9.2/libgcc_eh.a(emutls.o)

.zdebug_loc
 *(.zdebug_loc)

.debug_macinfo
 *(.debug_macinfo)

.zdebug_macinfo
 *(.zdebug_macinfo)

.debug_weaknames
 *(.debug_weaknames)

.zdebug_weaknames
 *(.zdebug_weaknames)

.debug_funcnames
 *(.debug_funcnames)

.zdebug_funcnames
 *(.zdebug_funcnames)

.debug_typenames
 *(.debug_typenames)

.zdebug_typenames
 *(.zdebug_typenames)

.debug_varnames
 *(.debug_varnames)

.zdebug_varnames
 *(.zdebug_varnames)

.debug_macro
 *(.debug_macro)

.zdebug_macro
 *(.zdebug_macro)

.debug_ranges   0x0047b000     0x1200
 *(.debug_ranges)
 .debug_ranges  0x0047b000       0x30 EVE_SystemClock.o
 .debug_ranges  0x0047b030       0x20 VirtualDevices.o
 .debug_ranges  0x0047b050       0x20 C:/Program Files/ETAS/ISOLAR-EVE3.0/plugins/com.etas.evetools.toolsfolder_1.4.5/Tools/MinGW/bin/../lib/gcc/i686-w64-mingw32/4.9.2/libgcc.a(_divdi3.o)
 .debug_ranges  0x0047b070       0x30 C:/Program Files/ETAS/ISOLAR-EVE3.0/plugins/com.etas.evetools.toolsfolder_1.4.5/Tools/MinGW/bin/../lib/gcc/i686-w64-mingw32/4.9.2/libgcc.a(gthr-win32.o)
 .debug_ranges  0x0047b0a0      0xa28 C:/Program Files/ETAS/ISOLAR-EVE3.0/plugins/com.etas.evetools.toolsfolder_1.4.5/Tools/MinGW/bin/../lib/gcc/i686-w64-mingw32/4.9.2/libgcc_eh.a(unwind-dw2.o)
 .debug_ranges  0x0047bac8      0x4f0 C:/Program Files/ETAS/ISOLAR-EVE3.0/plugins/com.etas.evetools.toolsfolder_1.4.5/Tools/MinGW/bin/../lib/gcc/i686-w64-mingw32/4.9.2/libgcc_eh.a(unwind-dw2-fde.o)
 .debug_ranges  0x0047bfb8       0xa0 C:/Program Files/ETAS/ISOLAR-EVE3.0/plugins/com.etas.evetools.toolsfolder_1.4.5/Tools/MinGW/bin/../lib/gcc/i686-w64-mingw32/4.9.2/libgcc_eh.a(emutls.o)

.zdebug_ranges
 *(.zdebug_ranges)

.debug_types
 *(.debug_types .gnu.linkonce.wt.*)

.zdebug_types
 *(.zdebug_types .gnu.linkonce.wt.*)
OUTPUT(AFS.exe pei-i386)
